
// JOB SYSGEN01   ASSEMBLE NEW SUPERVISOR                               00.00.42
// PAUSE SCRATCH TAPE NEEDED ON X'280'
MTC REW,X'280'
MTC WTM,X'280',5
MTC REW,X'280'
// ASSGN SYSPCH,X'280'
// OPTION DECK
// EXEC ASSEMBLY

                                              EXTERNAL SYMBOL DICTIONARY                                       PAGE    1


SYMBOL   TYPE ID  ADDR  LENGTH LD ID

IJBSUP20  SD  01 000000 005FDA
IJB$$STP  LD     006000         01
IJB$$EOS  LD     006000         01
                                                                                                               PAGE    1


  LOC  OBJECT CODE    ADDR1 ADDR2  STMT   SOURCE STATEMENT                                          FDOS CL3-10 03/29/70

                                      1          SUPVR AP=YES,                  MULTITASKING                   X
                                                       ASCII=YES,               ASCII SUPPORT                  X
                                                       ERRLOG=NO,               NO ERRLOG ON 360               X
                                                       EU=NO,                   14XX EMULATOR                  X
                                                       MCRR=NO,                 MACHINE CHECK RECORDING        X
                                                       MICR=NO,                 MAGNETIC INK CHARACTER READERS X
                                                       MPS=BJF,                 MULTIPROGRAMMING OPTION        X
                                                       SYSTEM=DISK,             DISK OPERATING SYSTEM (DOS)    X
                                                       TP=BTAM                  TELEPROCESSING OPTIONS
                                      2+*360N-CL-453  SUPVR    CHANGE LEVEL  3-11                          3-11
                                      3+         REPRO
                                      4+         PHASE $$A$SUP1,+0,NOAUTO                                       R4530171
000000                                5+IJBSUP20 CSECT
       DOS SUPERVISOR - LOW CORE AND COMMUNICATION REGION                                                      PAGE    2


  LOC  OBJECT CODE    ADDR1 ADDR2  STMT   SOURCE STATEMENT                                          FDOS CL3-10 03/29/70

000000                                7+SYSS00   EQU   *
000000                                8+         USING SYSS00,R0,RB,RC,RD,RE 3-9
000000                                9+         USING PIBADR,RA
000000 0000000000000000              10+         DC    11H'0'
000016 03F0                          11+CRADDR   DC    Y(COMREG)
000018 FF05000000000000              12+EXOLDP   DC    XL8'FF05000000000000' EXTRN OLD PSW
000020 0000000000000000              13+SVOLDP   DC    XL8'0' SVC OLD PSW
000028 0000000000000000              14+PCOLDP   DC    XL8'0' PROG CHECK OLD PSW
000030 0000000000000000              15+MCOLDP   DC    XL8'0' MACHINE CHECK OLD PSW            3-9
000038 FF00000000000000              16+IOOPSW   DC    XL8'FF00000000000000' I/O OLD PSW                 3-4
00003A                               17+CHNADR   EQU   IOOPSW+2 CHANN NO. OF INTERR DEVICE
00003B                               18+DEVADR   EQU   CHNADR+1 DEVICE NO.
000040 0000000000000000              19+CSW      DC    XL8'0' CHANN STATUS WORD
000041                               20+CCWDRS   EQU   CSW+1 CSW CCW ADDR
000044                               21+DEVSTA   EQU   CSW+4 DEVICE STATUS
000045                               22+CHNSTA   EQU   CSW+5 CHANN STATUS
000046                               23+CSWCNT   EQU   CSW+6 RESIDUAL COUNT
000048 00000000                      24+CAW      DC    XL4'0' CHANN ADDR WORD
000049                               25+CMDADR   EQU   CAW+1 CCW ADDR
00004C 00000000                      26+         DC    F'0' JOB DURATION FOR BG
000050 FF000000                      27+SYSTIMER DC    X'FF000000'
000054 00FF0000                      28+SYSTOD   DC    X'00FF0000' 3-5
                                     29+*                                       TOD - TIMER = ACTUAL TOD
000058 000400000F                    30+XTNPSW   DC    X'000400000F' NEW EXTERNAL PSW - EXT.-INTRPT
000058                               31+DISABL   EQU   XTNPSW USED AS SYSTEM MASK
00005D 00256A                        32+         DC    AL3(ENTEXT)
000060 00040000                      33+SCNPSW   DC    X'00040000'
000064 00000670                      34+         DC    A(ENTSVC)
000068 00040000                      35+PCNPSW   DC    X'00040000' PROGRAM-CHECK NEW PSW
00006C 000024FC                      36+         DC    A(ENTPCK)
000070 00000000                      37+MCNPSW   DC    X'00000000' MACHINE-CHECK NEW PSW
000074 000012A4                      38+         DC    A(MACHEK) MACHINE CHECK
000078 00040000                      39+IONPSW   DC    X'00040000'
00007C 000004C0                      40+         DC    A(ENTIO)


                                     42          CONFG DEC=YES,                 DECIMAL FEATURE                X
                                                       FP=YES,                  FLOATING POINT FEATURE         X
                                                       MODEL=40,                CPU MODEL/CLASS                X
                                                       PORT=NO,                 NO PORTABILITY TO 370          X
                                                       SP=YES,                  STORAGE PROTECT FEATURE        X
                                                       TIMER=YES                CPU HAS CLOCK
                                     43+*360N-CL-453 CONFG     CHANGE LEVEL 3-11                           3-11


                                     45          STDJC CHARSET=60C,             PL/I CHARACTER SET             X
                                                       DATE=MDY,                FORMAT OF DATE (MDY OR YMD)    X
                                                       DECK=NO,                 OBJECT TO SYSPCH               X
                                                       DUMP=NO,                 AUTO-DUMP DUE TO ABEND         X
                                                       ERRS=YES,                COMPILER ERRORS ON SYSLST      X
                                                       LINES=56,                LINES PER PAGE ON SYSLST       X
       DOS SUPERVISOR - LOW CORE AND COMMUNICATION REGION                                                      PAGE    3


  LOC  OBJECT CODE    ADDR1 ADDR2  STMT   SOURCE STATEMENT                                          FDOS CL3-10 03/29/70

                                                       LIST=YES,                SOURCE LISTINGS ON SYSLST      X
                                                       LISTX=NO,                OBJECT LISTINGS ON SYSLST      X
                                                       LOG=YES,                 CONTROL STATEMENTS ON SYSLST   X
                                                       SPARM=YES,               SYSPARM=                       X
                                                       SYM=NO,                  SYMBOL & OFFSET LIST ON SYSLST X
                                                       XREF=YES                 CROSS REFERENCE ON SYSLST
                                     46+*360N-CL-453  STDJC    CHANGE LEVEL  3-11                          3-11


                                     48          FOPT  AB=YES,                  ABEND EXIT FUNCTIONS           X
                                                       CBF=NO,                  CONSOLE BUFFERING              X
                                                       CCHAIN=YES,              RETRY I/O AT FAILING CCW       X
                                                       CE=800,                  CE AREA (800 FOR PDAIDS)       X
                                                       DASDFP=(1,2,2321),       DASD FILE PROTECT              X
                                                       EVA=NO,                  TAPE ERROR VOLUME ANALYSIS     X
                                                       IDRA=YES,                INDEPENDENT DIR READ AREA      X
                                                       IT=F2,                   INTERVAL TIMER OWNER           X
                                                       JA=(12,12,12),           JOB ACCOUNTING MAX DEVICES     X
                                                       JALIOCS=(72,0),          JOB ACCOUNTING                 X
                                                       OC=YES,                  OPERATOR CONSOLE SUPPORT       X
                                                       OLTEP=YES,               ONLINE TESTING FUNCTIONS       X
                                                       PC=YES,                  STXIT PC SUPPORT               X
                                                       PCIL=YES,                PRIVATE CORE IMAGE SUPPORT     X
                                                       PTO=YES,                 PHYSICAL TRANSIENT OVERLAP     X
                                                       RETAIN=NO,               2955 DEVICE SUPPORT            X
                                                       SKSEP=NO,                DASD SEEK SEPARATION           X
                                                       SYSFIL=(2314,1000,1000), SYSTEM FILES ON DISK           X
                                                       TEB=8,                   TAPE ERROR BLOCKS              X
                                                       TEBV=NO,                 TAPE ERROR BLOCKS BY VOLUME    X
                                                       TRKHLD=8,                TRACK HOLD                     X
                                                       WAITM=YES                WAIT MULTIPLE SUPPORT
                                     49+*360N-CL-453 FOPT       CHANGE LEVEL 3-12                          3-12
000002                               50+ITKEY    EQU   2
000080                               51+LOGOUT   EQU   * 3-5
000080 0000000000000000              52+         DC    12X'0' DIAGNOSTIC SCAN OUT AREA                      3-5
       DOS SUPERVISOR - LOW CORE AND COMMUNICATION REGION                                                      PAGE    4


  LOC  OBJECT CODE    ADDR1 ADDR2  STMT   SOURCE STATEMENT                                          FDOS CL3-10 03/29/70

00008C 00005C40                      54+CETABPTR DC    A(CETAB) POINTER TO C/E TABLE
000090 0000                          55+CEPIK    DC    H'0' VALUE OF THE PIK FOR THE CE ROUTIN3-1
000092                               56+TRTMSK   DS    0CL6 TRT MASK FOR TASK SELECTION                    3-2
000092 00                            57+         DC    X'0' 3-2
000093 03                            58+TRTLTK   DC    X'3' SET TO 0 WHEN LTA IS ACTIVE                   3-2
000094 00                            59+         DC    X'0' SVC   7  TRT  BYTE                          3-2
000095 03                            60+TRTRUN   DC    X'3' 3-2
000096 00                            61+         DC    X'0' 3-2
000097 05                            62+         DC    X'5' 3-2
000098 00                            63+         DC    X'0' 3-2
000099 03                            64+TRTPTA   DC    X'3' 0 WHEN PTA  IS BUSY                          3-2
00009A 00                            65+         DC    X'0' 3-9
00009B 03                            66+TRTIDRA  DC    X'3' 0 WHEN IDRA IS BUSY          3-9
       DOS SUPERVISOR - GENERAL CANCEL ROUTINE                                                                 PAGE    5


  LOC  OBJECT CODE    ADDR1 ADDR2  STMT   SOURCE STATEMENT                                          FDOS CL3-10 03/29/70

                                     68+*   GENERAL CANCEL OBJECTIVE IS TO SET THE CANCEL CODE IN THE PIB AND
                                     69+*   TO RELEASE THE LOGICAL TRANSIENT AREA,IF NECESSARY.
                                     70+* LOGICAL I/O CANCEL ROUTINE
                                     71+*                                       CALC ERR CODE USING BCTR TABLE
00009C 06B0                          72+ERR30    BCTR  RB,0 READING PAST /&
00009E 06B0                          73+ERR31    BCTR  RB,0 ERROR QUE OVERFLOW
0000A0 06B0                          74+ERR32    BCTR  RB,0 INVALID DASD ADDR
0000A2 41BB 0073            00073    75+ERR33    LA    RB,LIO33+CANCALL(RB) LONG SEEK OMITTED
0000A6 4570 0170            00170    76+         BAL   R7,CNLSVE INIT FOR CANCEL
0000AA 940F C4FD      024FD          77+         NI    PCHKSW+1,X'0F'
0000AE 41A0 D5F0            035F0    78+         LA    RA,PIBBG
0000B2 4570 B26C            0126C    79+         BAL   R7,GETPIB GET PIBADR FOR CANCELLING
0000B6 18A8                          80+         LR    RA,R8
0000B8 4190 01B0            001B0    81+         LA    R9,EXT02 CHNL SCD EXIT
0000BC 92FF BA31      01A31          82+         MVI   WHLMSW,X'FF' 3-9
0000C0 4580 00F2            000F2    83+         BAL   R8,ERRGO SET UP FOR CANCEL            3-9
0000C4 9200 BA31      01A31          84+         MVI   WHLMSW,X'00' 3-9
0000C8 47F0 C2D6            022D6    85+         B     DEQUE DEQUE THE CCB                3-9
                                     86+* LOGICAL CANCEL ROUTINE
                                     87+*                                       CALC ERR CODE USING BCTR TABLE
0000CC 06B0                          88+ERR1C    BCTR  RB,0 CANCEL ALL MACRO                 3-3
0000CE 06B0                          89+ERR1D    BCTR  RB,0 MAINTASK CANCELLATION            3-3
0000D0 06B0                          90+ERR1E    BCTR  RB,0 UNKNOWN ENQ REQUESTOR            3-3
0000D2 06B0                          91+         BCTR  RB,0 CANCEL CODE X'1F'                3-3
0000D4 06B0                          92+ERR20    BCTR  RB,0 PROG CHECK
0000D6 06B0                          93+ERR21    BCTR  RB,0 ILLEGAL SVC
0000D8 06B0                          94+ERR22    BCTR  RB,0 PHASE NOT FOUND
0000DA 06B0                          95+ERR23    BCTR  RB,0 PROGRAM REQUEST
0000DC 06B0                          96+ERR24    BCTR  RB,0 OPERATOR REQUEST
0000DE 06B0                          97+ERR25    BCTR  RB,0 INVALID ADDRESS
0000E0 06B0                          98+ERR26    BCTR  RB,0 UNASSIGNED LUB CODE
0000E2 41BB 0017            00017    99+ERR27    LA    RB,LERR27(RB) INVALID LUB CODE IN CCB
0000E6 41BB 0050            00050   100+ERR10    LA    RB,ISCNCL+CANCALL(RB) NORMAL END OF JOB-STEP
0000EA 4570 0170            00170   101+         BAL   R7,CNLSVE INIT FOR CANCEL
0000EE 4180 01B0            001B0   102+         LA    R8,EXT02
0000F2 9640 A001      00001         103+ERRGO    OI    PIBCNCL,CANCALL SET CALL CANCEL FLAG
0000F6 9120 A00C      0000C         104+         TM    PIBPUBAS,CNL2ND CANCEL IN CANCEL
0000FA 4710 0102            00102   105+         BO    ERRSET YES,SKIP
0000FE 9200 A001      00001         106+ERRSET0  MVI   PIBCNCL,0 POST CANCEL CODE IN PIB
0000FF                              107+ERRSET0D EQU   ERRSET0+1 IMMEDIATE DATA MODIFIED
                                    108+* ERRSET IS A CANCEL FROM A PHYSICAL TRANSIENT.IT WILL NOT POST CANCEL,
                                    109+* BUT WILL MAKE ALL OTHER CANCEL CHECKS.
000102                              110+ERRSET   EQU   * 3-6
000102 9604 A00F      0000F         111+         OI    PIBFLG2,CNCLD SET CANCEL IN PROGRESS BIT IN PIB 3-3
000106 95E2 A002      00002         112+         CLI   PIBLOGID,C'S' IS IT SUPVR
00010A 4780 B53A            0153A   113+         BE    SUPCNL YES HARD WAIT
00010E 95C1 A002      00002         114+         CLI   PIBLOGID,C'A' IS IT THE ATTENTION ROUTINE? 3-7
000112 4780 B53A            0153A   115+         BE    SUPCNL YES, HARD WAIT               3-7
000116 9561 A002      00002         116+         CLI   PIBLOGID,C'/' QUIESCE I/O                  3-6
00011A 4780 012A            0012A   117+         BE    ERRSET1 YES                          3-6
00011E 9104 A000      00000         118+         TM    PIBFLG,SUPFLG PROGRAM SEIZED SYSTEM        3-6
       DOS SUPERVISOR - GENERAL CANCEL ROUTINE                                                                 PAGE    6


  LOC  OBJECT CODE    ADDR1 ADDR2  STMT   SOURCE STATEMENT                                          FDOS CL3-10 03/29/70

000122 4780 012A            0012A   119+         BZ    ERRSET1 NO                           3-6
000126 9203 0095      00095         120+         MVI   TRTRUN,NOTSVC7+NOTSVC2 MAKE TRT ACTIVE              3-6
00012A 9281 A000      00000         121+ERRSET1  MVI   PIBFLG,FLG80+NOTSVC7 SET PIB TO LOG. TRANS BOUND     3-6
00012E 4BA0 044A            0044A   122+         SH    RA,PIBPT
000132 487A D4E0            034E0   123+         LH    R7,PIB2AD(RA) GET COMM. REGION ADDRESS             3-6
000136 49A0 048C            0048C   124+         CH    RA,LID DOES CANCELED PROG OWN THC LTA    3-3
00013A 41AA D5E0            035E0   125+         LA    RA,PIBTAB(RA) RESTOR PIB ADDR IN R10
00013E 0778                         126+         BCR   NE,R8 NO,EXIT
000140 94F9 703B      0003B         127+         NI    59(R7),255-X'06'
000144 D701 7058 7058 00058 00058   128+         XC    88(2,R7),88(R7)
00014A 9283 A000      00000         129+         MVI   PIBFLG,FLG80+NOTSVC7+NOTSVC2 SET PROG ACTIVE
00014E 95FF BA30      01A30         130+         CLI   SVANCL,X'FF' 3-3
000152 9200 BA30      01A30         131+         MVI   SVANCL,X'00' 3-3
000156 0788                         132+         BCR   E,R8 3-3
000158 9680 A001      00001         133+LTACNL   OI    PIBCNCL,CNCL80 YES,SET LOG TRANS SW IN CANCL3-4
00015C 4400 0906            00906   134+         EX    0,COMPCLC
000160 4780 C17E            0217E   135+         BC    E,SVC11A 3-3
000164 947F A001      00001         136+         NI    PIBCNCL,255-CNCL80 TURN OFF LTA CANCEL FLAG
000168 92F0 C19B      0219B         137+         MVI   SVC11B+1,X'F0' MODIFY NOP IN SVC 11 RTN       3-3
00016C 47F0 C17E            0217E   138+         B     SVC11A 3-3
                                    139+*
                                    140+*  THE OBJECTIVE OF SVEREG IS TO SAVE THE USER'S REGISTERS AND
                                    141+*   PSW IF NOT ALREADY SAVED.
000000                              142+         USING PIBADR,RA 3-2
000170 42B0 00FF            000FF   143+CNLSVE   STC   RB,ERRSET0D SET ERROR CODE               3-9
000174 58B0 0340            00340   144+         L     RB,BASRGS INIT BASE REGS               3-9
000178 9180 A000      00000         145+SVEREG   TM    PIBFLG,FLG80 HAVE REGS BEEN SAVED ALREADY
00017C 0717                         146+         BCR   O,R7 YES - RETURN TO CALLER
00017E 5890 A004            00004   147+         L     R9,PIBINSTR NO,PICK UP SAVE AREA ADDRESS
000182 4880 0290            00290   148+         LH    R8,HLDPSW-1 GET OLP PSW ADDRESS
000000                              149+         USING SVEARA,R9
000186 5000 902C            0002C   150+         ST    R0,SVER00 3-9
00018A 6000 9058            00058   151+         STD   FPR0,SVEFP0
00018E 6020 9060            00060   152+         STD   FPR2,SVEFP2
000192 6040 9068            00068   153+         STD   FPR4,SVEFP4
000196 6060 9070            00070   154+         STD   FPR6,SVEFP6
00019A D21B 9010 0320 00010 00320   155+         MVC   SVER09(L'ERA),ERA
0001A0 D207 9008 8000 00008 00000   156+         MVC   SVEPSW1,0(R8) SAVE THE OLD PSW
                                    157+         DROP  R9
0001A6 9680 A000      00000         158+         OI    PIBFLG,FLG80 TURN ON REG SAVED FLAG IN PIB
0001AA 07F7                         159+         BR    R7
       DOS SUPERVISOR - GENERAL EXIT ROUTINE                                                                   PAGE    7


  LOC  OBJECT CODE    ADDR1 ADDR2  STMT   SOURCE STATEMENT                                          FDOS CL3-10 03/29/70

                                    161+*   GENERAL EXIT HAS TWO OBJECTIVES,(1) TO TRANSFER CONTROL TO THE
                                    162+*   HIGHEST ACTIVE PROGRAM,(2) RESTORE THE PP REGISTERS.
0001AC 4570 0178            00178   163+EXT03    BAL   R7,SVEREG SAVE REGS OF INTERRUPTED PROG
0001B0 D210 BA0E BA20 01A0E 01A20   164+EXT02    MVC   TRTFLD,MVCFLD SET UP TO TRT THE PIB FLAGS
0001B6 58E0 034C            0034C   165+         L     RE,BASRGE RESTORE BASE                           3-9
0001BA 9120 B74A      0174A         166+         TM    IDRASW,IDRA20 WAS FETCH INTERRUPTED DURING3-11
0001BE 4780 01C6            001C6   167+         BZ    NOFECHQI QUIS B IF NO                3-11
0001C2 9285 D640      03640         168+         MVI   PIBSUPVR,X'85' MAKE SURE THAT SUPERVISOR   3-11
                                    169+*                                      WILL BE SELECTED            3-11
0001C6                              170+NOFECHQI EQU   * 3-11
0001C6 DC10 BA0E D5E0 01A0E 035E0   171+         TR    TRTFLD,PIBTAB
0001CC 1BAA                         172+         SR    RA,RA
0001CE DD11 BA0E 0012 01A0E 00012   173+         TRT   TRTFLD(L'TRTFLD+1),TRTMSK-X'80' SCAN FLAGS
0001D4 43A1 0012            00012   174+         IC    RA,1+L'TRTFLD(R1)
0001D8 42A0 048F            0048F   175+         STC   RA,PIK+1
0001DC 4AA0 046C            0046C   176+         AH    RA,PIB2PTR GET PARTITION ID AND SAVE         3-3
0001E0 D200 041F A00D 0041F 0000D   177+         MVC   PID+1(1),13(RA) IN PID                            3-3
0001E6 5AA0 0484            00484   178+         A     RA,PIBDIFF GET ADDRESS OF PIB TABLE          3-3
0001EA D200 0651 041F 00651 0041F   179+         MVC   ACCTFAID(1),JAEQUPKD PICK UP ID OF NEXT USER      3-9
0001F0 9540 0651      00651         180+         CLI   ACCTFAID,JAOHID IS USER PARTITION?           3-9
0001F4 4740 020E            0020E   181+         BL    JAXITBR YES                          3-9
0001F8 9560 0651      00651         182+         CLI   ACCTFAID,SPID IS IT SUP TASK?              3-9
0001FC 4780 0208            00208   183+         BE    JASETSP BR IF YES                    3-9
000200 9240 0651      00651         184+         MVI   ACCTFAID,JAOHID CHANGE QUISE I/O ID TO OVRHEA3-9
000204 47F0 020E            0020E   185+         B     JAXITBR 3-9
000208 D200 0651 0650 00651 00650   186+JASETSP  MVC   ACCTFAID(1),ACCTSAID RESET SUPERVISOR OWNERSHIP   3-9
00020E 4590 0352            00352   187+JAXITBR  BAL   R9,JAXIT RESET TIMER COUNTERS.        3-9
000212 4400 A004            00004   188+         EX    0,PIBINSTR EXECUTE 'BRANCH' INST IN PIB
000216 5890 A004            00004   189+         L     R9,PIBINSTR GET ADDRESS OF PP SAVE AREA
000000                              190+         USING SVEARA,R9
00021A 4220 A000            00000   191+EXTEOJ   STC   R2,PIBFLG USE TRT BYTE AS PIB FLAGS
00021E 9140 A001      00001         192+         TM    PIBCNCL,CANCALL CANCEL OR EOJ TO BE CALLED
000222 4710 D266            03266   193+         BO    CNCEL INTERCEPT ALL TERMINATIONS       3-3
000226                              194+CANXIT   EQU   * 3-3
000226 D207 0320 9008 00320 00008   195+         MVC   ERA(8),8(R9) SET UP PP PSW
00022C 9560 048F      0048F         196+         CLI   PIK+1,X'60' IS THIS A SUBTASK                       3-3
000230 4720 02F6            002F6   197+         BH    TESTLTA YES-TEST IF LTA ACTIVE                      3-3
000234                              198+LTARTRN  EQU   * 3-3
000234 6800 9058            00058   199+         LD    FPR0,SVEFP0
000238 6820 9060            00060   200+         LD    FPR2,SVEFP2
00023C 6840 9068            00068   201+         LD    FPR4,SVEFP4
000240 6860 9070            00070   202+         LD    FPR6,SVEFP6
000244 4BA0 044A            0044A   203+         SH    RA,PIBPT
000248 41AA D4E0            034E0   204+         LA    RA,PIB2AD(RA)
00024C D201 0016 A000 00016 00000   205+         MVC   CRADDR,PIBCOMRA SET COMM. REGION POINTER
000252 9898 9010            00010   206+         LM    R9,R8,SVER09
000256 8200 0320      00320         207+         LPSW  ERA
00025A                              208+EXT01    EQU   * 3-9
00025A 4590 0352            00352   209+         BAL   R9,JAXIT SET ACCOUNTING TIMERS             3-9
00025E 4400 A004            00004   210+         EX    0,PIBINSTR PIB BRANCH                        3-9
000262 9500 A001      00001         211+         CLI   PIBCNCL,X'00' IS THIS TASK CANCELING         3-3
       DOS SUPERVISOR - GENERAL EXIT ROUTINE                                                                   PAGE    8


  LOC  OBJECT CODE    ADDR1 ADDR2  STMT   SOURCE STATEMENT                                          FDOS CL3-10 03/29/70

000266 4780 0276            00276   212+         BE    EXT05 YES...                         3-3
00026A 4400 0906            00906   213+         EX    0,COMPCLC IS TASK STILL RUNNING IN LTA   3-3
00026E 4780 0276            00276   214+         BE    EXT05 NO...                          3-3
000272 47F0 01AC            001AC   215+         B     EXT03 NO...                          3-3
000276                              216+EXT05    EQU   * 3-3
000276 5890 A004            00004   217+         L     R9,PIBINSTR GET ADDRESS OF PP SAVE AREA
00027A 9808 902C            0002C   218+         LM    R0,R8,SVER00 RESTORE USER REGISTERS      3-12
                                    219+         DROP  R9
00027E                              220+LMERA    EQU   * 3-9
00027E 9102 0021      00021         221+         TM    SVOLDP+1,WAITBT1 IS WAIT BIT ON?              3-9
000282 4780 028A            0028A   222+         BZ    GER NO,DON'T POST ALLBOUND          3-11
000286 9200 0652      00652         223+         MVI   ACCTRAID,JABDID POST ALL BOUND TO RUN        3-9
00028A                              224+GER      EQU   * 3-11
00028A 989F 0320            00320   225+         LM    R9,RF,ERA RESTORE ENTRY REGS           3-9
00028E 8200 0000      00000         226+         LPSW  0
000291                              227+HLDPSW   EQU   *-1
000292 9284 D640      03640         228+SUPEXT   MVI   PIBSUPVR,FLG80+SUPFLG SET PIB FLAGS TO X'84'
000296 91E0 B74A      0174A         229+         TM    IDRASW,IDRAE0 IS FETCH BUSY                3-9
00029A 4780 02D0            002D0   230+         BZ    SUPEXT2 NO TAKE PTA EXIT             3-9
00029E 9120 B74A      0174A         231+         TM    IDRASW,IDRA20 WAS FETCH INTERR. DURIN QUIS3-11
0002A2 4710 02C2            002C2   232+         BO    IDRAEXT GO TO FETCH IN ANY CASE     3-11
0002A6 9180 B842      01842         233+         TM    TXTCCB+2,TRABIT TRAFFIC BIT POSTED           3-9
0002AA 4710 02C2            002C2   234+         BO    IDRAEXT YES EXIT TO FETCH            3-9
0002AE 9103 B74B      0174B         235+         TM    IDRASW+1,IDRA03 IS PTA READY TO RUN          3-9
0002B2 4770 01B0            001B0   236+         BNZ   EXT02 NO                           3-9
0002B6 9503 0099      00099         237+         CLI   TRTPTA,IDRA03 IS PTA ACTIVE                3-9
0002BA 4780 01B0            001B0   238+         BE    EXT02 NO GO TO TASK SELECT         3-9
0002BE 47F0 02D0            002D0   239+         B     SUPEXT2 YES GO TO PTA EXIT           3-9
0002C2 D207 0320 BB70 00320 01B70   240+IDRAEXT  MVC   ERA(IDRA8),IDRASAVE SET UP PSW                   3-9
0002C8 9890 BB78            01B78   241+         LM    R9,R0,IDRASAVE+8 LOAD REGISTERS               3-9
0002CC 8200 0320      00320         242+         LPSW  ERA CONTINUE                     3-9
0002D0                              243+SUPEXT2  EQU   * 3-9
0002D0 D207 0320 BB48 00320 01B48   244+         MVC   ERA(8),PTASAVE SET UP PSW
0002D6 9890 BB50            01B50   245+         LM    R9,R0,PTASAVE+8
0002DA 8200 0320      00320         246+         LPSW  ERA
0002DE                              247+CNCL     EQU   * 3-3
0002DE 9680 A000      00000         248+         OI    PIBFLG,FLG80 SET FLG TO AVOID RESAVING REG3-3
0002E2 4110 0030            00030   249+         LA    R1,ENDJOB YES, GET PHASE NAME FOR CANCEL
0002E6 47F0 C0CE            020CE   250+         B     SVC02
0002EA 9603 0039      00039         251+ALLBND   OI    IOOPSW+1,WAITBT1+PPBIT TURN ON W AND P BIT IN PSW
0002EE 9601 0038      00038         252+         OI    IOOPSW,X'01' ENABLE EXTERNAL INTERRUPTS             3-9
0002F2 8200 0038      00038         253+         LPSW  IOOPSW ENTER WAIT STATE
000001                              254+PPBIT    EQU   X'01' PROBLEM PROGRAM BIT OF PSW
0002F6 92FF 0320      00320         255+TESTLTA  MVI   ERA,X'FF' PROT SYSTEM FROM               3-3
0002FA 9605 0321      00321         256+         OI    ERA+1,X'05' SAVE AREA MODIFICATION        3-3
0002FE 4400 0906            00906   257+         EX    0,COMPCLC DOES TASK OWN LTA             3-3
000302 4780 0234            00234   258+         BE    LTARTRN YES-CONTINUE IN MAINLINE                    3-3
000306 D300 0321 041F 00321 0041F   259+         MVZ   ERA+1(1),PID+1 SET STORAGE PROTECT KEY IN PSW       3-3
00030C 47F0 0234            00234   260+         B     LTARTRN BRANCH TO MAINLINE                          3-3
000310 00                           261+         DC    X'00' PUT CONSTANTS ON ODD BOUNDARY             3-11
000311 615C40                       262+SLASTR   DC    C'/* ' SLASH ASTERISK              3-10
       DOS SUPERVISOR - GENERAL EXIT ROUTINE                                                                   PAGE    9


  LOC  OBJECT CODE    ADDR1 ADDR2  STMT   SOURCE STATEMENT                                          FDOS CL3-10 03/29/70

000314 615040                       263+SLAMPR   DC    C'/&& ' SLASH AMPERSAND             3-10
000317 44F0                         264+NOTOP    DC    X'44F0'
000320                              265+         DS    0D
000320 0000000000000000             266+ERA      DC    XL28'0' 3-9
00033C 00000000                     267+SVBSR8   DC    F'0'
000340 0000100000002000             268+BASRGS   DC    A(X'1000',X'2000',X'3000',X'4000') 3-9
000340                              269+BASRGB   EQU   BASRGS 3-9
000344                              270+BASRGC   EQU   BASRGS+4 3-9
000348                              271+BASRGD   EQU   BASRGS+8 3-9
00034C                              272+BASRGE   EQU   BASRGS+12 3-9
000350 3716                         273+YSVCTAB  DC    Y(SVCTAB) POINTER TO SVC TABLE              3-8



000352 D500 0651 0652 00651 00652   275+JAXIT    CLC   ACCTFAID,ACCTRAID IS LAST USER SAME AS NEXT?   3-9
000358 0789                         276+         BCR   E,R9 IMMEDIATE RETURN IF YES      3-9
00035A 9068 0638            00638   277+         STM   R6,R8,ACCTSVRG SAVE WORK REGS               3-9
00035E 9878 0050            00050   278+         LM    R7,R8,SYSTIMER CALC PRESENT TIME OF DAY    3-11
000362 5970 BA00            01A00   279+         C     R7,MAXVAL HAS TIMER COUNTED OUT       3-11
000366 47D0 0372            00372   280+         BNH   JAXT1 NO - USE LOGICAL SHIFT       3-9
00036A 8A70 0008            00008   281+         SRA   R7,8 YES- USE ARITH SHIFT TO DROP3-11
00036E 47F0 0376            00376   282+         B     JAXT2 LOW ORDER BYTE          3-9
000372 8870 0008            00008   283+JAXT1    SRL   R7,8 DROP LOW ORDER BYTE         3-11
000376                              284+JAXT2    EQU   * 3-11
000376 1F78                         285+         SLR   R7,R8 (NEG) TIME OF DAY           3-11
000378 1887                         286+         LR    R8,R7 *                           3-11
00037A 1078                         287+         LPR   R7,R8 POS TIME OF DAY              3-9
00037C 5E70 0654            00654   288+         AL    R7,ACCTIME DURATION OF LAST INTERVAL    3-9
000380 5080 0654            00654   289+         ST    R8,ACCTIME SAVE NEG START TIME          3-9
000384 9130 0652      00652         290+         TM    ACCTRAID,X'30' PARTITION RUNNING           3-11
000388 4770 03D4            003D4   291+         BNZ   JAXPP BR IF YES                   3-11
000000                              292+         USING ACCTABLE,R8 3-9
00038C 1277                         293+         LTR   R7,R7 TEST TIME INTERVAL          3-11
00038E 4740 03C8            003C8   294+         BC    4,JAXRET NEG. USER CHANGED TOD.IGNORE3-11
000392 1B66                         295+         SR    R6,R6 CLEAR REG FOR DIVIDE         3-9
000394 4A70 0648            00648   296+         AH    R7,ACCTSVRX ADD IN LAST REMAINDER        3-9
000398 5D60 064C            0064C   297+         D     R6,ACCTPCNT DIVIDE INTERVAL BY NO. OF PAR3-9
00039C 4060 0648            00648   298+         STH   R6,ACCTSVRX SAVE REMAINDER               3-9
0003A0 5880 0664            00664   299+         L     R8,ACCTBLES+8 SET F1 OVERHEAD TIME         3-9
0003A4 1867                         300+         LR    R6,R7 SAVE DURATION                3-9
0003A6 5E60 8020            00020   301+         AL    R6,ACCTOVHT UPDATE COUNTER               3-9
0003AA 5060 8020            00020   302+         ST    R6,ACCTOVHT STORE NEW VALUE.             3-9
0003AE 5880 0660            00660   303+         L     R8,ACCTBLES+4 STORE IN F2'S COUNTERS       3-9
0003B2 1867                         304+         LR    R6,R7 3-9
0003B4 5E60 8020            00020   305+         AL    R6,ACCTOVHT 3-9
0003B8 5060 8020            00020   306+         ST    R6,ACCTOVHT 3-9
0003BC 5880 065C            0065C   307+         L     R8,ACCTBLES STORE OVERHEAD TIME IN BG TBL3-9
0003C0 5E70 8020            00020   308+         AL    R7,ACCTOVHT UPDATE OVERHEAD COUNTER      3-9
0003C4 5070 8020            00020   309+         ST    R7,ACCTOVHT SAVE NEW VALUE               3-9
0003C8 D200 0652 0651 00652 00651   310+JAXRET   MVC   ACCTRAID,ACCTFAID SET NEW ACCOUNTING ID IN RAID3-9
0003CE 9868 0638            00638   311+         LM    R6,R8,ACCTSVRG RESTORE WORK REGISTERS       3-9
       DOS SUPERVISOR - GENERAL EXIT ROUTINE                                                                   PAGE   10


  LOC  OBJECT CODE    ADDR1 ADDR2  STMT   SOURCE STATEMENT                                          FDOS CL3-10 03/29/70

0003D2 07F9                         312+         BR    R9 RETURN                       3-9
0003D4                              313+JAXPP    EQU   * 3-9
0003D4 1B66                         314+         SR    R6,R6 3-9
0003D6 4360 0652            00652   315+         IC    R6,ACCTRAID GET PARTION ACCT ID          3-9
0003DA 8860 0002            00002   316+         SRL   R6,2 CHANGE TO DISP IN FULLWORDS  3-9
0003DE 5886 0658            00658   317+         L     R8,ACCTBLES-4(R6) PICK UP CORRECT PARTITION TAB3-9
0003E2 5E70 801C            0001C   318+         AL    R7,ACCTCPUT UPDATE CPUTIME               3-9
0003E6 5070 801C            0001C   319+         ST    R7,ACCTCPUT STORE NEW VALUE              3-9
0003EA 47F0 03C8            003C8   320+         B     JAXRET RETURN TO PROGRAM            3-9
       DOS SUPERVISOR - BG COMMUNICATIONS REGION                                                               PAGE   11


  LOC  OBJECT CODE    ADDR1 ADDR2  STMT   SOURCE STATEMENT                                          FDOS CL3-10 03/29/70

                                    322+*360N-CL-453 COMMN    CHANGE LEVEL 3-11                            3-11
0003F0                              323+COMREG   DS    0D
0003F0 F0F261F1F661F6F7             324+         DC    C'02/16/67' 00 JOB DATE
0003F8 6000                         325+         DC    Y(PPBEG) 08 LNK EDT SUPVR END
0003FA 6000                         326+         DC    Y(EOSSP) 10 END OF STORAGE PROTECT
0003FC 0000000000000000             327+         DC    11X'0' 12  USER SCRATCH AREA
000407 00                           328+         DC    X'0' 23  UPSI BYTE
000408 D5D640D5C1D4C540             329+         DC    CL8'NO NAME' 24 JOB NAME
000410                              330+PPEND    EQU   *
000410 00003FFF                     331+         DC    A(16383) 32 UPPERMOST BYTE OF PP AREA
000414                              332+HIPHAS   EQU   *
000414 00003F10                     333+         DC    A(16144) 36 LAST FETCH OR LOAD
000418                              334+HIPROG   EQU   *
000418 00003F10                     335+         DC    A(16144) 40 LONGEST PP PHASE
00041C 0000                         336+         DC    H'0' 44 LENGTH OF PP LABEL AREA
00041E                              337+PID      EQU   * 3-3
00041E 0010                         338+         DC    Y(16) 46 PROG INTERRUPT KEY (PIK)
000420                              339+EOCADR   EQU   *
000420 00003F10                     340+         DC    A(16144) 48 END OF CORE ADDRESS
000424                              341+CONFIG   EQU   *
000424 F8                           342+         DC    B'11111000' 52 MACH CONFIG  3-2
000425                              343+LTACT    EQU   *
000425 7F                           344+         DC    B'01111111' 53 CONFG 3-3
000426 4C                           345+         DC    B'01001100' 54 STD J.C.S.
000427 91                           346+         DC    B'10010001' 55 STD JCS AND ASCII SW 3-8
000428                              347+JCBYT1   EQU   *
000428 00                           348+         DC    B'00000000' 56 JOB CONTROL SWITCHES           3-9
000429                              349+JCSW2    EQU   *
000429 00                           350+         DC    X'00' 57 JOB CONTROL SWITCHES
00042A 4C                           351+         DC    B'01001100' 58 J.C. SW.
00042B                              352+JCSW6    EQU   * .                                                  3-9
00042B 10                           353+         DC    B'00010000' 59 JOB CTL SW6                3-9
00042C 0000                         354+         DC    X'0000' 60 DISK ADDRESS OF LABEL CYL.
00042E                              355+FOCLPT   EQU   *
00042E 3881                         356+         DC    Y(FOCL) 62 ADDRESS OF FOCL
000430                              357+PUBPT    EQU   *
000430 3888                         358+         DC    Y(PUBTAB) 64 ADDRESS OF PUB TABLE
000432 3A09                         359+         DC    Y(FAVP) 66 ADDRESS OF FAVP
000434 3A0A                         360+         DC    Y(JIBTAB) 68 ADDRESS OF JIB TABLE
000436                              361+TEBPT    EQU   *
000436 3C0C                         362+         DC    Y(TEBTAB) 70 ADDRESS OF TEB TABLE
000438 3C3C                         363+         DC    Y(FICL) 72 ADDRESS OF FICL
00043A 3C40                         364+         DC    Y(NICL) 74 ADDRESS OF NICL
00043C                              365+LUBPT    EQU   *
00043C 3C44                         366+         DC    Y(LUBTAB) 76 ADDRESS OF LUB TABLE
00043E 38                           367+         DC    AL1(56) 78 SYSLST LINE COUNT
00043F F0F2F1F6F6F7F0F4             368+         DC    CL9'021667047' 79 SYSTEM DATE
000448 0000                         369+         DC    2X'00' 88 LIOCS COMMUNICATIONS BYTES
00044A                              370+PIBPT    EQU   *
00044A 35E0                         371+         DC    Y(PIBTAB) 90 ADDRESS OF FIRST PART OF PIB
00044C 0000                         372+         DC    H'0' 92 LAST CHECKPOINT NUMBER
       DOS SUPERVISOR - BG COMMUNICATIONS REGION                                                               PAGE   12


  LOC  OBJECT CODE    ADDR1 ADDR2  STMT   SOURCE STATEMENT                                          FDOS CL3-10 03/29/70

00044C                              373+         ORG   *-2
00044C 61                           374+         DC    B'01100001' BITS
                                    375+*              INDICATE CHANNELS WITH DASD FILE PROTECT
00044E                              376+         ORG
00044E                              377+LTHIDQ   EQU   *
00044E 0000                         378+         DC    X'0000' 94 LENGTH OF LUBID QUE
000450 1838                         379+         DC    Y(DSKPOS) .         96 BG DIB PTR                    3-9
000452                              380+ERBLPT   EQU   *
000452 1972                         381+         DC    Y(ERBLOC) 98 CHAN SCHED SAVE AREA
000454                              382+PCPTR    EQU   *
000454 1A2C                         383+         DC    Y(PCTAB-8) 100 ADDR OF PC OPTION TABLE
000456                              384+ITPTR    EQU   *
000456 1A9C                         385+         DC    Y(ITTAB-8*ITKEY) 102 ADDR OF IT OPTION TABLE
000458 1AAC                         386+         DC    Y(OCTAB-8) 104 ADDR OF OC OPTION TABLE
00045A                              387+PWTIMS   EQU   *
00045A 0020                         388+         DC    Y(16*ITKEY) 106 KEY OF PROG WITH IT SUPPORT
00045C                              389+LUBIDQ   EQU   *
00045C 3800                         390+         DC    Y(LUBIDTAB) 108 ADDRESS OF LUB ID QUEUE
00045E 0000                         391+LTK      DC    Y(0) 110 LOGICAL TRANSIENT KEY
000460 5B5BC2D6                     392+DOLLARBO DC    C'$$BO'
000464 0000000000                   393+SSKADR   DC    XL5'0'
000469 001B90                       394+LTAREA   DC    AL3(LTSVPT)
00046C 34E0                         395+PIB2PTR  DC    Y(PIB2AD) 124 ADDR OF SECOND PART OF PIB    3-3
00046E 0000                         396+         DC    Y(0) 126 ADDR OF MICR DTF TABLE
000470                              397+IJLQTTAD EQU   *
000470 00000000                     398+         DC    A(0) 128 ADDR OF QTAM VECTOR TABLE
000474 03F0                         399+         DC    Y(COMREG) 132 ADDR OF BG COMM. REGION
000476                              400+OPTNBYTE EQU   * 3-9
000476 00                           401+         DC    X'00' .             134 OPTION INDICATOR BYTE        3-9
000477 80                           402+         DC    B'10000000' .  135 SYSTEM CONFG BYTE 2          3-9
000478 0000047C                     403+         DC    A(BGXTNSN) 136 ADDR OF EXTENSION OF COMREG
000030                              404+         ORG   MCOLDP PUT PHASNAME OVER OLD MC PSW 3-9
000030 5B5BC2C5D6D1F340             405+ENDJOB   DC    C'$$BEOJ3 ' 3-5
00047C                              406+         ORG
000030                              407+DOLLARB  EQU   ENDJOB 3-5
       BG COMMUNICATIONS REGION EXTENSION                                                                      PAGE   13


  LOC  OBJECT CODE    ADDR1 ADDR2  STMT   SOURCE STATEMENT                                          FDOS CL3-10 03/29/70

                                    409+*360N-CL-453 COMMNEX    CHANGE LEVEL 3-11                          3-11
00047C                              410+BGXTNSN  DS    0F EXTENSION OF COMM REG
00047C 00005C40                     411+         DC    A(CETAB) 00 ADDR OF CE TABLE
000480 00003D4C                     412+THTABAD  DC    A(TKHDTAB) 04 ADDR OF TRACK HOLD TABLE
000484 00000100                     413+PIBDIFF  DC    A(PIBTAB-PIB2AD) 08 DIFFERENCE BETWEEN PIB TABLES
000488 00001AC4                     414+ABPTR    DC    A(ABTAB-8) 12 ADDR OF AB TERM TABLE
00048C 0000                         415+LID      DC    X'0000' 16 ID OF TASK OWNING LTA
00048E 0010                         416+PIK      DC    X'0010' 18 ID OF TASK RUNNING
000490 00003860                     417+TKIDPTR  DC    A(TSKIDTAB) 20 ADDR OF TASK REQID TBL
000494 00001A20                     418+         DC    A(MVCFLD) 24 ADDR FOR QTAM
000498 00000000                     419+         DC    A(0) 28 POINTER TO SDR TABLE
00049C 00000000                     420+         DC    A(0) 32 NOT USED
0004A0 00001754                     421+AOLTAB   DC    A(OLTABL) 36  ADDRESS OF OLTEP BUCKET      3-9
0004A4 00000000                     422+         DC    A(0) 40                               3-9
0004A8 00004234                     423+         DC    A(TRTAB) 44 POINTER TO TRANSLATE TABLE
0004AC 00000000                     424+         DC    A(0) 48 NOT USED
0004B0 00000638                     425+         DC    A(ACCTCOMN) 52 POINTER TO JA COMMON TABLE
0004B4 00003DB0                     426+         DC    A(ACCTBG) 56 POINTER TO JA PARTITION TABLE
0004B8 000036FC                     427+         DC    A(SPARMBG) 60  POINTER TO SYSPARM FIELD
0004BC                              428+         DS    0F
0004BC 00000000                     429+SVREGS   DC    X'00000000' 3-5
       DOS SUPERVISOR - GENERAL ENTRY ROUTINES                                                                 PAGE   14


  LOC  OBJECT CODE    ADDR1 ADDR2  STMT   SOURCE STATEMENT                                          FDOS CL3-10 03/29/70

                                    431+*   GENERAL ENTRY OBJECTIVE IS TO INITIALIZE THE SUPERVISOR
                                    432+*   FOR INTERRUPT HANDLING.
0004C0 9238 0291      00291         433+ENTIO    MVI   HLDPSW,X'38' SAVE INT ADDRESS FOR GEN EXIT
0004C4 909F 0320            00320   434+         STM   R9,RF,ERA SAVE ENTRY REGS              3-9
0004C8 98BE 0340            00340   435+         LM    RB,RE,BASRGS INIT BASE REGS                         3-9
                                    436+*
                                    437+*              THE FOLLOWING HOOK DEPENDS ON REG 9 BEING USABLE     3-2
                                    438+*              THE FOLLOWING FOUR STATEMENTS ARE USED BY THE CE
                                    439+*                            INTERRUPT TRACE ROUTINE FOR LINKAGE
                                    440+*
0004CC 47F0 04DC            004DC   441+CEINTRHK BC    15,NOCEINTR BRANCH UNLESS I/O TRACE ACTIVE
0004D0 5890 008C            0008C   442+         L     R9,CETABPTR LOAD CE AREA BASE REGISTER
0004D4 45A9 0060            00060   443+         BAL   RA,96(R9) GO TO I/O TRACE ROUTINE
0004D8 58B0 0340            00340   444+         L     RB,BASRGS INT BASE REG.                3-9
0004DC                              445+NOCEINTR EQU   *
0004DC 4190 0E4E            00E4E   446+         LA    R9,INTRTN GET BRANCH ADDR
0004E0 48A0 048E            0048E   447+GENENT   LH    RA,PIK
0004E4 4AA0 044A            0044A   448+         AH    RA,PIBPT ESTABLISH PIB ADDR OF INT PROG
0004E8 9588 A000      00000         449+         CLI   PIBFLG,X'88' BSETL1 WAITING FOR A HELD TRACK   3-12
0004EC 4780 0500            00500   450+         BE    GEN2 YES                        3-12
0004F0 9180 A000      00000         451+         TM    PIBFLG,X'80' IS IT SUP
0004F4 4710 0512            00512   452+         BO    GEN1 YES BRANCH
0004F8 58B0 A004            00004   453+         L     RB,PIBINSTR NO,GET SAVE AREA ADDR FOR PPROG
000000                              454+         USING SVEARA,RB
0004FC 9008 B02C            0002C   455+         STM   R0,R8,SVER00 STORE USER REGISTERS        3-12
                                    456+         DROP  RB
001000                              457+         USING SYSS00+4096,RB
000500 98BE 0340            00340   458+GEN2     LM    RB,RE,BASRGS INIT BASE REG                3-9
000504 9069 0638            00638   459+         STM   R6,R9,ACCTSVRG SAVE LINK REG                3-9
000508 4590 0578            00578   460+         BAL   R9,JAENTRY INITIALIZE ACCOUNTING TIMERS 3-9
00050C 9869 0638            00638   461+         LM    R6,R9,ACCTSVRG RESTORE LINK ERGISTER        3-9
000510 07F9                         462+         BR    R9
000512 9601 A000      00000         463+GEN1     OI    PIBFLG,NOTSVC7 MAKE PIB ACTIVE
000516 98BE 0340            00340   464+         LM    RB,RE,BASRGS INIT BASE REGS               3-9
00051A 9069 0638            00638   465+         STM   R6,R9,ACCTSVRG SAVE LINK REGISTER           3-9
00051E 4590 0578            00578   466+         BAL   R9,JAENTRY DO JOB ACCOUNTING            3-9
000522 9869 0638            00638   467+         LM    R6,R9,ACCTSVRG RESTORE LINK REGISTER        3-9
000526 95FF A00F      0000F         468+         CLI   PIBFLG2,X'FF' WAS THE ALL BND PIB INTERR
00052A 0789                         469+         BCR   E,R9 YES, THEN DON'T SAVE REGS
00052C 91A0 B74A      0174A         470+         TM    IDRASW,IDRAA0 FETCH SVC0 OR QUIS SYSRES    3-9
000530 4780 055A            0055A   471+         BZ    GEN4 NO MUST BE PTA               3-9
000534 9640 B74A      0174A         472+         OI    IDRASW,IDRA40 SET FETCH ACTIVE BIT         3-9
000538 947F B74A      0174A         473+         NI    IDRASW,IDRA7F TURN OFF SVC 0 BIT           3-9
00053C D21B BB78 0320 01B78 00320   474+         MVC   IDRASAVE+8(L'ERA),ERA SAVE REG 9 - 15             3-9
000542 5000 BB94            01B94   475+         ST    R0,IDRASAVE+36 SAVE REG 0                  3-9
000546 48E0 0290            00290   476+         LH    RE,HLDPSW-1 POINT TO SVC                 3-9
00054A D207 BB70 E000 01B70 00000   477+         MVC   IDRASAVE(IDRA8),0(RE) SAVE PSW                     3-9
000550 94FD BB71      01B71         478+         NI    IDRASAVE+1,X'FF'-WAITBT1 TURN OFF WAIT              3-9
000554 98BE 0340            00340   479+         LM    RB,RE,BASRGS INIT BASE REGS               3-9
000558 07F9                         480+         BR    R9 CONTINUE                     3-9
00055A                              481+GEN4     EQU   * 3-9
       DOS SUPERVISOR - GENERAL ENTRY ROUTINES                                                                 PAGE   15


  LOC  OBJECT CODE    ADDR1 ADDR2  STMT   SOURCE STATEMENT                                          FDOS CL3-10 03/29/70

00055A 5000 BB6C            01B6C   482+         ST    R0,PTASAVE+36 3-9
00055E 48E0 0290            00290   483+         LH    RE,HLDPSW-1 GET PSW HELD                 3-9
000562 D207 BB48 E000 01B48 00000   484+         MVC   PTASAVE(8),0(RE) MOVE IT TO PTA SAVE AREA     3-9
000568 58E0 034C            0034C   485+         L     RE,BASRGS+12 REINITIALIZE BASE REGISTER   3-9
00056C 94FD BB49      01B49         486+         NI    PTASAVE+1,255-WAITBT1 3-2
000570 D21B BB50 0320 01B50 00320   487+         MVC   PTASAVE+8(L'ERA),ERA SAVE ENTRY REGS
000576 07F9                         488+         BR    R9
                                    489+*  THE PURPOSE OF THIS ROUTINE IS TO INITIALIZE THE                 3-9
                                    490+*  JOB ACCOUNTING POINTERS AND TIMER DURING AN INTERRUPT.           3-9
000578 D200 0651 0652 00651 00652   491+JAENTRY  MVC   ACCTFAID,ACCTRAID SAVE RAID FOR EXT01.         3-9
00057E 9878 0050            00050   492+         LM    R7,R8,SYSTIMER CALCULATE TIME OF INTERRUPT 3-11
000582 5970 BA00            01A00   493+         C     R7,MAXVAL HAS TIMER COUNTED OUT       3-11
000586 47D0 0592            00592   494+         BNH   JAET1 NO - USE LOGICAL SHIFT       3-9
00058A 8A70 0008            00008   495+         SRA   R7,8 YES- LOSE LOW ORDER BYTE    3-11
00058E 47F0 0596            00596   496+         B     JAET2 3-9
000592 8870 0008            00008   497+JAET1    SRL   R7,8 DROP LOW ORDER BYTE         3-11
000596                              498+JAET2    EQU   * 3-11
000596 1F78                         499+         SLR   R7,R8 (NEG) TIME OF DAY           3-11
000598 1887                         500+         LR    R8,R7 *                           3-11
00059A 1078                         501+         LPR   R7,R8 POS TIME                     3-9
00059C 5E70 0654            00654   502+         AL    R7,ACCTIME DURATION OF ACCOUNTING INTERV3-9
0005A0 9180 A000      00000         503+         TM    PIBFLG,X'80' SUP OR ALL BND INTERRUPTED   3-9
0005A4 4780 05B6            005B6   504+         BZ    JANOTSUP NO - BRANCH AROUND           3-9
0005A8 95FF A00F      0000F         505+         CLI   PIBFLG2,X'FF' YES- CHECK FOR ALLBOUND      3-9
0005AC 4780 05B6            005B6   506+         BE    JANOTSUP BRANCH IF BOUND              3-9
0005B0 D200 0650 0652 00650 00652   507+         MVC   ACCTSAID(1),ACCTRAID SAVE SUPER OWNER             3-9
0005B6                              508+JANOTSUP EQU   * 3-9
0005B6 9130 0652      00652         509+         TM    ACCTRAID,X'30' IS PARTION RUNNING?          3-9
0005BA 4770 060A            0060A   510+         BNZ   JAISPP BR IF YES                    3-9
000000                              511+         USING ACCTABLE,R8 3-9
0005BE 9140 0652      00652         512+         TM    ACCTRAID,X'40' OVHD OR BOUND                3-9
0005C2 0719                         513+         BCR   O,R9 LEAVE OVERHEAD RUNNING       3-9
0005C4                              514+JAISBND  EQU   * POST ALLBOUND COUNTERS       3-9
0005C4 5080 0654            00654   515+         ST    R8,ACCTIME STORE NEW START TIME         3-9
0005C8 1277                         516+         LTR   R7,R7 TEST TIME INTERVAL          3-11
0005CA 4740 0604            00604   517+         BC    4,JAOHD NEG. USER CHANGED TOD.IGNORE3-11
0005CE 1B66                         518+         SR    R6,R6 CLEAR REG FOR DIVIDE         3-9
0005D0 4A70 064A            0064A   519+         AH    R7,ACCTSVRE ADD IN REMAINDER             3-9
0005D4 5D60 064C            0064C   520+         D     R6,ACCTPCNT DIV BY NO. OF RUNNING PARTITI3-9
0005D8 4060 064A            0064A   521+         STH   R6,ACCTSVRE SAVE REMAINDER               3-9
0005DC 5880 0664            00664   522+         L     R8,ACCTBLES+8 POST TO F1                   3-9
0005E0 1867                         523+         LR    R6,R7 3-9
0005E2 5E60 8024            00024   524+         AL    R6,ACCTBNDT 3-9
0005E6 5060 8024            00024   525+         ST    R6,ACCTBNDT 3-9
0005EA 5880 0660            00660   526+         L     R8,ACCTBLES+4 POST TO F2                   3-9
0005EE 1867                         527+         LR    R6,R7 3-9
0005F0 5E60 8024            00024   528+         AL    R6,ACCTBNDT 3-9
0005F4 5060 8024            00024   529+         ST    R6,ACCTBNDT 3-9
0005F8 5880 065C            0065C   530+         L     R8,ACCTBLES SAVE ALL BND TIME IN BG TABLE3-9
0005FC 5E70 8024            00024   531+         AL    R7,ACCTBNDT 3-9
000600 5070 8024            00024   532+         ST    R7,ACCTBNDT 3-9
       DOS SUPERVISOR - GENERAL ENTRY ROUTINES                                                                 PAGE   16


  LOC  OBJECT CODE    ADDR1 ADDR2  STMT   SOURCE STATEMENT                                          FDOS CL3-10 03/29/70

000604 9240 0652      00652         533+JAOHD    MVI   ACCTRAID,JAOHID POST TO RUN WITH OVERHEAD   3-11
000608 07F9                         534+         BR    R9 RETURN TO GEN ENTRY          3-9
00060A 9528 0291      00291         535+JAISPP   CLI   HLDPSW,X'28' WAS INTERRUPT PC             3-9
00060E 0789                         536+         BCR   E,R9 LEAVE PARTITION RUNNING IF YE3-9
000610 5080 0654            00654   537+         ST    R8,ACCTIME STORE NEW START TIME         3-9
000614 1B66                         538+         SR    R6,R6 CLEAR WORK REG               3-9
000616 4360 0652            00652   539+         IC    R6,ACCTRAID GET PARTITION ID             3-9
00061A 8860 0002            00002   540+         SRL   R6,2 CHANGE TO DISP IN WORDS      3-9
00061E 5886 0658            00658   541+         L     R8,ACCTBLES-4(R6) POINT TO PARTITION TABLE     3-9
000622 5E70 801C            0001C   542+         AL    R7,ACCTCPUT UPDATE CPU TIME COUNTER      3-9
000626 5070 801C            0001C   543+         ST    R7,ACCTCPUT POST NEW VALUE               3-9
00062A 9520 0291      00291         544+         CLI   HLDPSW,X'20' WAS INTERRUPT SVC            3-9
00062E 0789                         545+         BCR   E,R9 YES LEAVE RUNNING FOR NOW    3-9
000630 9240 0652      00652         546+         MVI   ACCTRAID,JAOHID POST TO RUN WITH OVERHEAD    3-9
000634 07F9                         547+         BR    R9 RETURN                       3-9
                                    548+*        SAVE AREA FOR JOB ACCOUNTING                               3-9
000638                              549+ACCTCOMN DS    0D 3-9
000638 0000000000000000             550+ACCTSVRG DC    4F'0' TEMPORARY REG SAVE AREA     3-9
000648 0000                         551+ACCTSVRX DC    H'0' SAVE AREA FOR EXIT REMAINDER3-9
00064A 0000                         552+ACCTSVRE DC    H'0' SAVE AREA FOR ENTRY REMAINDE3-9
00064C 00000001                     553+ACCTPCNT DC    F'1' COUNT OF ACTIVE BJ PARTIT   3-9
000650 00                           554+ACCTSAID DC    XL1'0' SUPERVISOR ACCOUNTING I.D.   3-9
000651 00                           555+ACCTFAID DC    XL1'0' FIRST ACCOUNTING I.D.        3-9
000652 00                           556+ACCTRAID DC    XL1'0' RUNNING ACCOUNTING I.D.      3-9
000653 08                           557+ACCTSWCH DC    B'00001000' ACCOUNTING SWITCHES          3-9
000654 00000000                     558+ACCTIME  DC    F'0' TASK SELECTION TIME         3-9
000658 0000                         559+ACCTRESC DC    H'0' RESERVED                     3-9
00065A 4050                         560+ACCTUSEP DC    Y(ACCTUSER) ADDRESS OF USER SAVE AREA   3-9
00065C 00003DB0                     561+ACCTBLES DC    A(ACCTBG) PTRS TO TABLES              3-9
000660 00003E78                     562+         DC    A(ACCTF2) 3-9
000664 00003F40                     563+         DC    A(ACCTF1) 3-9
000668 000000000000                 564+ACCTSEAS DC    3H'0' SEIZE BLOCKS                 3-9
00066E 0048                         565+ACCTUSEL DC    H'72' LENGTH USER SAVE AREA      3-9
                                    566+*        SPECIAL JOB ACCOUNTING EQUATES.                            3-9
000000                              567+JABDID   EQU   X'00' ALL BOUND RAID               3-9
000010                              568+JABGID   EQU   X'10' BG ID                        3-9
000020                              569+JAF2ID   EQU   X'20' F2 ID                        3-9
000030                              570+JAF1ID   EQU   X'30' F1 ID                        3-9
000040                              571+JAOHID   EQU   X'40' OVERHEAD ID                  3-9
00041F                              572+JAEQUPKD EQU   PID+1 3-9
       DOS SUPERVISOR - INTERRUPT HANDLER ROUTINES                                                             PAGE   17


  LOC  OBJECT CODE    ADDR1 ADDR2  STMT   SOURCE STATEMENT                                          FDOS CL3-10 03/29/70

                                    574+*  THE OBJECTIVE OF THE SUPERVISOR INTERRUPT HANDLER ROUTINE
                                    575+*  IS TO BRANCH TO THE CORRECT SVC ROUTINE
000000                              576+         USING SVEARA,R9
000670                              577+ENTSVC   EQU   * 3-2
000670 909F 0320            00320   578+         STM   R9,RF,ERA SAVE ENTRY REGS              3-9
                                    579+*                                                                   3-1
                                    580+*              THIS HOOK DEPENDS ON REG 9,10,11 BEING STORED AT ERA 3-1
                                    581+*              AND THOSE REG BEING AVAILABLE FOR USE.  ALSO THE VALU3-1
                                    582+*              OF THE PIK MUST BE CORRECT AT THIS TIME.             3-1
                                    583+*              THE FOLLOWING SIX STATEMENTS ARE USED BY THE CE      3-1
                                    584+*                            FETCH-LOAD ROUTINE                     3-1
                                    585+*                                                                   3-1
000674 47F0 06D4            006D4   586+CEFLTHK1 BC    15,NOCEFLT1 BRANCH UNLESS FETCH/LOAD TRACE ACTIVE  3-1
000678 9107 0023      00023         587+         TM    35(0),X'07' TEST FOR A SUPERVISOR CALL 0 OR 7      3-1
00067C 47B0 06D4            006D4   588+         BC    NM,NOCEFLT1 YES, BRANCH                            3-1
000680 4190 0008            00008   589+         LA    R9,L'CEFLTAB GET LOOP COUNT                   3-11
000684 41A0 06BE            006BE   590+         LA    RA,CEFLTAB+L'CEFLTAB INITIALYZE POINTER             3-11
000688                              591+CEFLTLP  EQU   * 3-11
000688 D500 0023 A000 00023 00000   592+         CLC   SVOLDP+3(1),0(RA) DOES CODE MATCH                  3-11
00068E 4780 069E            0069E   593+         BE    CEFLIDRA YES, TEST IF IDRA BUSY           3-11
000692 41AA 0001            00001   594+         LA    RA,1(RA) UPDATE POINTER TO SVC TO TEST    3-11
000696 4690 0688            00688   595+         BCT   R9,CEFLTLP NO,LOOP UNTIL ALL TESTED         3-11
00069A 47F0 06BE            006BE   596+         B     CEFLIDNO NO MATCH,CONTINUE NORMAL         3-11
00069E                              597+CEFLIDRA EQU   * 3-11
00069E 9500 009B      0009B         598+         CLI   TRTIDRA,IDRA00 IS IDRA BUSY                     3-11
0006A2 4770 06BE            006BE   599+         BNE   CEFLIDNO NO,CONTINUE NORMAL               3-11
0006A6 9220 0291      00291         600+         MVI   HLDPSW,X'20' INDICATE SVCINTERRUPT            3-11
0006AA 4590 04E0            004E0   601+         BAL   R9,GENENT INITIALYZE ENTRY                 3-11
0006AE 4190 025A            0025A   602+         LA    R9,EXT01 SET UP EXIT                      3-11
0006B2 47F0 C1C8            021C8   603+         B     RESVC RE-ISSUE SVC UNTIL IDRA FREE     3-11
0006B6 0102030405060B0E             604+CEFLTAB  DC    X'0102030405060B0E' SVC CODES FOR FLTRACE           3-11
0006BE                              605+CEFLIDNO DS    0H CONTINUE HERE IF NO PROBLEM      3-11
0006BE 5890 008C            0008C   606+         L     R9,CETABPTR LOAD CE AREA BASE REGISTER             3-1
0006C2 D201 0090 048E 00090 0048E   607+         MVC   CEPIK(2),PIK 3-4
0006C8 48C0 0090            00090   608+         LH    RC,CEPIK PARTITION OR TASK IDENTIFICATION         3-5
0006CC 41B0 0320            00320   609+         LA    RB,ERA GET ADDRESS OF SAVE AREA FOR REG 9-11  3-1
0006D0 45A9 0064            00064   610+         BAL   RA,100(R9) GO TO THE FETCH/LOAD TRACE ROUTINE     3-1
0006D4                              611+NOCEFLT1 EQU   * 3-1
0006D4 9220 0291      00291         612+         MVI   HLDPSW,X'20' SAVE INTR ADDRESS FOR GEN EXIT    3-1
0006D8 4590 04E0            004E0   613+         BAL   R9,GENENT INTIALIZE ENTRY
0006DC 4190 025A            0025A   614+         LA    R9,EXT01
0006E0 9500 0023      00023         615+         CLI   SVOLDP+3,0 EXCP?
0006E4 4780 08EE            008EE   616+         BE    SVC00 YES
0006E8 95CE 0023      00023         617+         CLI   SVOLDP+3,206 WAS IT A CE-SVC              3-6
0006EC 4780 C1C8            021C8   618+         BE    RESVC YES,RE-ISSUE THE CE-SVC      3-6
0006F0 9535 0023      00023         619+         CLI   SVOLDP+3,(SVCTABND-SVCTAB)/2
0006F4 47B0 00D6            000D6   620+         BNL   ERR21
0006F8 4860 0022            00022   621+SVCRTN1  LH    R6,SVOLDP+2 PICK UP SVC CODE
0006FC 1A66                         622+         AR    R6,R6
0006FE 4870 0350            00350   623+         LH    R7,YSVCTAB GET SVC TABLE ADDR                3-8
000702 4866 7000            00000   624+         LH    R6,0(R6,R7) USE CODE AS INDEX TO BRANCH TABLE      3-8
       DOS SUPERVISOR - INTERRUPT HANDLER ROUTINES                                                             PAGE   18


  LOC  OBJECT CODE    ADDR1 ADDR2  STMT   SOURCE STATEMENT                                          FDOS CL3-10 03/29/70

000706 07F6                         625+         BR    R6


                                    627          PIOCS BMPX=NO,                 BURST MODE DEVICES ON BYTE CH  X
                                                       CHANSW=NO,               TAPE CHANNEL SWITCHING         X
                                                       MRSLCH=NO,               MICR ON SELECTOR CHANNEL       X
                                                       SELCH=YES,               SELECTOR CHANNEL SUPPORT       X
                                                       TAPE=9                   SUPPORT 7 & 9 TRACK TAPE
                                    628+*360N-CL-453 PIOCS    CHANGE LEVEL 3-11                            3-11
000424                              629+         ORG   CONFIG
000424 F8                           630+         DC    B'11111000' 3-5
000476                              631+         ORG   OPTNBYTE OVERLAY OPTION BYTE IN COMRG 3-9
000476 10                           632+         DC    B'00010000' OPTION BYTE                  3-9
000708                              633+         ORG
       DOS SUPERVISOR-CHANNEL SCHEDULER,UNIT CK RTNS                                                           PAGE   19


  LOC  OBJECT CODE    ADDR1 ADDR2  STMT   SOURCE STATEMENT                                          FDOS CL3-10 03/29/70

                                    635+*360N-CL-453 SGTCHS     CHANGE LEVEL 3-12                          3-12
                                    636+*   CHANNEL SCHEDULER
                                    637+*      REGISTER USAGE
                                    638+*         R1   CCB ADDR
                                    639+*         R2   ABSOLUTE LUB NO.
                                    640+*         R3   PUB ADDR
                                    641+*         R4   CHANNEL QUE ENTRY ADDR
                                    642+*         R5   CHANNEL QUE ENTRY NO. AND LUBID ENTRY ADDR
                                    643+*         R6   REQUESTER ID (RID)
                                    644+*         R7   LINK
                                    645+*         R8   LUB ADDR
                                    646+*         R9   EXIT ADDR
000000                              647+         USING CCBADR,R1
000000                              648+         USING PIBADR,RA
                                    649+*      OFF MAIN LINE BRANCHES
000708 181F                         650+SUPEXP   LR    R1,RF GET CCB ADDR FROM SUPVR CCB REG
00070A 1B66                         651+         SR    R6,R6 ZERO KEY                         3-5
00070C 4121 000F            0000F   652+         LA    R2,CCBLNG-1(R1) LOAD END OF CCB ADDRESS          3-5
000710 4570 B6A8            016A8   653+         BAL   R7,VLDADR2 IS CCB AT VALID LOCATION         3-5
000714 4860 B980            01980   654+         LH    R6,RIK LD REQUESTOR I/O KEY TO BE USED
000718 9504 F007      00007         655+         CLI   7(RF),X'04' I/O TO LOG?                 3-10
00071C 4770 0724            00724   656+         BNE   PTPAR NO,BYPASS KEY RESET         3-10
000720 4160 0001            00001   657+         LA    R6,1 YES,SET RIK TO X'01'        3-10
000724                              658+PTPAR    EQU   * 3-10
000724 1B22                         659+         SR    R2,R2
000726 4320 1007            00007   660+         IC    R2,CCBLNO ABSOLUTE LUB NUMBER
00072A 4130 002B            0002B   661+         LA    R3,(F2LUB-LUBTAB)/2 SUBTRACT NUMBER OF BG LUBS
00072E 1B23                         662+         SR    R2,R3 *
000730 4740 073E            0073E   663+         BM    RADLDS RE-ADD IF ANSWER IS NEGATIVE
000734 4130 002B            0002B   664+         LA    R3,(F1LUB-F2LUB)/2 SUBTRACT NUMBER OF F2 LUBS
000738 1B23                         665+         SR    R2,R3 *
00073A 47B0 0740            00740   666+         BC    11,*+6 RE-ADD IF ANSWER IS NEGATIVE
00073E 1A23                         667+RADLDS   AR    R2,R3 COMPUTE RELATIVE LUB NUMBER
000740 4220 0A0D            00A0D   668+         STC   R2,LUBDSPI STORE RELATIVE LUB NUMBER
000744 4320 1007            00007   669+         IC    R2,CCBLNO GET LUB NO
000748 9180 100C      0000C         670+         TM    CCBBY3,ERRTIN ERP CCB ?                   3-11
00074C 4710 094C            0094C   671+         BO    EXCP6 YES, BYPASS SYSCLB CHECK    3-11
000750 950B 1007      00007         672+         CLI   CCBLNO,SYSCLB .     LOOK AT LUB INDEX IN CCB         3-9
000754 4780 0786            00786   673+         BE    CLBSUP .            BR IF PRIVATE CORE IMAGE LIBRARY 3-9
000758 47F0 094C            0094C   674+         B     EXCP6 .             GO CHECK LUB'S ASSIGNMENT        3-9
                                    675+*
00075C 4720 00E2            000E2   676+EXCP7    BH    ERR27 BR IF LUB CLASS INVALID
000760 4230 0A0D            00A0D   677+         STC   R3,LUBDSPI SET LOGICAL UNIT ID
000764 4820 048E            0048E   678+         LH    R2,PIK COMPUTE SYSTEM LUB INDEX
000768 4322 D4E3            034E3   679+         IC    R2,PIB2AD+3(R2) FACTOR
00076C 1A23                         680+         AR    R2,R3 *
00076E 950B 1007      00007         681+         CLI   CCBLNO,SYSCLB .     LOOK AT LUB INDEX IN CCB         3-9
000772 4780 077E            0077E   682+         BE    CLBPRG .            BR IF PRIVATE CORE IMAGE LIBRARY 3-9
000776 950B 1007      00007         683+EXCP10   CLI   CCBLNO,(PGRLUB-SYSLUB)/2 IS IT VALID CCB
00077A 47F0 0948            00948   684+         B     EXCP5
00077E 4870 041E            0041E   685+CLBPRG   LH    R7,PID .            PICKUP PID DISPLACEMENT          3-9
       DOS SUPERVISOR-CHANNEL SCHEDULER,UNIT CK RTNS                                                           PAGE   20


  LOC  OBJECT CODE    ADDR1 ADDR2  STMT   SOURCE STATEMENT                                          FDOS CL3-10 03/29/70

000782 47F0 078C            0078C   686+         B     CLBPTR .            GO GET PUB PTR FROM SYSCLB LUB   3-9
000786 1B77                         687+CLBSUP   SR    R7,R7 .             CLEAR WORK REGISTER              3-9
000788 4370 C006            02006   688+         IC    R7,FIK1 .           PICKUP PID DISPLACEMENT          3-9
00078C 8870 0003            00003   689+CLBPTR   SRL   R7,THREE .          DIVIDE DISPLACEMENT BY 8         3-9
000790 1177                         690+         LNR   R7,R7 .             MAKE DISPLACEMENT NEGATIVE       3-9
000792 4337 D4E0            034E0   691+         IC    R3,CLBLUBS(R7) .    GET PUB PTR FROM SYSCLB LUB      3-9
000796 47F0 0958            00958   692+         B     EXCP6A .            GO CHECK LUB'S ASSIGNMENT        3-9
                                    693+*
00079A 4720 00E0            000E0   694+EXCPIGN  BH    ERR26
00079E 4400 0990            00990   695+         EX    0,CLRCCB CLEAR CHAN SCHD BITS         3-9
0007A2 9680 1002      00002         696+         OI    CCBCOM1,TRABIT POST CHANN END, DEV END FOR
0007A6 960C 1004      00004         697+         OI    CCBSTA1,CE+DE IGNORE OPTION
0007AA 07F9                         698+         BR    R9 EXIT
                                    699+*
0007AC 1858                         700+FNDQUE   LR    R5,R8 CLEAR HI 3 IN R5
0007AE 4143 0002            00002   701+         LA    R4,2(R3) PICK UP CHANN QUE PNTR FROM PUB
0007B2 4354 0000            00000   702+FNDQUE1  IC    R5,0(R4) GET CHANN INDEX
0007B6 4145 5000            00000   703+         LA    R4,0(R5,R5) COMPUTE CHANNEL QUEUE DISPLA-
0007BA 1A44                         704+         AR    R4,R4 * CEMENT
0007BC 4A40 B978            01978   705+         AH    R4,YCHANQ GET CHANN QUEUE ADDR              3-8
0007C0 95FF 4000      00000         706+         CLI   0(R4),X'FF' END OF CHAIN?
0007C4 4770 07B2            007B2   707+         BNE   FNDQUE1 NO
0007C8 4284 0000            00000   708+         STC   R8,0(R4) ADD NEW REQUEST TO CHAIN
0007CC 07F9                         709+         BR    R9

000000                              711+         USING PUBADR,R3
0007CE                              712+TSTDEV   EQU   * 3-9
0007CE 4400 B404            01404   713+         EX    0,MVZEX SET UP DEVICE TYPE CODE      3-9
0007D2 9510 048F      0048F         714+         CLI   PIK+ONE,BGIDEN BACKGROUND REQUEST?          3-9
0007D6 4770 07EE            007EE   715+         BNE   TSTDEV1 NO,CHECK IF T/P REQUEST      3-9
0007DA 9180 04A0      004A0         716+         TM    AOLTAB,OLTAC IS OLTEP IN BACKGROUND?      3-9
0007DE 4780 07EE            007EE   717+         BZ    TSTDEV1 NO,CHECK T/P                3-10
0007E2 5010 B750            01750   718+         ST    R1,OLTSAV SAVE CCB ADDR               3-10
0007E6 92FF B750      01750         719+         MVI   OLTSAV,OLTPHALT INDICATE OLTEP HIO REQUEST  3-10
0007EA 47F0 07F8            007F8   720+         B     TSTDEV2 CONTINUE COMMON ACTION      3-10
0007EE                              721+TSTDEV1  EQU   * 3-9
0007EE 95B0 D638      03638         722+         CLI   DEVZON,TTP IS IT A T/P DEVICE?          3-9
0007F2 0749                         723+         BCR   L,R9 NO,IGNORE REQUEST            3-9
0007F4 9200 B750      01750         724+         MVI   OLTSAV,ZERO INSURE NON-OLTEP REQUEST    3-10
0007F8                              725+TSTDEV2  EQU   * 3-9
0007F8 95FF 3002      00002         726+         CLI   PUBCHQPT,X'FF' ANYTHING ON CH. QUE FOR DEVICE?
0007FC 0789                         727+         BCR   E,R9 NO,IGNORE HALT I/O REQUEST
0007FE 4570 B0FA            010FA   728+         BAL   R7,CQDSP GET CHANNEL QUEUE ENTRY
000802 95FF B750      01750         729+         CLI   OLTSAV,OLTPHALT IS THIS AN OLTEP REQUEST    3-10
000806 4770 0872            00872   730+         BNE   TPBUSY0 NO,THEN JUST HALT THE DEV   3-10
00080A 9103 3007      00007         731+         TM    PUBJCFLG,FGASSGNS IS THIS DEVICE SHARED       3-10
00080E 4780 0872            00872   732+         BZ    TPBUSY0 NO,GO HALT IT               3-10
000812 1874                         733+         LR    R7,R4 POINT AT CHANQ ENTRY        3-10
000814                              734+OLTPCOMP EQU   * 3-10
000814 D502 B751 7001 01751 00001   735+         CLC   OLTSAV+ONE(THREE),ONE(R7) HALT I/O IF THE OLTEP-   3-10
00081A 4780 0872            00872   736+         BE    TPBUSY0 CCB IS THE FIRST ENTRY      3-10
       DOS SUPERVISOR-CHANNEL SCHEDULER,UNIT CK RTNS                                                           PAGE   21


  LOC  OBJECT CODE    ADDR1 ADDR2  STMT   SOURCE STATEMENT                                          FDOS CL3-10 03/29/70

00081E 4180 D780            03780   737+         LA    R8,CHANQ POINT AT THE CHANQ TABLE    3-10
000822                              738+HALTLOOP EQU   * 3-10
000822 1847                         739+         LR    R4,R7 POINT R4 AT 1ST ENTRY 4 PUB 3-10
000824 95FF 4000      00000         740+         CLI   ZERO(R4),NULL IS THIS THE LAST ENTRY      3-10
000828 0789                         741+         BCR   E,R9 YES,EXIT                    3-10
00082A 1B77                         742+         SR    R7,R7 POINT AT NEXT CHANQ ENTRY - 3-10
00082C 4374 0000            00000   743+         IC    R7,ZERO(R4) BY GETTING THE PRESENT -    3-10
000830 8970 0002            00002   744+         SLL   R7,2 ENTRY'S CHAIN BYTE,MULTI-   3-10
000834 1A78                         745+         AR    R7,R8 PLYING THAT BY FOUR AND -   3-10
                                    746+*                                      ADDING THE PRODUCT TO THE - 3-10
                                    747+*                                      START OF THE CHANQ          3-10
000836 4400 0814            00814   748+         EX    0,OLTPCOMP IS R7 AT THE OLTEP CCB      3-10
00083A 4770 0822            00822   749+         BNE   HALTLOOP NO,LOOK SOME MORE           3-10
00083E 1B88                         750+         SR    R8,R8 TAKE THIS ENTRY OFF CHANQ-  3-10
000840 4384 0000            00000   751+         IC    R8,ZERO(R4) BY SWITCHING CHAIN BYTES    3-10
000844 D200 4000 7000 00000 00000   752+         MVC   ZERO(ONE,R4),ZERO(R7) 3-10
00084A D200 7000 09CF 00000 009CF   753+         MVC   ZERO(ONE,R7),FLPTR ADD THIS ENTRY TO THE FREE- 3-10
000850 4280 09CF            009CF   754+         STC   R8,FLPTR LIST                        3-10
000854 1B44                         755+         SR    R4,R4 RESET ALL THE I/O REQUEST - 3-10
000856 4870 045C            0045C   756+         LH    R7,LUBIDQ IDENTIFIERS                 3-10
000000                              757+         USING LUBADR,R7 3-10
00085A 4248 7000            00000   758+         STC   R4,LUBID(R8) ZERO LUBID TAB              3-10
00085E 4248 7060            00060   759+         STC   R4,TKREQID(R8) ZERO TASK REQUESTOR ID      3-10
000862 4140 00FF            000FF   760+         LA    R4,NULL 3-10
000866 4248 7020            00020   761+         STC   R4,REQID(R8) NULL REQ ID AND LUB -       3-10
00086A 4248 7040            00040   762+         STC   R4,LUBDSP(R8) DISPLACEMENT TABLES         3-10
                                    763+         DROP  R7 3-10
00086E 47F0 01AC            001AC   764+         B     EXT03 EXIT                        3-10

000872                              766+TPBUSY0  EQU   * 3-10
000872 9180 3006      00006         767+         TM    PUBCSFLG,DEVBSY IS THE DEVICE BUSY          3-10
000876 4780 C2D0            022D0   768+         BZ    IOPSET NO,DEQ THE CCB              3-10
00087A 9110 3006      00006         769+         TM    PUBCSFLG,QEDERR ERROR QUEUED                     3-11
00087E 4710 C1C8            021C8   770+         BO    RESVC YES DO NOT ISSUE HIO             3-11
000882 9104 3006      00006         771+         TM    PUBCSFLG,POSTDE WAITING FOR DEV END ONLY    3-10
000886 4710 C2D0            022D0   772+         BC    O,IOPSET YES,DEQ THE CCB             3-10
00088A 4860 3000            00000   773+         LH    1*R6+(1-1)*R2,PUBCHANN LOAD CHANNEL AND UNIT 3-9
00088E 9F00 6000      00000         774+         TCH   0(1*R6+(1-1)*R2) CHAN OPERATING IN BURST MDE 3-9
000892 4720 08AA            008AA   775+         BC    2,TPBUSY1 YES
000896                              776+HALT     EQU   * 3-9
000896 4400 0990            00990   777+         EX    0,CLRCCB CLEAR CHANNEL SCHEDULER BITS 3-9
00089A 9E00 6000      00000         778+         HIO   0(1*R6+(1-1)*R2) ISSUE HALT I/O COMMAND      3-9
00089E 47A0 C1C8            021C8   779+         BC    10,RESVC REISSUE THE HALT I/O SVC    3-10
0008A2 4710 B2B4            012B4   780+         BC    1,IONOP NOT OPERATIONAL
0008A6 47F0 08C0            008C0   781+         B     TPBUSY2
0008AA                              782+TPBUSY1  EQU   * 3-10
0008AA 1B77                         783+         SR    R7,R7 LOAD CHAN PUB TBL INDEX     3-10
0008AC 4370 3000            00000   784+         IC    R7,PUBCHANN *
0008B0 4377 D639            03639   785+         IC    R7,CHNIDX(R7) *
0008B4 4937 D6E0            036E0   786+         CH    R3,CHNPUBST(R7) IS THIS THE LAST PUB STARTED
0008B8 4780 0896            00896   787+         BE    HALT YES
       DOS SUPERVISOR-CHANNEL SCHEDULER,UNIT CK RTNS                                                           PAGE   22


  LOC  OBJECT CODE    ADDR1 ADDR2  STMT   SOURCE STATEMENT                                          FDOS CL3-10 03/29/70

0008BC 47F0 C1C8            021C8   788+         B     RESVC REISSUE THE HALT I/O SVC
0008C0                              789+TPBUSY2  EQU   * 3-9
0008C0 9106 0045      00045         790+         TM    CHNSTA,CHNCHK CHANNEL FAILURE?             3-9
0008C4 4770 B63A            0163A   791+         BNZ   CHFAIL YES
0008C8 95D0 3004      00004         792+         CLI   PUBDEVTY,T2701 IF TYPE IS 2701 SKIP TEST    3-5
0008CC 4780 08D8            008D8   793+         BE    TPBUSY3 YES, SKIP                    3-5
0008D0 9570 0044      00044         794+         CLI   DEVSTA,STATMOD+BUSY+CUE IF CONTROL UNIT BUSY         3-5
0008D4 4780 C1C8            021C8   795+         BE    RESVC RESVC HIO                    3-5
0008D8                              796+TPBUSY3  EQU   * 3-9
0008D8 9519 0023      00023         797+         CLI   SVOLDP+L3,HIO SVC 25?                      3-9
0008DC 0779                         798+         BCR   NE,R9
0008DE 47F0 C2D0            022D0   799+         B     IOPSET DEQUEUE CCB
                                    800+         DROP  R3


                                    802+*      MAIN LINE
0008E2 95FF 09CF      009CF         803+SVC15    CLI   FLPTR,X'FF' IS CHANNEL QUE FULL
0008E6 0789                         804+         BCR   E,R9 YES
0008E8 1B00                         805+         SR    R0,R0 CLEAR REG 0 TO INDICAT NO OVFLW
0008EA 5000 BB6C            01B6C   806+         ST    R0,PTASAVE+36
0008EE 95FF 09CF      009CF         807+SVC00    CLI   FLPTR,X'FF' TST FOR NO CHANN QUE ENTRIES
0008F2 4780 C1C8            021C8   808+         BE    RESVC BR IF QUE FULL
0008F6 9240 0652      00652         809+         MVI   ACCTRAID,JAOHID CHARGE TIME TO OVERHEAD        3-9
0008FA                              810+SVC25    EQU   *
0008FA                              811+SVC27    EQU   *
0008FA 4860 048E            0048E   812+         LH    R6,PIK LD KEY OF CALLER
0008FE 9560 048F      0048F         813+         CLI   PIK+1,SPID IS IT SUPVR ID
000902 4780 0708            00708   814+         BE    SUPEXP
000906 D502 A005 0469 00005 00469   815+COMPCLC  CLC   PIBSVADD(3),LTAREA WAS CALLER A LOGICAL TRANSIENT
00090C 4770 091E            0091E   816+         BNE   EXCP1 LOG TRANS REQUEST
000910 4111 0000            00000   817+         LA    R1,0(R1) ZERO HI BYTE
000914 4910 B746            01746   818+         CH    R1,ENDSUP IS IT IN SUPVR
000918 47B0 091E            0091E   819+         BNL   *+6 NO,BRANCH
00091C 1B66                         820+         SR    R6,R6 SET KEY FOR ADDR VALIDATE TO 0
00091E 4121 000F            0000F   821+EXCP1    LA    R2,CCBLNG-1(R1) LD END-OF-CCB ADDR
000922 4570 B6A8            016A8   822+         BAL   R7,VLDADR2 IS CCB AT VALID LOC FOR CALLER
000926 1B33                         823+EXCP4    SR    R3,R3 CLEAR PUB REG
000928 4330 1007            00007   824+         IC    R3,CCBLNO GET LUB INDEX
00092C 9501 1006      00006         825+         CLI   CCBCLS,1 TEST FOR LUB CLASS 0 OR 1
000930 4770 075C            0075C   826+         BNE   EXCP7 BR IF SYSTEM CLASS LUB
000934 92FF 0A0D      00A0D         827+         MVI   LUBDSPI,X'FF' SET L. U. ID TO NON-SYSTEM
000938 D200 0941 A00D 00941 0000D   828+         MVC   EXCP8+3(1),PIBLUBID GET SYS00 INDEX
00093E 4123 0000            00000   829+EXCP8    LA    R2,0(R3) CALC TRUE LUB INDEX
000942 D500 1007 A00E 00007 0000E   830+         CLC   CCBLNO(1),PIBLUBNO IS THERE ALUB
000948 47B0 00E2            000E2   831+EXCP5    BNL   ERR27
00094C                              832+EXCP6    EQU   * 3-9
00094C 4182 2000            00000   833+         LA    R8,0(R2,R2) GET LUB DSPL
000950 4870 043C            0043C   834+         LH    R7,LUBPT .               GET POINTER TO LUB          3-9
000954 4338 7000            00000   835+         IC    R3,0(R8,R7) GET PUB PTR FROM LUB        3-9
000958                              836+EXCP6A   EQU   * 3-9
000958 4930 B744            01744   837+         CH    R3,LUBIGN .         IS LUB IGNORE OR UNASSIGNED      3-9
       DOS SUPERVISOR-CHANNEL SCHEDULER,UNIT CK RTNS                                                           PAGE   23


  LOC  OBJECT CODE    ADDR1 ADDR2  STMT   SOURCE STATEMENT                                          FDOS CL3-10 03/29/70

00095C 47B0 079A            0079A   838+         BNL   EXCPIGN IGNOR OR UNASSIGNED
000960 8930 0003            00003   839+         SLL   R3,R3 *
000964 4A30 0430            00430   840+         AH    R3,PUBPT
000968 9502 B981      01981         841+         CLI   RIK+1,X'02' 3-11
00096C 4770 0980            00980   842+         BNE   PASSSVC0 3-11
000970 9560 048F      0048F         843+         CLI   PIK+1,X'60' SUPERVISOR I/O?             3-11
000974 4780 0980            00980   844+         BE    PASSSVC0 3-11
000978 4930 D648            03648   845+         CH    R3,PUBRES 3-11
00097C 4780 C1C8            021C8   846+         BE    RESVC 3-11
000980                              847+PASSSVC0 EQU   *
000980 9519 0023      00023         848+         CLI   SVOLDP+3,HIO IS SVC A HALT I/O            3-9
000984 4780 07CE            007CE   849+         BE    TSTDEV YES, BRANCH                  3-9
000988 951B 0023      00023         850+         CLI   SVOLDP+3,SHIO IS IT SPECIAL HALT I/O       3-9
00098C 4780 07CE            007CE   851+         BE    TSTDEV YES, BRANCH                  3-9
000990 D403 1002 D64C 00002 0364C   852+CLRCCB   NC    CCBCOM1(4),CLRCOM CLEAR CHAN SCHD BITS IN CCB  3-9
000996 D502 1009 0421 00009 00421   853+         CLC   9(3,R1),EOCADR+1 VALID CCW ADDRESS?          3-11
00099C 47B0 00DE            000DE   854+         BNL   ERR25 NO -- CANCEL                3-11
0009A0 D501 0022 CC44 00022 02C44   855+         CLC   SVOLDP+2(2),TKHWT TRACK HOLD IN EFFECT              3-3
0009A6 4780 C8FC            028FC   856+         BE    TKHDRTN YES RETURN                        3-3
000000                              857+         USING PUBADR,R3
000000                              858+         USING CHQADR,R4
0009AA                              859+EXCP3    EQU   *
0009AA D501 B970 B97E 01970 0197E   860+         CLC   ERRQ(2),ERQPTR DEVICE ERROR IN QUE         3-2
0009B0 4720 09CC            009CC   861+EXCP3A   BH    QUEUP NO                               3-4
0009B4 4930 B998            01998   862+         CH    R3,PUBENT THIS DEVICE IN ERROR         3-2
0009B8 4770 09CC            009CC   863+         BNE   QUEUP NO                           3-2
0009BC 950F 0023      00023         864+         CLI   SVOLDP+3,15 IS REQUEST FROM A-TRAN      3-2
0009C0 4780 09CC            009CC   865+         BE    QUEUP YES                         3-2
0009C4 9110 3006      00006         866+         TM    PUBCSFLG,QEDERR HAS ERP STARTED I/O          3-2
0009C8 4780 C1C8            021C8   867+         BZ    RESVC YES, DON'T QUE UP REQUEST    3-2
0009CC                              868+QUEUP    EQU   * 3-2
0009CC 4180 0000            00000   869+         LA    R8,0 GET FREE-LIST POINTER        3-9
0009CF                              870+FLPTR    EQU   *-1
0009D0 4148 8000            00000   871+         LA    R4,0(R8,R8) GET CHANQ ADDR
0009D4 1A44                         872+         AR    R4,R4
0009D6 4A40 B978            01978   873+         AH    R4,YCHANQ 3-8
0009DA 1858                         874+         LR    R5,R8 SAVE THE FREE-LIST POINTER
0009DC 4A50 045C            0045C   875+         AH    R5,LUBIDQ CALC ADDR OF LUBID ENTRY
0009E0 D200 09CF 4000 009CF 00000   876+         MVC   FLPTR(1),CHQCHAIN REMOVE NEW ENTRY FROM FREE-LIST
000000                              877+         USING LUBADR,R5 *****
0009E6 5010 4000            00000   878+         ST    R1,CHQCCBAD-1 STORE CCB-ADDR IN CHANN QUE ENT
0009EA 92FF 4000      00000         879+         MVI   CHQCHAIN,X'FF' SET END-OF-CHAIN CODE
0009EE 4220 5000            00000   880+         STC   R2,LUBID STORE ABSOLUTE LUB NO.
0009F2 4260 5060            00060   881+         STC   R6,TKREQID STORE TASK REQUESTOR ID           3-3
0009F6 4260 5020            00020   882+         STC   R6,REQID STORE IN PARTITION REQUESTOR ID   3-3
0009FA 91F0 5020      00020         883+         TM    REQID,X'F0' IS REQ ID FROM PROBLEM PROGRAM    3-3
0009FE 4780 0A0C            00A0C   884+         BZ    AOHKAY NO - LEAVE REQ ID AS IS           3-3
000A02 4A60 046C            0046C   885+         AH    R6,PIB2PTR GET CONTINUATION PIB              3-3
000A06 D200 5020 600D 00020 0000D   886+         MVC   REQID(1),13(R6) STORE PARTITION REQ ID            3-3
000A0C                              887+AOHKAY   EQU   * 3-3
000A0D                              888+LUBDSPI  EQU   *+1
       DOS SUPERVISOR-CHANNEL SCHEDULER,UNIT CK RTNS                                                           PAGE   24


  LOC  OBJECT CODE    ADDR1 ADDR2  STMT   SOURCE STATEMENT                                          FDOS CL3-10 03/29/70

000A0C 9200 5040      00040         889+         MVI   LUBDSP,X'00' STORE LOGICAL UNIT ID
000A10 95FF 3002      00002         890+         CLI   PUBCHQPT,X'FF' IS A REQST ALREADY QUED TO PUB
000A14 4770 07AC            007AC   891+         BNE   FNDQUE YES, FIND END OF THE QUEUE
000A18 4280 3002            00002   892+         STC   R8,PUBCHQPT QUEUE THE REQUEST TO THE PUB
000A1C 9198 3006      00006         893+         TM    PUBCSFLG,DEVBSY+QEDERR+OPINTV START DVC
000A20 0779                         894+         BCR   NZ,R9 YES
000A22 1B22                         895+         SR    R2,R2 3-11
000A24 4320 3000            00000   896+         IC    R2,PUBCHANN LD CHANN PUB TBL INDEX
000A28 4322 D639            03639   897+         IC    R2,CHNIDX(R2)
                                    898+         DROP  RA
       DOS SUPERVISOR-CHANNEL SCHEDULER,UNIT CK RTNS                                                           PAGE   25


  LOC  OBJECT CODE    ADDR1 ADDR2  STMT   SOURCE STATEMENT                                          FDOS CL3-10 03/29/70

                                    900+*   START I/O ROUTINE
                                    901+*      REGISTER USAGE
                                    902+*         R1   CCB ADDR
                                    903+*         R2   CHANN PUB TBL INDEX
                                    904+*         R3   PUB ADDR
                                    905+*         R4   LINK AND WORK REG
                                    906+*         R5   LUBID ENTRY ADDR
                                    907+*         R6   CHANN AND UNIT NO., WORK REG
                                    908+*         R7   LINK AND WORK REG
                                    909+*         R8   WORK REG
                                    910+*         R9   EXIT REG
000A2C 4860 3000            00000   911+GIOADR   LH    1*R6+(1-1)*R2,PUBCHANN LD CHANN AND UNIT
000A30 9500 3000      00000         912+         CLI   PUBCHANN,MPX TST FOR MULTIPLEX CHANNEL
000A34 4780 0A58            00A58   913+         BE    TSTEOJ
000A38 95B0 3004      00004         914+         CLI   PUBDEVTY,T3277 IS IT 3277                       3-10
000A3C 4780 0A48            00A48   915+         BE    TYPA3277 YES, BRANCH                      3-10
000A40 95C0 3004      00004         916+         CLI   PUBDEVTY,T2260 IS IT 2260                    3-5
000A44 4770 0A52            00A52   917+         BNE   NOT2260 NO  BRANCH                        3-5
000A48                              918+TYPA3277 EQU   * 3-10
000A48 9F00 6000      00000         919+         TCH   0(1*R6+(1-1)*R2) 3-5
000A4C 0729                         920+         BCR   2,R9 EXIT BUSY ON 2260                      3-5
000A4E 47F0 0A58            00A58   921+         B     TSTEOJ 3-5
000A52                              922+NOT2260  EQU   * 3-5
000A52 9F00 6000      00000         923+DOTCH    TCH   0(1*R6+(1-1)*R2) TST ALT CHAN                 3-3
000A56 0769                         924+         BCR   6,R9 EXIT IF 2ND CHANN NOT AVAILABLE
000A58                              925+TSTEOJ   EQU   *
000A58 4060 0AA8            00AA8   926+         STH   1*R6+(1-1)*R2,SIOADR
000A5C 9104 100C      0000C         927+         TM    CCBBY3,OLTP OLTEP REQUEST                    3-9
000A60 4710 0A96            00A96   928+         BO    STRTIO YES, BYPASS CCW MODIFICATION     3-9
000A64 9550 3004      00004         929+         CLI   PUBDEVTY,T2400 IS IT TAPE                     3-4
000A68 4780 0DE4            00DE4   930+         BE    STMODE YE SCHAIN MODE SET              3-4
000A6C 9504 5040      00040         931+         CLI   LUBDSP,SYSLOG IS REQUEST FOR SYSLOG
000A70 4780 0E2A            00E2A   932+         BE    LOGPRC BR IF YES
000A74 940F 0C65      00C65         933+         NI    NOPINSTR+1,15 REST DIB/JIB SWITCH
000A78 91F0 5020      00020         934+         TM    REQID,X'F0' SUPERVISORY REQUEST          3-3
000A7C 4780 0A96            00A96   935+         BZ    STRTIO YES                          3-3
000A80 D300 D638 3004 03638 00004   936+         MVZ   DEVZON(1),PUBDEVTY SAVE DEVICE CLASS
000A86 9503 5040      00040         937+         CLI   LUBDSP,SYSLST SYSIN/OUT
000A8A 47D0 0B94            00B94   938+         BNH   SYSINOUT YES
000A8E 9560 D638      03638         939+         CLI   DEVZON,T2311
000A92 4780 0BDC            00BDC   940+         BE    PROTECT YES
000A96 D202 0049 1009 00049 00009   941+STRTIO   MVC   CMDADR(3),CCBCCW SET CCW ADDR IN CAW
000A9C 940F 0C69      00C69         942+STRTIO1  NI    NOPINS+1,X'0F' REINITIALIZE EXTNT-CHECK
000AA0 D300 0048 5020 00048 00020   943+STRTI2   MVZ   CAW(1),REQID SET PROTECT KEY              3-5
000AA6 9C00 0000      00000         944+SIO      SIO   0
000AA8                              945+SIOADR   EQU   SIO+2 CHANN AND UNIT STORED HERE
                                    946+*           THIS HOOK DEPENDS ON REG 6,8 BEING AVAILABLE FOR USE    3-9
                                    947+*           AND THE CHAN AND UNIT BEING IN PUBCHANN OR SIOADR       3-9
                                    948+*           THE FOLLOWING STATEMENTS ARE USED BY THE TRACE ROUTINES 3-9
                                    949+*           FOR LINKAGE.                                            3-9
000AAA 47F0 0AC6            00AC6   950+CESIOHK  BC    15,NOCESIO BRANCH UNLESS TRACE ACTIVE              3-9
       DOS SUPERVISOR-CHANNEL SCHEDULER,UNIT CK RTNS                                                           PAGE   26


  LOC  OBJECT CODE    ADDR1 ADDR2  STMT   SOURCE STATEMENT                                          FDOS CL3-10 03/29/70

000AAE 5880 008C            0008C   951+         L     R8,CETABPTR LOAD BASE REGISTER FOR NEXT INSTR       3-9
000AB2 909B 8050            00050   952+         STM   R9,RB,80(R8) SAVE REGISTERS 9,10,11                 3-9
000AB6 1898                         953+         LR    R9,R8 LOAD CE AREA BASE REGISTER             3-9
000AB8 4860 0AA8            00AA8   954+         LH    R6,SIOADR GET CHANNEL AND UNIT                    3-9
000ABC 45A9 005C            0005C   955+         BAL   RA,92(R9) GO TO TRACE ROUTINE                     3-9
000AC0 04A0                         956+         SPM   RA RESTORE CONDITION CODE                  3-9
000AC2 989B 9050            00050   957+         LM    R9,RB,80(R9) RESTORE REGISTERS                       3-9
000AC6                              958+NOCESIO  EQU   * 3-9
000AC6 0570                         959+         BALR  R7,R0 GET CONDITION CODE               3-9
000AC8 9180 04A0      004A0         960+         TM    AOLTAB,OLTAC OLTEP                       3-11
000ACC 4780 0AE6            00AE6   961+         BZ    NOLPZ NO                          3-11
000AD0 9104 100C      0000C         962+         TM    CCBBY3,OLTP OLTEP REQUEST                    3-9
000AD4 4780 0AE6            00AE6   963+         BZ    NOLPZ NO                               3-9
000AD8 4400 0E98            00E98   964+         EX    0,OLTPMOVE MOVE APPNDAGE ADDR TO FWD    3-9
000ADC 5880 B750            01750   965+         L     R8,OLTSAV 3-9
000AE0 9204 1008      00008         966+         MVI   CCBLNO+1,OLTP INDICATE SIO TO OLTEP        3-9
000AE4 05B8                         967+         BALR  RB,R8 PASS SIO TO OLTEP                3-9
000AE6                              968+NOLPZ    EQU   * 3-9
000AE6 0470                         969+         SPM   R7 RESTORE CONDITION CODE           3-9
000AE8 58B0 0340            00340   970+         L     RB,BASRGS 3-9
000AEC 4770 0B60            00B60   971+STRTED   BC    7,UNCOMMON BR IF NOT A NORMAL START
000AF0 4032 D6E0            036E0   972+         STH   R3,CHNPUBST(R2) STOR ADDR OF PUB LAST STARTED
000AF4 9680 3006      00006         973+         OI    PUBCSFLG,DEVBSY STARTED, SET DEV BUSY FLG


                                    975+*THIS IS AN ACCOUNTING ROUTINE THAT COUNTS THE NUMBER OF SIO'S PER  3-9
                                    976+*DEVICE, AND STORES THE CUMULATIVE COUNT IN A TABLE ALONG WITH      3-9
                                    977+*CHANNEL AND DEVICE.  FOR BJF THERE ARE THREE TABLES-ONE FOR EACH   3-9
                                    978+*PARTITION AND SIO ACCOUNTING WILL BE DONE PER DEVICE ASSIGNED      3-9
                                    979+*TO A PARTITION.                                                    3-9
                                    980+*MPS AND BJO HAVE SIO ACCOUNTING FOR BG ONLY.  ALL REGISTERS USED   3-9
                                    981+*ARE SAVED AND RESTORED.                                            3-9
                                    982+* REGISTER USAGE                                                    3-9
                                    983+**R2  USED ONLY WITH BJO SUPRV TO CONTAIN CHANNEL AND DEVICE ADDR** 3-9
                                    984+**R6  USED ONLY WITH MPS SUPRV TO CONTAIN CHANNEL AND DEVICE ADDR** 3-9
                                    985+**R7  REQUESTOR ID; WORK REG FOR INCREMENTING COUNT**************** 3-9
                                    986+**R8  PTR TO ACCT TABLES; BASE REG FOR ADDRESSIBILITY TO TABLES**** 3-9
                                    987+**R9  ADDR OF SIO ACCT TABLE ENTRY********************************* 3-9
000AF8 9079 0638            00638   988+         STM   R7,R9,ACCTSVRG 3-9
000AFC 4860 0AA8            00AA8   989+         LH    (1*R6+(1-1)*R2),SIOADR 3-9
000B00 1B77                         990+         SR    R7,R7 3-9
000B02 4370 5020            00020   991+         IC    R7,REQID GET REQUESTOR IDENTIFIER    3-9
000B06 8A70 0004            00004   992+         SRA   R7,4 CHECK FOR PP PART.           3-9
000B0A 4780 0B5A            00B5A   993+         BZ    EXIT BRANCH IF NO                 3-9
000B0E 8970 0002            00002   994+         SLL   R7,2 GET WORD DISPLACEMEMT        3-9
000B12 5887 0658            00658   995+         L     R8,ACCTBLES-4(R7) PTR TO ACCT TABLE           3-9
000000                              996+         USING ACCTABLE,R8 ESTABLISH ADDRESIBILITY FOR 3-9
                                    997+*                                            ACCT TABLES            3-9
000B16 4190 8078            00078   998+         LA    R9,ACCTSIOS ADDR OF SIO TABLE           3-9
000B1A 9510 9000      00000         999+NXT1     CLI   0(R9),X'10' TEST FOR TABLE ENTRY EMPTY   3-9
000B1E 4740 0B46            00B46  1000+         BL    INUSE 3-9
       DOS SUPERVISOR-CHANNEL SCHEDULER,UNIT CK RTNS                                                           PAGE   27


  LOC  OBJECT CODE    ADDR1 ADDR2  STMT   SOURCE STATEMENT                                          FDOS CL3-10 03/29/70

000B22 4720 0B56            00B56  1001+         BH    OVRFLW 3-9
000B26 4069 0000            00000  1002+         STH   (1*R6+(1-1)*R2),0(R9) STORE DEVICE ADDR      3-9
000B2A D203 8000 9002 00000 00002  1003+COUNT    MVC   ACCTWK1(4),2(R9) MOVE CNT TO WORD BOUNDRY    3-9
000B30 5870 8000            00000  1004+         L     R7,ACCTWK1 3-9
000B34 4177 0001            00001  1005+         LA    R7,1(R7) INCREMENT CNT               3-9
000B38 5070 8000            00000  1006+         ST    R7,ACCTWK1 3-9
000B3C D203 9002 8000 00002 00000  1007+         MVC   2(4,R9),ACCTWK1 3-9
000B42 47F0 0B5A            00B5A  1008+         B     EXIT 3-9
000B46 4969 0000            00000  1009+INUSE    CH    (1*R6+(1-1)*R2),0(R9) TST FOR DEV ENTERED 3-9
000B4A 4780 0B2A            00B2A  1010+         BE    COUNT 3-9
000B4E 4199 0006            00006  1011+         LA    R9,6(R9) INCR & TST NXT ENTRY         3-9
000B52 47F0 0B1A            00B1A  1012+         B     NXT1 3-9
000B56 9230 9000      00000        1013+OVRFLW   MVI   0(R9),X'30' TURN ON OVER FLOW INDICATOR  3-9
                                   1014+         DROP  R8 3-9
000B5A 9879 0638            00638  1015+EXIT     LM    R7,R9,ACCTSVRG 3-9


000B5E 07F9                        1017+         BR    R9 3-11
000B60 4730 B2B2            012B2  1018+UNCOMMON BC    3,NOSTART BR IF BUSY OR NOT OPERATIONAL
000B64 9106 0045      00045        1019+CKCHST   TM    CHNSTA,CHNCHK 3-4
000B68 4770 B63A            0163A  1020+         BNZ   CHFAIL YES                                3-5
000B6C 913F 0045      00045        1021+         TM    CHNSTA,255-PCI-WRONGLEN ANY CHANN STAT BUT PCI, WRG LNG
000B70 4770 0B7A            00B7A  1022+         BC    NZ,IMDCMD BR IF YES TO PROCESS CSW
000B74 91AF 0044      00044        1023+         TM    DEVSTA,255-STATMOD-BUSY ANY DEV STAT BUT BUSY, STAT MOD
000B78 0789                        1024+         BCR   Z,R9 EXIT IF NOT                            3-9
000B7A D201 003A 0AA8 0003A 00AA8  1025+IMDCMD   MVC   CHNADR(2),SIOADR SET CHANN & UNIT FOR INTERR RTN
000B80 5860 0048            00048  1026+         L     R6,CAW SET CHAN & UNIT FOR INTER RTN3-8
000B84 4A60 B814            01814  1027+         AH    R6,H8
000B88 5060 0040            00040  1028+         ST    R6,CSW
000B8C 4032 D6E0            036E0  1029+         STH   R3,CHNPUBST(R2) STORE ADDR OF LAST PUB STARTED
000B90 47F0 0E7C            00E7C  1030+         B     GETCHQ
                                   1031+*
000B94 9501 5040      00040        1032+SYSINOUT CLI   LUBDSP,SYSIPT IS UNIT SYSRDR OR SYSIPT
000B98 4720 0BBC            00BBC  1033+         BH    SYSFILE5
000B9C 9560 D638      03638        1034+         CLI   DEVZON,T2311 IS IT A DASD DEVICE          3-5
000BA0 4770 0BB4            00BB4  1035+         BNE   ARND2 NO..                         3-5
000BA4 4570 B26C            0126C  1036+         BAL   R7,GETPIB 3-5
000000                             1037+         USING PIBADR,R8 3-5
000BA8 9120 800F      0000F        1038+         TM    PIBFLG2,JOBDUN IS EOJ POSTED                3-5
                                   1039+         DROP  R8 3-5
000BAC 4710 009C            0009C  1040+         BO    ERR30 YES, ERROR                   3-5
000BB0 47F0 0BBC            00BBC  1041+         B     SYSFILE5 3-5
000BB4                             1042+ARND2    EQU   * 3-5
000BB4 9120 3006      00006        1043+         TM    PUBCSFLG,JOBDUN JOB OVERRUN
000BB8 4710 009C            0009C  1044+         BO    ERR30
000BBC 9560 D638      03638        1045+SYSFILE5 CLI   DEVZON,T2311 DASD...
000BC0 4770 0A96            00A96  1046+         BNE   STRTIO NO
000BC4 4570 B26C            0126C  1047+         BAL   R7,GETPIB GET REQUESTORS PIB ADDR
000BC8 4B80 044A            0044A  1048+         SH    R8,PIBPT R8 EQUALS PIK
000BCC 4878 D4E0            034E0  1049+         LH    R7,PIB2AD(R8) R7 EQUALS ADDR OF CORRECT COMREG
0003F0                             1050+         USING COMREG,R7
       DOS SUPERVISOR-CHANNEL SCHEDULER,UNIT CK RTNS                                                           PAGE   28


  LOC  OBJECT CODE    ADDR1 ADDR2  STMT   SOURCE STATEMENT                                          FDOS CL3-10 03/29/70

000BD0 9140 7038      00428        1051+         TM    JCBYT1,X'40' IS IT A JOB CONTROL OPEN?
                                   1052+         DROP  R7
000BD4 4710 0A96            00A96  1053+         BC    1,STRTIO YES
000BD8 96F0 0C65      00C65        1054+         OI    NOPINSTR+1,X'F0' SET DIB/JIB SWITCH
                                   1055+*
000BDC 9500 3003      00003        1056+PROTECT  CLI   PUBERR,0 RETRY IN PROGRESS?
000BE0 4770 0A96            00A96  1057+         BNE   STRTIO YES
000BE4 96F0 C4FD      024FD        1058+         OI    PCHKSW+1,X'F0' TAKE CNTRL ON POSSIBLE PROG CHK
000BE8 4570 B26C            0126C  1059+INHWRITE BAL   R7,GETPIB GET REQUESTOR'S PIB-ADDR.
000000                             1060+         USING PIBADR,R8
000BEC 9180 800C      0000C        1061+         TM    PIBPUBAS,X'80' WRITE ON SYSRES ALLOWED?
000BF0 4710 0C3A            00C3A  1062+         BC    1,LGD YES
000BF4 18F8                        1063+         LR    RF,R8 GET REQUESTOR'S PIB ADDR               3-9
000BF6 4BF0 044A            0044A  1064+         SH    RF,PIBPT GET REQUESTOR'S PIK                    3-9
000BFA 1B44                        1065+         SR    R4,R4 MULTIPLY CHANNEL-NUMBER BY 24
000BFC 4340 0AA8            00AA8  1066+         IC    R4,SIOADR TO BE USED AS DISPLACEMENT IN
000C00 4C40 B964            01964  1067+         MH    R4,H24 * LIST OF CHANNEL-CCW'S
000C04 4A40 B962            01962  1068+         AH    R4,CHAINST GET CORRECT CHANNEL CCW-CHAIN
000C08 D202 0049 1009 00049 00009  1069+         MVC   SAVERG+1(3),CCBCCW POINT TO USER'S CHAIN
000C0E 5860 0048            00048  1070+         L     R6,SAVERG *
000C12 4870 B7E4            017E4  1071+         LH    R7,INHSADD SET CCW TO INHIBIT LONG SEEK
000C16 4070 400A            0000A  1072+         STH   R7,10(0,R4) *
000C1A 5040 0048            00048  1073+         ST    R4,CMDADR-1 SET CCW-ADR IN CAW
000C1E 9506 5040      00040        1074+         CLI   LUBDSP,SYSRES REQUEST FOR SYSRES
000C22 4770 0C32            00C32  1075+         BNE   SEEKTEST
000C26 4870 B7E6            017E6  1076+         LH    R7,INHWADD SET UP CCW TO INHIBIT WRITE
000C2A 4070 400A            0000A  1077+         STH   R7,10(0,R4) *
000C2E 96F0 0C69      00C69        1078+         OI    NOPINS+1,X'F0' SUPPRESS EXTNT-CHECK
000C32 9140 6004      00004        1079+SEEKTEST TM    4(R6),X'40' IS COMMAND CHAINED           3-2
000C36 4710 0C42            00C42  1080+         BO    LGDD1 YES, BRANCH                  3-2
000C3A 940F C4FD      024FD        1081+LGD      NI    PCHKSW+1,X'0F' RELINQUISH PROG CHECK CONTROL3-2
000C3E 47F0 0A96            00A96  1082+         B     STRTIO 3-2
000C42 9507 6000      00000        1083+LGDD1    CLI   0(R6),X'07' IS THERE A LONG SEEK         3-2
000C46 4770 00A2            000A2  1084+         BNE   ERR33 NO, BRANCH                   3-2
000C4A D207 4000 6000 00000 00000  1085+LGDD     MVC   0(8,R4),0(R6) COPY USER'S SEEK TO CHAN-CHAIN
000C50 9508 6008      00008        1086+         CLI   8(R6),X'08' DOES USER TIC?
000C54 4770 0CF6            00CF6  1087+         BNE   NOTIC NO
000C58 5870 6008            00008  1088+         L     R7,8(0,R6) COPY USER'S TIC-ADDR
000C5C 5074 0010            00010  1089+STORE    ST    R7,16(R4) *
000C60 9208 4010      00010        1090+         MVI   16(R4),X'08' RESTORE TIC-CODE
000C64 4700 0D48            00D48  1091+NOPINSTR NOP   SYSFILE BRANCH IF DIB-CHECK INSTEAD OF JIB-CHECK
000C68 4700 0DDC            00DDC  1092+NOPINS   NOP   LGD1 BRANCH IF WRITE ALLOWED ON RES
000C6C 5876 0000            00000  1093+         L     R7,0(R6) POINT TO SEEK-AREA
000C70 1B66                        1094+         SR    R6,R6 INITIALIZE REGISTER
000C72 4187 0003            00003  1095+         LA    R8,3(R7) POINT TO 2311-CYLINDER
000C76 9561 3004      00004        1096+         CLI   PUBDEVTY,T2321 2321?
000C7A 4780 0CFE            00CFE  1097+         BE    DASD2321 YES
000C7E 9200 0CC7      00CC7        1098+         MVI   CLCINS+1,0 SET LENGTH FOR COMPARE-INSTR.
000C82 4360 5000            00000  1099+GETJIB   IC    R6,LUBID GET LUB-ENTRY
000C86 9501 1006      00006        1100+         CLI   CCBCLS,PRGLUNT PROGRAMER LOGICAL UNIT            3-9
000C8A 4780 0CB2            00CB2  1101+         BE    NOTCLB YES -- BRANCH                     3-9
       DOS SUPERVISOR-CHANNEL SCHEDULER,UNIT CK RTNS                                                           PAGE   29


  LOC  OBJECT CODE    ADDR1 ADDR2  STMT   SOURCE STATEMENT                                          FDOS CL3-10 03/29/70

000C8E 950B 1007      00007        1102+         CLI   CCBLNO,SYSCLB .     SYSCLB                           3-9
000C92 4770 0CB2            00CB2  1103+         BNE   NOTCLB .                 NO                          3-9
000C96 186F                        1104+         LR    R6,RF LOAD ID OF CALLER                      3-9
000C98 4A60 044A            0044A  1105+         AH    R6,PIBPT GET PIB ADDRESS             3-12
000C9C 5B60 0484            00484  1106+         S     R6,PIBDIFF GET PIB EXTENSION ADDRESS   3-12
000CA0 4866 000C            0000C  1107+         LH    R6,12(R6) GET MAINTASK ID             3-12
000CA4 8860 0003            00003  1108+         SRL   R6,THREE .          DIVIDE IT BY 8                   3-9
000CA8 1166                        1109+         LNR   R6,R6 .                  MAKE IT NEGATIVE            3-9
000CAA 4166 D4E0            034E0  1110+         LA    R6,CLBLUBS(R6) .    CALC ADDR OF CLB LUB             3-9
000CAE 47F0 0CBA            00CBA  1111+         B     GOTCLB .                 GO CHECK FOR JIB            3-9
000CB2                             1112+NOTCLB   EQU   * 3-9
000CB2 8960 0001            00001  1113+         SLL   R6,1 *
000CB6 4A60 043C            0043C  1114+         AH    R6,LUBPT *
000CBA                             1115+GOTCLB   EQU   * 3-9
000CBA 95FF 6001      00001        1116+         CLI   1(R6),X'FF' ANY JIB?
000CBE 4780 00A0            000A0  1117+         BE    ERR32 NO JIB
000CC2 4540 0D30            00D30  1118+         BAL   R4,JIBTYP FIND EXTNT-ENTRY IN JIB-CHAIN
000CC6 D500 8000 7000 00000 00000  1119+CLCINS   CLC   0(0,R8),0(R7) VALID EXTENT?
000CCC 4740 00A0            000A0  1120+         BL    ERR32 NO
000CD0 9500 0CC7      00CC7        1121+         CLI   CLCINS+1,0 MAYBE.  2311?
000CD4 4770 0CEA            00CEA  1122+         BNE   A2321 NO, IT IS 2321
000CD8 D500 8000 7001 00000 00001  1123+         CLC   0(1,R8),1(R7) VALID EXTENT?
000CDE 47D0 0DDC            00DDC  1124+TRYNXT   BNH   LGD1 YES
000CE2 4540 0D24            00D24  1125+         BAL   R4,TSTNXT FIND NEXT EXTNT-ENTRY IN
000CE6 47F0 0CC6            00CC6  1126+         B     CLCINS * JIB-CHAIN
000CEA 4540 0D24            00D24  1127+A2321    BAL   R4,TSTNXT FIND NEXT EXTNT IN JIB-CHAIN
000CEE 4400 0CC6            00CC6  1128+         EX    0,CLCINS VALID EXTENT?
000CF2 47F0 0CDE            00CDE  1129+         B     TRYNXT
000CF6 4170 6008            00008  1130+NOTIC    LA    R7,8(0,R6) ADDR OF USER'S SECOND CCW INTO
000CFA 47F0 0C5C            00C5C  1131+         B     STORE * CHANNEL-CHAIN TIC
000CFE 1B88                        1132+DASD2321 SR    R8,R8 INITIALIZE REGISTER
000D00 4387 0002            00002  1133+         IC    R8,2(R7) POINT TO 2321-SUBCELL
000D04 4C80 B816            01816  1134+         MH    R8,H10 PACK SUBCELL AND STRIP INTO
000D08 4367 0003            00003  1135+         IC    R6,3(R7) * CYLINDER-NUMBER
000D0C 1A86                        1136+         AR    R8,R6 *
000D0E 4280 B967            01967  1137+         STC   R8,MARSXT+1 SET UP BIN/CYL COMPARE FIELD
000D12 D200 B966 7001 01966 00001  1138+         MVC   MARSXT(1),1(R7) *
000D18 4180 B966            01966  1139+         LA    R8,MARSXT POINT TO 2321 COMPARE FIELD
000D1C 9201 0CC7      00CC7        1140+         MVI   CLCINS+1,1 SET LENGTH FOR COMPARE-INSTR.
000D20 47F0 0C82            00C82  1141+         B     GETJIB


                                   1143+*        SUBROUTINE TO SCAN JIB'S FOR EXTNT INFORMATION
                                   1144+*              R4      LINKREGISTER
                                   1145+*              R6      RELATIVE JIB DISPLACEMENT
                                   1146+*              R7      POINTS TO JIB-ENTRY


000D24 95FF 7003      00003        1148+TSTNXT   CLI   3(R7),X'FF' MORE JIB'S?
000D28 4780 00A0            000A0  1149+         BE    ERR32 NO
000D2C 4167 0002            00002  1150+         LA    R6,2(R7) GET CHAIN POINTER
       DOS SUPERVISOR-CHANNEL SCHEDULER,UNIT CK RTNS                                                           PAGE   30


  LOC  OBJECT CODE    ADDR1 ADDR2  STMT   SOURCE STATEMENT                                          FDOS CL3-10 03/29/70

000D30 1B77                        1151+JIBTYP   SR    R7,R7 GET NEW JIB-ENTRY
000D32 4376 0001            00001  1152+         IC    R7,1(R6) *
000D36 8970 0002            00002  1153+         SLL   R7,2 *
000D3A 4A70 0434            00434  1154+         AH    R7,COMREG+68 *
000D3E 9130 7002      00002        1155+         TM    2(R7),X'30' EXTNT ENTRY?
000D42 47A0 0D24            00D24  1156+         BC    10,TSTNXT NO
000D46 07F4                        1157+         BR    R4 RETURN


000D48                             1159+SYSFILE  EQU   *
000D48 4B80 044A            0044A  1160+         SH    R8,PIBPT GET CORRECT PIC
000D4C 4878 D4E0            034E0  1161+         LH    R7,PIB2AD(R8) GET CORRECT COMREG
000D50 4160 0D82            00D82  1162+         LA    R6,SYSFILE1 SET LINK-REG
000D54                             1163+SYSFILE2 EQU   *
000D54 4877 0060            00060  1164+         LH    R7,96(R7) GET DIB START ADDRESS
000D58 9502 5040      00040        1165+         CLI   LUBDSP,SYSPCH DETERMINE LOGICAL UNIT
000D5C 4780 0D78            00D78  1166+         BE    PCHDIB SYSPCH..
000D60 4720 0D74            00D74  1167+         BH    LSTDIB SYSLST..
000D64 4188 D5E0            035E0  1168+         LA    R8,PIBTAB(R8) RE-ADDRESS PIB TABLE
000000                             1169+         USING PIBADR,R8
000D68 9120 800F      0000F        1170+         TM    PIBFLG2,JOBDUN WAS /& READ
                                   1171+         DROP  R8
000D6C 4710 009C            0009C  1172+         BO    ERR30 YES.. CANCEL JOB
000D70 47F0 0D7C            00D7C  1173+         B     INDIB NO.. GET SYSIN DIB
                                   1174+*        FIND APPROPRIATE DIB-ENTRY USING LA-TABLE
000D74 4177 0018            00018  1175+LSTDIB   LA    R7,DIBLGT(R7) GET SYSLST DIB
000D78 4177 0018            00018  1176+PCHDIB   LA    R7,DIBLGT(R7) GET SYSPCH DIB
000D7C 4187 0018            00018  1177+INDIB    LA    R8,DIBLGT(R7) GET SYSIN DIB
000D80 07F6                        1178+         BR    R6 RETURN TO CALLER
000000                             1179+         USING DIB,R8
000D82 D506 8000 800A 00000 0000A  1180+SYSFILE1 CLC   CURAD(7),ENDAD LIMITS EXCEEDED?
000D88 4720 00A0            000A0  1181+         BH    ERR32 YES. CANCEL
000D8C D202 0049 1009 00049 00009  1182+         MVC   SAVERG+1(3),CCBCCW
000D92 5860 0048            00048  1183+         L     R6,SAVERG
000D96 5876 0008            00008  1184+         L     R7,8(R6) POINT TO SEARCH AREA
000D9A D204 B968 7000 01968 00000  1185+         MVC   SRCHBCKT,0(R7) PICK UP USER'S SEARCH-BUCKET
000DA0 9502 5040      00040        1186+         CLI   LUBDSP,SYSPCH SYSIN
000DA4 4740 0DD0            00DD0  1187+         BL    SYSIN YES
000DA8 4340 B96C            0196C  1188+         IC    R4,SRCHBCKT+4 CHECK RECORD REFERENCE TO BE
000DAC 4144 0001            00001  1189+         LA    R4,1(R4) * ONE LESS THAN CURAD
000DB0 4240 B96C            0196C  1190+         STC   R4,SRCHBCKT+4 *
000DB4 D504 B968 8002 01968 00002  1191+CORREC   CLC   SRCHBCKT,CURAD+2 *
000DBA 4770 00A0            000A0  1192+         BNE   ERR32 INCORRECT RECORD REFERENCE
000DBE 5876 0018            00018  1193+         L     R7,3*8(R6) POINT TO COUNT-FIELD OF WCKD
000DC2 D507 8002 7000 00002 00000  1194+         CLC   CURAD+2(8),0(R7) VALIDATE COUNT-FIELD
000DC8 4770 00A0            000A0  1195+         BNE   ERR32 INVALID. CANCEL
000DCC 47F0 0DDC            00DDC  1196+         B     LGD1
000DD0 4400 0DB4            00DB4  1197+SYSIN    EX    0,CORREC CORRECT RECORD REFERENCE?
000DD4 4770 00A0            000A0  1198+         BNE   ERR32 NO,CANCEL
000DD8 47F0 0C3A            00C3A  1199+         B     LGD
                                   1200+         DROP  R8
       DOS SUPERVISOR-CHANNEL SCHEDULER,UNIT CK RTNS                                                           PAGE   31


  LOC  OBJECT CODE    ADDR1 ADDR2  STMT   SOURCE STATEMENT                                          FDOS CL3-10 03/29/70

                                   1201+*
000DDC 940F C4FD      024FD        1202+LGD1     NI    PCHKSW+1,X'0F' RELINQUISH PROG CHECK CNTRL
000DE0 47F0 0A9C            00A9C  1203+         B     STRTIO1
                                   1204+*
000DE4                             1205+STMODE   EQU   * 3-6
000DE4 9501 5040      00040        1206+         CLI   LUBDSP,SYSIPT IS UNIT SYSRDR OR SYSIPT     3-6
000DE8 4720 0DF4            00DF4  1207+         BH    STMODE1 NO                           3-6
000DEC 9120 3006      00006        1208+         TM    PUBCSFLG,JOBDUN READING PAST /&              3-6
000DF0 4710 009C            0009C  1209+         BO    ERR30 YES,CANCEL                   3-6
000DF4 D200 B770 3005 01770 00005  1210+STMODE1  MVC   STMCCW(1),PUBOPTN PUT SET MODE CMND IN CCW     3-6
000DFA D202 0049 1009 00049 00009  1211+         MVC   CMDADR(3),CCBCCW 3-11
000E00 5870 0048            00048  1212+         L     R7,CMDADR-1 3-9
000E04 1B88                        1213+         SR    R8,R8 3-9
000E06 4380 3003            00003  1214+         IC    R8,PUBERR GET TEB NO. FOR THIS TAPE    3-9
000E0A 4C80 B786            01786  1215+         MH    R8,TEBWIT CALCULATE TEB ADDR           3-9
000E0E 4A80 0436            00436  1216+         AH    R8,TEBPT 3-9
000000                             1217+         USING TEBADR,R8 3-9
000E12 9500 8000      00000        1218+         CLI   TEBERRCT,X'00' IN ERP?                      3-9
                                   1219+         DROP  R8 3-9
000E16 4770 0AA0            00AA0  1220+         BNE   STRTI2 YES, DON'T CHAIN MODE SET    3-9
000E1A                             1221+STMODE2  EQU   * 3-9
000E1A 9504 7000      00000        1222+         CLI   0(R7),SNSCMD IS IT SENSE                   3-4
000E1E 4170 B770            01770  1223+         LA    R7,STMCCW 3-4
000E22 4780 0E44            00E44  1224+         BE    LOGPRC2 YES                             3-4
000E26 47F0 0E40            00E40  1225+         B     LOGPRC1
                                   1226+*
000E2A                             1227+LOGPRC   EQU   * 3-9
000E2A 9105 5020      00020        1228+         TM    REQID,X'05' REQUESTOR TYPING ID              3-9
000E2E 4770 0A96            00A96  1229+         BNZ   STRTIO YES, RETURN TO SIO               3-9
000E32 4570 B26C            0126C  1230+         BAL   R7,GETPIB GET PIB ADDR
000000                             1231+         USING PIBADR,R8
000E36 D201 B758 8002 01758 00002  1232+         MVC   IDOUT(2),PIBLOGID PUT SYSLOG ID IN OUTPUT AREA
                                   1233+         DROP  R8
000E3C 4170 B760            01760  1234+         LA    R7,CSCHDCCW PUT CCW ADDR IN CAW
000E40 5070 0048            00048  1235+LOGPRC1  ST    R7,CMDADR-1
000E44 D202 7009 1009 00009 00009  1236+LOGPRC2  MVC   9(3,R7),CCBCCW SET TIC ADD TO USER CHAN     3-4
000E4A 47F0 0AA0            00AA0  1237+         B     STRTI2 3-5
                                   1238+         DROP  R3,R4,R5
       DOS SUPERVISOR-CHANNEL SCHEDULER,UNIT CK RTNS                                                           PAGE   32


  LOC  OBJECT CODE    ADDR1 ADDR2  STMT   SOURCE STATEMENT                                          FDOS CL3-10 03/29/70

                                   1240+*   I/O INTERRUPT ROUTINE
                                   1241+*      REGISTER USAGE
                                   1242+*         R1   CCB ADDR
                                   1243+*         R2   CHANNEL AND DEVICE NO.
                                   1244+*         R3   PUB ADDR
                                   1245+*         R4   CHANNEL QUE ENTRY ADDR
                                   1246+*         R5   LUBID ENTRY ADDR
                                   1247+*         R6   WORK REG
                                   1248+*         R7   LINK AND WORK REG
                                   1249+*         R9   EXIT REG
000E4E 4190 025A            0025A  1250+INTRTN   LA    R9,EXT01 SET EXIT REG
000E52 9106 0045      00045        1251+         TM    CHNSTA,CHNCHK WAS INTERR A CHANN FAILURE
000E56 4770 B640            01640  1252+         BC    7,CHFAIL1
000E5A 94FD 0039      00039        1253+         NI    CHNADR-1,255-WAITBT1 RESET WAIT BIT IN PSW
000E5E 4170 0E7C            00E7C  1254+         LA    R7,GETCHQ SET UP LINK REGISTER              3-7
000E62 1B22                        1255+SETREG   SR    R2,R2 LOAD CHANNEL PUB TABLE INDEX      3-7
000E64 4320 003A            0003A  1256+         IC    R2,CHNADR
000E68 4322 D639            03639  1257+         IC    R2,CHNIDX(R2)
000E6C 4832 D6E0            036E0  1258+         LH    R3,CHNPUBST(R2) LD PUB ADDR OF LAST PUB STARTED
000000                             1259+         USING PUBADR,R3
000E70 D500 3001 003B 00001 0003B  1260+         CLC   PUBDEVNO(1),DEVADR IS INTERR FROM LAST PUB STARTED
000E76 0787                        1261+         BCR   E,R7 CONTINUE                          3-7
000E78 47F0 B20C            0120C  1262+         B     INTPUBSC NO,POINT R3 TO OTHER PUB          3-7
000E7C 4570 B0FA            010FA  1263+GETCHQ   BAL   R7,CQDSP GET CHANN QUE ENTRY
000000                             1264+         USING CHQADR,R4
000000                             1265+         USING LUBADR,R5 *****
000000                             1266+         USING CCBADR,R1
000E80 9180 04A0      004A0        1267+         TM    AOLTAB,OLTAC OLTEP                       3-11
000E84 4780 0EAC            00EAC  1268+         BZ    NOLTP NO                          3-11
000E88 95FF 3002      00002        1269+         CLI   PUBCHQPT,NULL IS THERE A CCB               3-9
000E8C 4780 0EAC            00EAC  1270+         BE    NOLTP NO, NOT AN OLTEP INTERRUPT       3-9
000E90 9104 100C      0000C        1271+         TM    CCBBY3,OLTP OLTEP REQUEST                    3-9
000E94 47E0 0EAC            00EAC  1272+         BNO   NOLTP NO                               3-9
000E98 D202 B751 100D 01751 0000D  1273+OLTPMOVE MVC   OLTSAV+ONE(L3),CCBCSWW MOVE APPNDAGE ADDR TO FWD    3-9
000E9E 5880 B750            01750  1274+         L     R8,OLTSAV 3-9
000EA2 0578                        1275+         BALR  R7,R8 GO TO OLTEP APPENDAGE            3-9
000EA4 47F0 0EAC            00EAC  1276+         B     APNRT RETURN FROM OLTEP APPENDAGE      3-9
000EA8 47F0 B036            01036  1277+         B     PURGE GO DEQUE INTERRUPT AFTER DE      3-9
000EAC                             1278+NOLTP    EQU   * 3-9
000EAC                             1279+APNRT    EQU   * 3-9
000EAC 91FF 3002      00002        1280+DISWHY   TM    PUBCHQPT,X'FF' IS THERE A CCB?
000EB0 4710 0EFE            00EFE  1281+         BO    TSTUCK NO,TEST FOR UNIT CHECK
000EB4 9140 100C      0000C        1282+         TM    CCBBY3,APNDGE IS THERE AN APPENDAGE RTN?
000EB8 4780 0EFE            00EFE  1283+         BZ    TSTUCK NO
000000                             1284+         USING PIBADR,R8 3-9
000EBC 4570 B26C            0126C  1285+         BAL   R7,GETPIB POINT R8 AT TASK'S PIB       3-9
000EC0 9140 800C      0000C        1286+         TM    PIBPUBAS,APPALL IS CH. APPENDAGE ALLOWED?
                                   1287+         DROP  R8
000EC4 47E0 0EFE            00EFE  1288+         BC    14,TSTUCK NO,IGNORE APPENDAGE REQUEST
000EC8 D202 0049 100D 00049 0000D  1289+         MVC   SAVERG+1(3),CCBCSWW GET ADDR OF APPENDAGE RTN
000ECE 5870 0048            00048  1290+         L     R7,SAVERG 3-9
       DOS SUPERVISOR-CHANNEL SCHEDULER,UNIT CK RTNS                                                           PAGE   33


  LOC  OBJECT CODE    ADDR1 ADDR2  STMT   SOURCE STATEMENT                                          FDOS CL3-10 03/29/70

000ED2 4177 0000            00000  1291+         LA    R7,0(R7) CLEAR HIGH ORDER BYTE        3-9
000ED6 5970 0420            00420  1292+         C     R7,EOCADR IS ADDR GR THAN HIGH CORE    3-9
000EDA 47D0 0EF6            00EF6  1293+         BNH   USRAPPEN NO, BRANCH                   3-9
000EDE 9500 8001      00001        1294+         CLI   1(R8),X'00' IS PARTITION CANCELING       3-9
000EE2 4770 01AC            001AC  1295+         BNE   EXT03 YES, IGNORE ERROR            3-9
000EE6 4080 004A            0004A  1296+         STH   R8,SAVERG+2 SAVE REQUESTOR'S PIB ADDR    3-9
000EEA 4570 0178            00178  1297+         BAL   R7,SVEREG SAVE INTERRUPTED PGM'S REGS  3-9
000EEE 48A0 004A            0004A  1298+         LH    RA,SAVERG+2 LOAD REQUESTOR'S PIB         3-9
000EF2 47F0 00DE            000DE  1299+         B     ERR25 CANCEL                       3-9
000EF6 1887                        1300+USRAPPEN LR    R8,R7 3-9
000EF8 0578                        1301+         BALR  R7,R8 GO TO USER'S APPENDAGE RTN
000EFA 47F0 0FD6            00FD6  1302+         B     TPBSYTST RETURN TO SKIP CSW-PROC. TO D.E 3-11
000EFE D501 0044 B74C 00044 0174C  1303+TSTUCK   CLC   DEVSTA(2),CENDDEND PURE CE DE                   3-4
000F04 4780 B114            01114  1304+         BE    CHNDRT YES                              3-4
000F08 D501 0044 B74E 00044 0174E  1305+         CLC   DEVSTA(2),CHANEND PURE CE                    3-4
000F0E 4780 B114            01114  1306+         BE    CHNDRT YES                               3-4
000F12 9102 0044      00044        1307+         TM    DEVSTA,UC 3-4
000F16 4780 0F42            00F42  1308+         BZ    TESTCHN .               NO, GO TEST CHANNEL STATUS   3-8
000F1A 9180 3006      00006        1309+         TM    PUBCSFLG,DEVBSY .       IS THE DEVICE BUSY           3-8
000F1E 4710 B2CC            012CC  1310+         BO    UNTCK2 .                YES, GO TO UNIT CHECK        3-8
000F22 95FF 3002      00002        1311+         CLI   PUBCHQPT,X'FF' .        IS THERE A CHANNEL QUE ENTRY 3-8
000F26 4770 B2CC            012CC  1312+         BNE   UNTCK2 .                YES, GO TO UNIT CHECK        3-8
000F2A 9562 3004      00004        1313+         CLI   PUBDEVTY,T2314 IS DEVICE A 2314            3-10
000F2E 4770 0F36            00F36  1314+         BNE   TST3277 NO, TEST FOR 3277           3-12
000F32 4570 B4A4            014A4  1315+         BAL   R7,EXSNS YES, CLEAR SENSE            3-12
000F36 95B0 3004      00004        1316+TST3277  CLI   PUBDEVTY,T3277 IS DEVICE A 3277            3-12
000F3A 4770 0F42            00F42  1317+         BNE   TESTCHN NO, IGNORE THE UNIT CHECK   3-10
000F3E 4570 B4A4            014A4  1318+         BAL   R7,EXSNS YES, GO CLEAR SENSE FIRST   3-10
000F42 9139 0045      00045        1319+TESTCHN  TM    CHNSTA,PRGPRT+CHDTA+CHCHN TEST FOR CHANNEL ERRORS    3-8
000F46 4770 B2C0            012C0  1320+         BNZ   UNTCK1 .                GO TO UNIT CHECK             3-8
000F4A 4160 0F78            00F78  1321+TSTATTN  LA    R6,CHEND GET BRANCH ADDR                   3-8
000F4E 9180 0044      00044        1322+         TM    DEVSTA,ATTENT ATTENTION                         3-8
000F52 0786                        1323+         BCR   Z,R6 NO                                3-8
000F54 9604 0044      00044        1324+         OI    DEVSTA,DE SET DVC END
000F58 910A 0429      00429        1325+         TM    JCSW2,RALOC1+SUPUPDAT RE-ALLOC OR SUPVR UPDATE
000F5C 0776                        1326+         BCR   NZ,R6 YES, IGNORE                       3-8
000F5E 9500 3004      00004        1327+         CLI   PUBDEVTY,T1050A IS DEVICE A 1052
000F62 0776                        1328+         BCR   NE,R6 NO                                3-8
000F64 9610 D628      03628        1329+         OI    PIBAR+8,PTAFTCH 3-2
000F68 9589 D620      03620        1330+         CLI   PIBAR,X'89' WAITING TO FETCH                       3-9
000F6C 4780 0F74            00F74  1331+         BE    IDRATTN YES, BRANCH                            3-9
000F70 9603 D620      03620        1332+TSTATTN2 OI    PIBAR,X'03' ATTACH ATTENTION ROUTINE               3-5
000F74                             1333+IDRATTN  EQU   * 3-9
000F74 4190 01AC            001AC  1334+         LA    R9,EXT03
000F78 9110 0044      00044        1335+CHEND    TM    DEVSTA,BUSY
000F7C 4710 0FD6            00FD6  1336+         BO    TPBSYTST BR ON BUSY STATUS          3-11
000F80 9500 0044      00044        1337+         CLI   DEVSTA,0 ANY DEVICE STATUS
000F84 4770 0FCC            00FCC  1338+         BNE   CHEND1 3-8
000F88 9180 0045      00045        1339+         TM    CHNSTA,X'80' ON ZERO UNIT STATUS, TST IF PCI PRESNT
000F8C 0789                        1340+         BCR   Z,R9 EXIT IF PCI BIT IS NOT ON
                                   1341+*WHEN PCI BIT IS ON WITH ZERO UNIT STATUS, EXIT TO TASK SELECTOR
       DOS SUPERVISOR-CHANNEL SCHEDULER,UNIT CK RTNS                                                           PAGE   34


  LOC  OBJECT CODE    ADDR1 ADDR2  STMT   SOURCE STATEMENT                                          FDOS CL3-10 03/29/70

                                   1342+*IS REQUESTED WITH NO DEQUEUING OF CCB, NOR RESCHEDULING OF CHANNEL
000F8E 95FF 3002      00002        1343+         CLI   PUBCHQPT,X'FF' IS THERE A CCB              3-11
000F92 0789                        1344+         BCR   E,R9 NO,RETURN                   3-11
000F94 4570 B26C            0126C  1345+         BAL   R7,GETPIB GET ADDRESS OF REQUESTOR'S PIB
000000                             1346+         USING PIBADR,R8
000F98 5B80 0484            00484  1347+         S     R8,PIBDIFF POINT TO PIBEXT OF INTRPT OWNER        3-11
000F9C 5BA0 0484            00484  1348+         S     RA,PIBDIFF POINT TO PIBEXT OF INTRPT'D TASK       3-11
000FA0 D501 8006 A006 00006 00006  1349+         CLC   6(2,R8),6(RA) COMPARE PRIORITIES                  3-11
000FA6 47B0 0FAE            00FAE  1350+         BNL   RESWAIT LEAVE R9 POINTING AT EXT01             3-11
000FAA 4190 01AC            001AC  1351+         LA    R9,EXT03 POINT R9 TO TASK SELECTION             3-11
000FAE 5A80 0484            00484  1352+RESWAIT  A     R8,PIBDIFF RESTORE PIB POINTERS                   3-11
000FB2 5AA0 0484            00484  1353+         A     RA,PIBDIFF 3-11
000FB6 9601 8000      00000        1354+         OI    PIBFLG,NOTSVC7 SET REQUESTOR IS NOT SVC BOUND      3-11
                                   1355+         DROP  R8
000FBA 95C0 3004      00004        1356+         CLI   PUBDEVTY,T2260 IS IT 2260                   3-4
000FBE 4780 B0D2            010D2  1357+         BE    INITRG YES GO TO CHANNEL SCHED          3-4
000FC2 95B0 3004      00004        1358+         CLI   PUBDEVTY,T3277 IS IT 3277                       3-10
000FC6 4780 B0D2            010D2  1359+         BE    INITRG YES, GOTO CHANNEL SCHEDULER      3-10
000FCA 07F9                        1360+         BR    R9
000FCC                             1361+CHEND1   EQU   * ENTER HERE ON A NON ZERO UNIT STATUS
000FCC D602 0041 0041 00041 00041  1362+         OC    CCWDRS(3),CCWDRS TST FOR LOGICAL CHANN END
000FD2 4770 B114            01114  1363+         BNZ   CHNDRT BR IF NON-ZERO ADDR IN CSW
000FD6                             1364+TPBSYTST EQU   * SAME AS CEDETST IF TP=NO         3-11
000FD6 95D1 3004      00004        1365+         CLI   PUBDEVTY,T2702 3-4
000FDA 4780 0FE6            00FE6  1366+         BE    BZTPDEV 3-12
000FDE 95D3 3004      00004        1367+         CLI   PUBDEVTY,T7770 IS DEVICE A 7770           3-12
000FE2 4770 0FEE            00FEE  1368+         BNE   CEDETST 3-4
000FE6                             1369+BZTPDEV  EQU   * 3-12
000FE6 9570 0044      00044        1370+         CLI   DEVSTA,STATMOD+BUSY+CUE 3-4
000FEA 4780 B004            01004  1371+         BE    NOTBSY 3-11
000FEE 9104 0044      00044        1372+CEDETST  TM    DEVSTA,DE CTL UNIT END OR DEV END
000FF2 4770 B004            01004  1373+         BC    NZ,NOTBSY BR IF EITHER
000FF6 9550 0044      00044        1374+         CLI   DEVSTA,STATMOD+BUSY CTL UNIT BUSY
000FFA 4770 B0D2            010D2  1375+         BNE   INITRG NO                                     3-9
000FFE 9477 3006      00006        1376+         NI    PUBCSFLG,X'FF'-DEVBSY-OPINTV RESET BUSY STATUS FLAG 3-9
001002 07F9                        1377+         BR    R9 3-9
                                   1378+*
001004 9477 3006      00006        1379+NOTBSY   NI    PUBCSFLG,255-DEVBSY-OPINTV RESET BUSY STATUS FLAGS
001008 9104 3006      00006        1380+         TM    PUBCSFLG,POSTDE IS DEVICE END POSTING DESIRED
00100C 4780 B0AC            010AC  1381+         BZ    SELECT NO
001010 D601 1004 0044 00004 00044  1382+         OC    CCBSTA1(2),DEVSTA POST CSW STATUS TO CCB
001016 9473 3006      00006        1383+TRNOFF   NI    PUBCSFLG,255-DEVBSY-POSTDE-OPINTV RESET CS PUB FLGS
00101A 9180 100C      0000C        1384+TSTERF   TM    CCBBY3,ERRTIN IS PIOCS ERR RTN OPERATING
00101E 4710 B036            01036  1385+         BO    PURGE YES
001022 9550 3004      00004        1386+         CLI   PUBDEVTY,T2400 IS DEVICE TAPE
001026 4780 B256            01256  1387+         BE    CLRTEB YES
00102A 9551 3004      00004        1388+         CLI   PUBDEVTY,T2495TC IS DEVICE                        3-3
00102E 4780 B256            01256  1389+         BE    CLRTEB 2495 TCR                              3-3
001032 9200 3003      00003        1390+         MVI   PUBERR,0 RESET RETRY COUNTER
001036 9680 1002      00002        1391+PURGE    OI    CCBCOM1,TRABIT POST THE CCB
00103A 4570 B26C            0126C  1392+         BAL   R7,GETPIB GET ADDR OF REQSTOR PIB
       DOS SUPERVISOR-CHANNEL SCHEDULER,UNIT CK RTNS                                                           PAGE   35


  LOC  OBJECT CODE    ADDR1 ADDR2  STMT   SOURCE STATEMENT                                          FDOS CL3-10 03/29/70

000000                             1393+         USING PIBADR,R8
00103E 5B80 0484            00484  1394+         S     R8,PIBDIFF POINT TO PIBEXT OF INTPT OWNER   3-3
001042 5BA0 0484            00484  1395+         S     RA,PIBDIFF POINT TO PIBEXT OF INTPT TASK    3-3
001046 D501 8006 A006 00006 00006  1396+         CLC   6(2,R8),6(RA) COMPARE PRIORITIES               3-3
00104C 47B0 B054            01054  1397+         BNL   *+8 LEAVE R9 POINTING AT EXT01       3-3
001050 4190 01AC            001AC  1398+         LA    R9,EXT03 POINT R9 TO TASK SELECTION       3-3
001054 5AA0 0484            00484  1399+         A     RA,PIBDIFF RESET PIB POINTER                3-3
001058 5A80 0484            00484  1400+         A     R8,PIBDIFF RESET PIB POINTER                 3-3
00105C                             1401+RSETWAIT EQU   * 3-9
00105C 9580 8000      00000        1402+         CLI   PIBFLG,FLG80 IS MAIN TASK WAITING FOR SUBTASKS3-9
001060 4780 B068            01068  1403+         BE    NRSTWAIT TO FINISH CANCELLING             3-9
001064 9601 8000      00000        1404+         OI    PIBFLG,NOTSVC7 SET REQUESTOR NOT I/O BOUND      3-9
001068                             1405+NRSTWAIT EQU   * 3-9
                                   1406+         DROP  R8
001068                             1407+NOSO1    EQU   * 3-2
001068 92FF 5020      00020        1408+         MVI   REQID,X'FF' RESET REQSTOR ID FOR CHN Q ENT
00106C 92FF 5060      00060        1409+         MVI   TKREQID,X'FF' RESET TASK REQ ID                 3-3
001070 4370 3002            00002  1410+         IC    R7,PUBCHQPT SAVE CHAIN PTER FROM PUB
001074 D200 3002 4000 00002 00000  1411+         MVC   PUBCHQPT(1),CHQCHAIN MAKE NEXT REQST 1ST ON PUB QUE
00107A D200 4000 09CF 00000 009CF  1412+         MVC   CHQCHAIN(1),FLPTR INSERT CHANN QUE ENTRY AT HEAD
001080 4270 09CF            009CF  1413+         STC   R7,FLPTR OF FREE LIST
001084 9110 3006      00006        1414+         TM    PUBCSFLG,QEDERR QUED ERROR?                 3-7
001088 4780 B0AC            010AC  1415+         BZ    SELECT NO MICR, GO TO SELECT                  3-7
00108C 4870 B97E            0197E  1416+         LH    R7,ERQPTR ADDR LAST ENTRY            3-7
000000                             1417+         USING ERRQUE,R7 3-7
001090 4930 7008            00008  1418+DEQUELP  CH    R3,ERQPUB ENTRY SAME AS THIS PUB?    3-7
001094 4770 B09C            0109C  1419+         BNE   *+8 NO                         3-7
001098 9602 700A      0000A        1420+         OI    ERQFLG,X'02' TURN ON NO CCB BIT         3-7
00109C 4B70 D64A            0364A  1421+         SH    R7,ENTLEN BACKUP ONE ENTRY           3-7
0010A0 4970 B970            01970  1422+         CH    R7,ERRQ IS THIS ALL ENTRIES?       3-7
0010A4 4740 B0AC            010AC  1423+         BL    SELECT NO MICR DEVICE  GO TO SELECT           3-7
0010A8 47F0 B090            01090  1424+         B     DEQUELP LOOP UNTIL DONE            3-7
                                   1425+         DROP  R7 3-7
0010AC                             1426+SELECT   DS    0H SELECT LOOP
0010AC 9500 3000      00000        1427+         CLI   PUBCHANN,MPX IS THIS THE MULTIPLEXOR CHANN
0010B0 4770 B0D2            010D2  1428+         BNE   INITRG NO
0010B4 95FF 3002      00002        1429+         CLI   PUBCHQPT,X'FF' ANY REQUESTS ON MPX CHANN    3-7
0010B8 4780 B0C4            010C4  1430+         BE    SELBMX NO
0010BC 9198 3006      00006        1431+         TM    PUBCSFLG,DEVBSY+QEDERR+OPINTV DEVICE AVIALABLE
0010C0 4780 B0F6            010F6  1432+         BZ    INITSIO YES
0010C4 95C0 3004      00004        1433+SELBMX   CLI   PUBDEVTY,T2260
0010C8 4780 B0D2            010D2  1434+         BE    TYPA2260 YES, BRANCH                      3-10
0010CC 95B0 3004      00004        1435+         CLI   PUBDEVTY,T3277 3277                             3-10
0010D0 0779                        1436+         BCR   NE,R9 NO, EXIT                         3-10
0010D2                             1437+TYPA2260 EQU   * 3-10
0010D2 4832 D6E0            036E0  1438+INITRG   LH    R3,CHNPUBST(R2) LD ADDR OF LAST PUB STARTED
0010D6 D200 B0E3 003A 010E3 0003A  1439+         MVC   CHNTSTD(1),CHNADR SET CHANN NO. IN CLI INSTR
0010DC 0570                        1440+         BALR  R7,0 LD START ADDR OF LOOP
0010DE 4133 0008            00008  1441+         LA    R3,PUBWIT(R3) INCR PTER TO PUB
0010E2 9500 3000      00000        1442+CHNTST   CLI   PUBCHANN,0 IS PTER PAST CHANN PUBS
0010E3                             1443+CHNTSTD  EQU   CHNTST+1 IMMEDIATE DATA MODIFIED
       DOS SUPERVISOR-CHANNEL SCHEDULER,UNIT CK RTNS                                                           PAGE   36


  LOC  OBJECT CODE    ADDR1 ADDR2  STMT   SOURCE STATEMENT                                          FDOS CL3-10 03/29/70

0010E6 4720 B238            01238  1444+         BH    INITCHN1 YES
0010EA 95FF 3002      00002        1445+         CLI   PUBCHQPT,X'FF' IS ANY REQST QUED FOR DEVICE
0010EE 0787                        1446+         BCR   E,R7 NO
0010F0 9198 3006      00006        1447+TSTQEF   TM    PUBCSFLG,DEVBSY+QEDERR+OPINTV DEVICE AVAILABLE
0010F4 0777                        1448+         BCR   NZ,R7 NO
0010F6 4170 0A2C            00A2C  1449+INITSIO  LA    R7,GIOADR LD SUBROUTINE EXIT ADDR
0010FA 1B55                        1450+CQDSP    SR    R5,R5 LD CHANN QUE ENTRY NO.FROM PUB
0010FC 4350 3002            00002  1451+         IC    R5,PUBCHQPT
001100 4145 5000            00000  1452+MVQPTR   LA    R4,0(R5,R5) CALC CHANN QUE ENTRY ADDR
001104 1A44                        1453+         AR    R4,R4
001106 4A40 B978            01978  1454+         AH    R4,YCHANQ 3-8
00110A 4A50 045C            0045C  1455+         AH    R5,LUBIDQ CALC ADDR OF LUBID ENTRY
00110E 5810 4000            00000  1456+         L     R1,CHQCCBAD-1 LD CCB ADDR
001112 07F7                        1457+         BR    R7


                                   1459+*      CHANNEL END ROUTINE
000000                             1460+         USING LUBADR,R5 *****
001114 95FF 3002      00002        1461+CHNDRT   CLI   PUBCHQPT,X'FF' IS THERE A CCB                    3-9
001118 4780 B0AC            010AC  1462+         BE    SELECT NO, SKIP                          3-9
00111C D201 1000 0046 00000 00046  1463+         MVC   CCBCNT(2),CSWCNT PUT RESIDUAL COUNT IN CCB         3-9
001122 9144 100C      0000C        1464+         TM    CCBBY3,X'44' TP OR OLTEP APPENDAGE        3-9
001126 4770 B130            01130  1465+         BNZ   POSTCE YES                          3-9
00112A D202 100D 0041 0000D 00041  1466+         MVC   CCBCSWW(3),CCWDRS PUT ADDR OF NEXT CCW IN CCB
001130 D601 1004 0044 00004 00044  1467+POSTCE   OC    CCBSTA1(2),DEVSTA POST CSW STATUS TO CCB
001136 9503 5040      00040        1468+         CLI   LUBDSP,SYSLST SYSIN/OUT
00113A 4720 B198            01198  1469+         BH    SYSFILE3 NO
00113E D300 D638 3004 03638 00004  1470+         MVZ   DEVZON,PUBDEVTY SAVE DEVICE CLASS
001144 9560 D638      03638        1471+         CLI   DEVZON,T2311 DASD..
001148 4770 B198            01198  1472+         BNE   SYSFILE3 NO
00114C 4570 B26C            0126C  1473+         BAL   R7,GETPIB GET CORRECT PIB ADDRESS
001150 4B80 044A            0044A  1474+         SH    R8,PIBPT GET CORRECT PIK
001154 4878 D4E0            034E0  1475+         LH    R7,PIB2AD(R8) GET CORRECT COMREG
0003F0                             1476+         USING COMREG,R7
001158 9140 7038      00428        1477+         TM    JCBYT1,X'40' IS IT DURING OPEN
                                   1478+         DROP  R7
00115C 4710 B198            01198  1479+         BC    1,SYSFILE3 YES BYPASS DIB UPDATE
001160 4560 0D54            00D54  1480+         BAL   R6,SYSFILE2 GET APPROPRIATE DIB ENTRY
000000                             1481+         USING DIB,R8
001164 4160 8006            00006  1482+         LA    R6,CURAD+6 GET ADDR OF R IN CURAD
001168 D500 8006 8010 00006 00010  1483+         CLC   CURAD+6(1),MAXREC ALL BLOCKS ON TRACK READ?
00116E 4770 B18C            0118C  1484+         BNE   ADD NO
001172 9201 8006      00006        1485+         MVI   CURAD+6,1 INSERT RECORD ADDR OF 1
001176 0660                        1486+         BCTR  R6,0 GET ADDR OF H IN CURAD
001178 D500 8005 8011 00005 00011  1487+         CLC   CURAD+5(1),UL ALL TRACKS IN CYL READ?
00117E 4770 B18C            0118C  1488+         BNE   ADD NO
001182 D200 8005 8012 00005 00012  1489+         MVC   CURAD+5(1),LL INSERT LOWER HEAD LIMIT
001188 4160 8003            00003  1490+         LA    R6,CURAD+3 GET ADDR OF C IN CURAD
00118C 4370 6000            00000  1491+ADD      IC    R7,0(0,R6) UPDATE RECORD,TRACK OR CYLINDER
001190 4170 7001            00001  1492+         LA    R7,1(0,R7) * ADDRESS BY 1
001194 4270 6000            00000  1493+         STC   R7,0(0,R6) *
       DOS SUPERVISOR-CHANNEL SCHEDULER,UNIT CK RTNS                                                           PAGE   37


  LOC  OBJECT CODE    ADDR1 ADDR2  STMT   SOURCE STATEMENT                                          FDOS CL3-10 03/29/70

                                   1494+         DROP  R8
001198 9501 5040      00040        1495+SYSFILE3 CLI   LUBDSP,SYSIPT IS UNIT SYSRDR OR SYSIPT
00119C 4720 B1EA            011EA  1496+         BH    DEALSO NO
0011A0 5870 0040            00040  1497+         L     R7,CSW
0011A4 4B70 B814            01814  1498+         SH    R7,H8
0011A8 D502 7001 0421 00001 00421  1499+         CLC   1(3,R7),EOCADR+1 DATA ADDRESS IN CORE         3-7
0011AE 4720 B1EA            011EA  1500+         BH    DEALSO NO, DO NOT TEST /* OR /&     3-7
0011B2 5877 0000            00000  1501+         L     R7,0(R7) GET DATA ADDRESS             3-7
0011B6 D502 7000 0311 00000 00311  1502+         CLC   0(3,R7),SLASTR TST FOR /* IN INPUT AREA    3-10
0011BC 4780 B1E2            011E2  1503+         BE    PSTEOF BR IF /*
0011C0 D502 7000 0314 00000 00314  1504+         CLC   0(3,R7),SLAMPR TST FOR /& IN INPUT AREA    3-10
0011C6 4770 B1EA            011EA  1505+         BNE   DEALSO BR IF NOT /&
0011CA 9560 D638      03638        1506+         CLI   DEVZON,T2311 IS DEVICE TYPE DASD
0011CE 4770 B1DE            011DE  1507+         BNE   N1114 NO.. EOJ POST IN PUB
0011D2 4570 B26C            0126C  1508+         BAL   R7,GETPIB GET REQUESTOR PIB ADDRESS
000000                             1509+         USING PIBADR,R8
0011D6 9620 800F      0000F        1510+         OI    PIBFLG2,JOBDUN POST /& IN USERS PIB
                                   1511+         DROP  R8
0011DA 47F0 B1E2            011E2  1512+         B     PSTEOF GO TO POST EOF IN CCB
0011DE 9620 3006      00006        1513+N1114    OI    PUBCSFLG,JOBDUN POST /& IN PUB
0011E2 9640 1002      00002        1514+PSTEOF   OI    CCBCOM1,EOF POST EOF IN CCB
0011E6 9601 1004      00004        1515+         OI    CCBSTA1,UX POST UNIT EXCEPTION IN CCB
0011EA 9127 0044      00044        1516+DEALSO   TM    DEVSTA,CUE+DE+UC+UX CHNL END
0011EE 4770 B016            01016  1517+         BNZ   TRNOFF NO, DEQ CCB
0011F2 9680 3006      00006        1518+         OI    PUBCSFLG,DEVBSY POST DEVICE-BUSY IN PUB
0011F6 9104 1002      00002        1519+         TM    CCBCOM1,POSTDE DOES REQSTOR WANT DEV END POST
0011FA 4780 B01A            0101A  1520+         BZ    TSTERF NO
0011FE 9604 3006      00006        1521+         OI    PUBCSFLG,POSTDE SET DEV-END-POST FLAG IN PUB
001202 9500 3000      00000        1522+         CLI   PUBCHANN,MPX WAS INTERRUPT FROM MPX CHANN
001206 4770 B0D2            010D2  1523+         BNE   INITRG NO
00120A 07F9                        1524+         BR    R9 EXIT SINCE NOTHING CAN START
                                   1525+         DROP  R5
                                   1526+*      CHANNEL PUB SEARCH LOOPS
00120C D200 B225 003B 01225 0003B  1527+INTPUBSC MVC   CORPUBD(1),DEVADR SET DEVICE NO. IN CLI INSTR
001212 D200 B22F 003A 0122F 0003A  1528+         MVC   CORCHND(1),CHNADR SET CHANN NO IN CLI INSTR
001218 4832 D6E2            036E2  1529+         LH    R3,CHNPUB1(R2) PT TO 1ST PUB ON CHANN
00121C 95FF 3000      00000        1530+         CLI   PUBCHANN,X'FF' VALID CHANNEL                3-8
001220 0789                        1531+         BCR   E,R9 NO -- EXIT                   3-8
001222 0560                        1532+         BALR  R6,0 LD LOOP CONTINUE ADDR
001224 9500 3001      00001        1533+CORPUB   CLI   PUBDEVNO,0 IS THIS PUB OF INTERR DEVICE
001225                             1534+CORPUBD  EQU   CORPUB+1 IMMEDIATE DATA MODIFIED
001228 0787                        1535+         BCR   E,R7 YES
00122A 4133 0008            00008  1536+         LA    R3,PUBWIT(R3) PT TO NEXT PUB                 3-4
00122E 9500 3000      00000        1537+CORCHN   CLI   PUBCHANN,0 HAS SEARCH PASSED DESIRED CHANN
00122F                             1538+CORCHND  EQU   CORCHN+1 IMMEDIATE DATA MODIFIED
001232 07D6                        1539+         BCR   NH,R6 BR IF SEARCH STILL ON CHANN
001234 47F0 B0D2            010D2  1540+         B     INITRG
                                   1541+*
001238 4842 D6E0            036E0  1542+INITCHN1 LH    R4,CHNPUBST(R2) LD ADDR OF PUB LAST STARTED
00123C 4832 D6E2            036E2  1543+         LH    R3,CHNPUB1(R2) LD ADDR OF 1ST PUB ON CHANN
001240 4570 B24C            0124C  1544+         BAL   R7,FREDEV1
       DOS SUPERVISOR-CHANNEL SCHEDULER,UNIT CK RTNS                                                           PAGE   38


  LOC  OBJECT CODE    ADDR1 ADDR2  STMT   SOURCE STATEMENT                                          FDOS CL3-10 03/29/70

001244 4133 0008            00008  1545+         LA    R3,PUBWIT(R3) PT TO NEXT PUB
001248 1934                        1546+         CR    R3,R4 REACHED LAST PUB STARTED
00124A 0729                        1547+         BCR   H,R9 YES,EXIT
00124C 95FF 3002      00002        1548+FREDEV1  CLI   PUBCHQPT,X'FF' ANY REQST QUED FOR DEV
001250 0787                        1549+         BCR   E,R7 NO
001252 47F0 B0F0            010F0  1550+         B     TSTQEF
                                   1551+*
001256 1B77                        1552+CLRTEB   SR    R7,R7 GET TEB NO. FOR THIS TAPE
001258 4370 3003            00003  1553+         IC    R7,PUBERR
00125C 4C70 B786            01786  1554+         MH    R7,TEBWIT CALC TEB ADDR
001260 4A70 0436            00436  1555+         AH    R7,TEBPT
000000                             1556+         USING TEBADR,R7
001264 9200 7000      00000        1557+         MVI   TEBERRCT,0 RESET RETRY COUNTER IN TEB
                                   1558+         DROP  R7
001268 47F0 B036            01036  1559+         B     PURGE
                                   1560+*
000000                             1561+         USING LUBADR,R5
00126C 4880 048C            0048C  1562+GETPIB   LH    R8,LID GET TASK LOGICAL TRAN KEY         3-3
001270 91F0 5020      00020        1563+         TM    REQID,X'F0' FETCH OR ERP OR LTA
001274 4780 B282            01282  1564+         BZ    OFFLINE YES
001278 4380 5060            00060  1565+         IC    R8,TKREQID USE TASK REQID AS KEY             3-3
00127C 4188 D5E0            035E0  1566+GETPIB1  LA    R8,PIBTAB(R8) LD ADDR OF REQSTOR PIB
001280 07F7                        1567+         BR    R7
001282 9180 100C      0000C        1568+OFFLINE  TM    12(R1),X'80' ERP
001286 4710 B292            01292  1569+         BO    SUPIB YES
00128A 910F 5020      00020        1570+         TM    REQID,X'0F' LTA
00128E 4780 B27C            0127C  1571+         BZ    GETPIB1 YES
001292 4180 0060            00060  1572+SUPIB    LA    R8,X'60' MUST BE FETCH OR ERP
001296 47F0 B27C            0127C  1573+         B     GETPIB1
                                   1574+         DROP  R5
       DOS SUPERVISOR-CHANNEL SCHEDULER,UNIT CK RTNS                                                           PAGE   39


  LOC  OBJECT CODE    ADDR1 ADDR2  STMT   SOURCE STATEMENT                                          FDOS CL3-10 03/29/70

                                   1576+*360N-CL-453 SGUNCK   CHANGE LEVEL 3-12                            3-12
                                   1577+*                                                                   3-5
                                   1578+*        MACHINE CHECK INTERRUPT                                    3-5
                                   1579+*                                                                   3-5
00129A 070007000700                1580+         CNOP  0,8 3-5
0012A0 00E201E2                    1581+CHFWAT   DC    X'00E201E2' 3-5
0012A4                             1582+MACHEK   EQU   * 3-11
0012A4 58B0 0340            00340  1583+         L     RB,BASRGS INIT. BASE REG                        3-11
0012A8 D201 0000 B2A0 00000 012A0  1584+         MVC   0(2),CHFWAT 3-11
0012AE 8200 B2A0      012A0        1585+         LPSW  CHFWAT 3-5
00000F                             1586+CHF      EQU   X'0F' 3-5
                                   1587+*
                                   1588+*   UNIT CHECK ROUTINE
                                   1589+*       REGISTER CONVENTIONS
                                   1590+*         R1   CCB ADDR
                                   1591+*         R2   CH AND UNIT
                                   1592+*         R3   PUB ADDR
                                   1593+*         R4   CHNL QUE ENTRY
                                   1594+*         R5   LUBID ADDR
                                   1595+*         R6   ERROR QUE ADDR
                                   1596+*         R7   LINK AND WORK REG
                                   1597+*         R8   WORK AND LINK
                                   1598+*         R9   EXIT REG
000000                             1599+         USING PIBADR,RA
000000                             1600+         USING LUBADR,R5 *****
0012B2 0729                        1601+NOSTART  BCR   2,R9 EXIT IF BUSY ON SIO          3-7
0012B4 D201 0044 0317 00044 00317  1602+IONOP    MVC   DEVSTA(2),NOTOP SET CSW...
0012BA D202 0041 B811 00041 01811  1603+         MVC   CCWDRS(3),SRCHID+9
0012C0 9204 B3AF      013AF        1604+UNTCK1   MVI   IOERR,RTYERR RESET ERROR FLAGS
0012C4 9109 0045      00045        1605+         TM    CHNSTA,CHDTA+CHCHN CH DATA OR CHAIN
0012C8 4780 B35E            0135E  1606+         BZ    PRTPRG1 NO,BRANCH
0012CC 9204 B3AF      013AF        1607+UNTCK2   MVI   IOERR,RTYERR SET FOR RETRY
0012D0 95FF 3002      00002        1608+         CLI   PUBCHQPT,X'FF' DVC NOT QUED
0012D4 4780 B2E2            012E2  1609+         BE    NOCCB1 YES BRANCH
0012D8 5880 0040            00040  1610+         L     R8,CSW GET CMD ADDR
0012DC 1288                        1611+         LTR   R8,R8 IS THERE CMD ADDR
0012DE 4770 B44C            0144C  1612+         BC    NZ,CMDCHN
0012E2 9212 B3AF      013AF        1613+NOCCB1   MVI   IOERR,IGNERR+NOCCB ST ERROR QUE FLAGS
0012E6 9104 3006      00006        1614+         TM    PUBCSFLG,POSTDE DVC END POSTING
0012EA 4780 B36E            0136E  1615+         BZ    PRTPRG NO,BRANCH
0012EE 94FD B3AF      013AF        1616+         NI    IOERR,255-NOCCB TURN OFF NO CCB FLAG
0012F2 9120 100C      0000C        1617+USRUCK   TM    CCBBY3,US USER WANT SENSE
0012F6 4710 B35E            0135E  1618+         BO    PRTPRG1 YES, BYPASS UC TEST
0012FA 9180 100C      0000C        1619+         TM    CCBBY3,ERRTIN ERP CCB                      3-9
0012FE 4780 B356            01356  1620+         BZ    EXITAPE NO, EXIT                     3-9
001302 9550 3004      00004        1621+         CLI   PUBDEVTY,T2400 IS DEVICE A TAPE             3-9
001306 4770 B356            01356  1622+         BNE   EXITAPE NO, EXIT                     3-9
00130A 9610 B5F5      015F5        1623+         OI    ERRSIOS,X'10' SET RETURN FROM ERRSIO       3-9
00130E 4181 0010            00010  1624+         LA    R8,16(R1) POINT TO SENSE CCW           3-9
001312 4870 B836            01836  1625+         LH    R7,PTADD GET PTA ADDRESS              3-9
001316 4978 0002            00002  1626+         CH    R7,2(R8) HAS DATA AREA BEEN RELOCATED 3-9
       DOS SUPERVISOR-CHANNEL SCHEDULER,UNIT CK RTNS                                                           PAGE   40


  LOC  OBJECT CODE    ADDR1 ADDR2  STMT   SOURCE STATEMENT                                          FDOS CL3-10 03/29/70

00131A 4740 B326            01326  1627+         BL    NORELOC YES, BRANCH                  3-9
00131E 4A78 0002            00002  1628+         AH    R7,2(R8) RELOCATE SENSE AREA          3-9
001322 4078 0002            00002  1629+         STH   R7,2(R8) IN SENSE CCW               3-9
001326 4020 B352            01352  1630+NORELOC  STH   R2,SAVER2 SAVE REG USED BY ERRSIO      3-9
00132A D201 B354 0044 01354 00044  1631+         MVC   SAVSNS(2),DEVSTA SAVE STATUS                  3-9
001330 4570 B5D0            015D0  1632+         BAL   R7,ERRSIO GET SENSE                    3-9
001334 47F0 B34A            0134A  1633+         B     SNSERROR BRANCH IF ERROR ON SENSE     3-9
001338 D201 0044 B354 00044 01354  1634+         MVC   DEVSTA(2),SAVSNS RESTORE STATUS               3-9
00133E 94EF B5F5      015F5        1635+RESETSW  NI    ERRSIOS,X'EF' RESET BRANCH TO NOP          3-9
001342 4820 B352            01352  1636+         LH    R2,SAVER2 RESTORE REG 2                3-9
001346 47F0 B444            01444  1637+         B     USREXT EXIT                         3-9
00134A 9620 100C      0000C        1638+SNSERROR OI    CCBBY3,US TURN ON SENSE BIT IN CCB     3-9
00134E 47F0 B33E            0133E  1639+         B     RESETSW EXIT                         3-9
001352 0000                        1640+SAVER2   DC    H'0' 3-9
001354 0000                        1641+SAVSNS   DC    H'0' 3-9
001356                             1642+EXITAPE  EQU   * 3-9
001356 9101 1002      00002        1643+         TM    CCBCOM1,OWNUCR USER UNIT CHECK
00135A 4710 B444            01444  1644+         BO    USREXT YES,WXIT
00135E 95FF 3002      00002        1645+PRTPRG1  CLI   PUBCHQPT,X'FF'
001362 4780 B36E            0136E  1646+         BE    PRTPRG
001366 9110 100C      0000C        1647+         TM    CCBBY3,ECF ERP MESSAGE WRITER CCB       3-9
00136A 4710 B444            01444  1648+         BO    USREXT YES EXIT
00136E 4860 B97E            0197E  1649+PRTPRG   LH    R6,ERQPTR GET ERROR QUE ADDR
001372 9110 3006      00006        1650+         TM    PUBCSFLG,QEDERR ERROR ALREADY QUED         3-11
001376 4780 B382            01382  1651+         BZ    PRTPRG2 NO, CONTINUE               3-11
00137A 4190 01AC            001AC  1652+         LA    R9,EXT03 LOAD EXIT ADDRESS          3-11
00137E 47F0 B0AC            010AC  1653+         B     SELECT IGNORE SECOND ERROR        3-11
001382                             1654+PRTPRG2  EQU   * 3-11
001382 4960 B97C            0197C  1655+         CH    R6,FULQUE IS QUE FULL
001386 47B0 B424            01424  1656+         BNL   ERROVL YES,BRANCH
00138A 4A60 D64A            0364A  1657+         AH    R6,ENTLEN GET NEXT QUE ADDR
00138E 4060 B97E            0197E  1658+         STH   R6,ERQPTR
000000                             1659+         USING ERRQUE,R6
001392 D715 6000 6000 00000 00000  1660+         XC    ERQLNG,ERQLNG CLEAR ERROR QUE ENTRY
001398 D207 6000 0040 00000 00040  1661+         MVC   ERQCSW,CSW MOVE IN CSW
00139E 4030 6008            00008  1662+         STH   R3,ERQPUB SET PUB PTR
0013A2 95FF 3002      00002        1663+         CLI   PUBCHQPT,X'FF'
0013A6 4770 B3AE            013AE  1664+         BNE   CCBQED
0013AA 9602 B3AF      013AF        1665+         OI    IOERR,X'02' TURN ON NOCCB FLAG
0013AE 9200 600A      0000A        1666+CCBQED   MVI   ERQFLG,X'00' SET FLAG IN QUE
0013AF                             1667+IOERR    EQU   *-3
0013B2 9690 3006      00006        1668+         OI    PUBCSFLG,QEDERR+DEVBSY SET PUB FLAGS
0013B6 4186 000C            0000C  1669+         LA    R8,ERQSNS-ERQLNG(R6) GET SENSE ADDR               3-8
0013BA 4080 B782            01782  1670+         STH   R8,CCWSEN+2 3-8
0013BE 4140 B4D4            014D4  1671+         LA    R4,EXTRAN .        SET UP EXIT REGISTER              3-7
0013C2 9102 0044      00044        1672+         TM    DEVSTA,UC CHECK FOR UNIT CHECK         3-2
0013C6 4710 B3D0            013D0  1673+         BO    GTSEN1 YES, BYPASS PROG & PROT CHK  3-2
0013CA 9130 0045      00045        1674+         TM    CHNSTA,PRGPRT NOT OP,PROG OR PROT
0013CE 0774                        1675+         BCR   NZ,R4 .                  YES,EXIT,TO EXTRAN          3-7
0013D0                             1676+GTSEN1   EQU   * 3-2
0013D0 9102 B3AF      013AF        1677+         TM    IOERR,NOCCB IS THERE A CCB
       DOS SUPERVISOR-CHANNEL SCHEDULER,UNIT CK RTNS                                                           PAGE   41


  LOC  OBJECT CODE    ADDR1 ADDR2  STMT   SOURCE STATEMENT                                          FDOS CL3-10 03/29/70

0013D4 4780 B474            01474  1678+         BZ    USRSEN YES,TEST USER SENSE
0013D8                             1679+GETSEN   EQU   * 3-6
0013D8 95D2 3004      00004        1680+         CLI   PUBDEVTY,T2703 3-3
0013DC 4780 B404            01404  1681+         BE    MVZEX
0013E0 95D1 3004      00004        1682+         CLI   PUBDEVTY,T2702
0013E4 4780 B404            01404  1683+         BE    MVZEX
0013E8 95D3 3004      00004        1684+         CLI   PUBDEVTY,T7770 3-2
0013EC 4780 B404            01404  1685+         BE    MVZEX 3-2
0013F0 95C0 3004      00004        1686+         CLI   PUBDEVTY,T2260 3-11
0013F4 4780 B404            01404  1687+         BE    MVZEX 3-11
0013F8 4180 B780            01780  1688+         LA    R8,CCWSEN SET FOR ERRSIO
0013FC 4570 B5D0            015D0  1689+         BAL   R7,ERRSIO GET SENSE
001400 47F0 B490            01490  1690+         B     ERRSEN ERROR ON SENSE
001404 D300 D638 3004 03638 00004  1691+MVZEX    MVZ   DEVZON(1),PUBDEVTY SET FOR PRINTER CHECK
00140A 9540 D638      03638        1692+         CLI   DEVZON,T1403/16*16 IS IT A PRINTER
00140E 4780 B54E            0154E  1693+         BE    ERRPRT YES BRANCH
001412 9560 3004      00004        1694+RESCHK   CLI   PUBDEVTY,T2311 IS IT RSS TYPE DEV
001416 4780 C742            02742  1695+         BE    RESERR YES.. GO TO RES RECOVERY
00141A 9562 3004      00004        1696+         CLI   PUBDEVTY,T2314 *
00141E 4780 C742            02742  1697+         BE    RESERR YES,RES RCV
001422 07F4                        1698+         BR    R4 .               BRANCH TO EXTRAN                  3-7
                                   1699+*
001424 9562 3004      00004        1700+ERROVL   CLI   PUBDEVTY,T2314 IS DEVICE A 2314            3-10
001428 4770 B430            01430  1701+         BNE   ERROVL1 NO, CONTINUE                3-10
00142C 4570 B4A4            014A4  1702+         BAL   R7,EXSNS YES, CLEAR SENSE FIRST      3-10
001430 9102 B3AF      013AF        1703+ERROVL1  TM    IOERR,NOCCB IS THERE A CCB              3-10
001434 4710 0F4A            00F4A  1704+         BO    TSTATTN NO,IGNORE
001438 9130 5020      00020        1705+         TM    REQID,X'30' IS IT PROB PROG                  3-5
00143C 4780 B530            01530  1706+         BZ    FCHOVL YES,HARD WAIT
001440 47F0 009E            0009E  1707+         B     ERR31 YES,CANCEL
                                   1708+*
001444 9620 1002      00002        1709+USREXT   OI    CCBCOM1,DISERR POST THE DIASTER ERROR
001448 47F0 0F4A            00F4A  1710+         B     TSTATTN
                                   1711+*
00144C 9101 1003      00003        1712+CMDCHN   TM    CCBCOM2,CHNBIT USER WANT CMD CHAIN
001450 4780 B2F2            012F2  1713+         BZ    USRUCK
001454 4B80 B814            01814  1714+         SH    R8,H8 GET CCW ADDR
001458 4170 B770            01770  1715+         LA    R7,STMCCW UNIT CHECK ON MODE SET?     3-11
00145C 4188 0000            00000  1716+         LA    R8,0(R8) *                           3-11
001460 1987                        1717+         CR    R8,R7 *                           3-11
001462 4780 B2F2            012F2  1718+         BE    USRUCK YES,DO NOT PUT CCW IN USCCB 3-11
001466 5080 0048            00048  1719+         ST    R8,CAW PUT IT IN CCB
00146A D202 1009 0049 00009 00049  1720+         MVC   CCBCCW,CAW+1
001470 47F0 B2F2            012F2  1721+         B     USRUCK
                                   1722+*
001474 9120 100C      0000C        1723+USRSEN   TM    CCBBY3,US USER WANT SENSE
001478 4780 B3D8            013D8  1724+         BZ    GETSEN NO,RETURN
00147C 4181 0010            00010  1725+         LA    R8,16(R1) GET CCW ADDR
001480 4570 B5D0            015D0  1726+         BAL   R7,ERRSIO GET SENSE
001484 47F0 B490            01490  1727+         B     ERRSEN
001488 9620 1002      00002        1728+         OI    CCBCOM1,DISERR POST THE DIASTER ERROR            3-9
       DOS SUPERVISOR-CHANNEL SCHEDULER,UNIT CK RTNS                                                           PAGE   42


  LOC  OBJECT CODE    ADDR1 ADDR2  STMT   SOURCE STATEMENT                                          FDOS CL3-10 03/29/70

00148C 47F0 B56C            0156C  1729+         B     EXIGN
                                   1730+*
001490 940E 0044      00044        1731+ERRSEN   NI    DEVSTA,CE+DE+UC LEAVEDE,CE,UCK
001494 9506 0044      00044        1732+         CLI   DEVSTA,DE+UC DE AND UNIT CHK ONLY
001498 4780 B5D0            015D0  1733+         BE    ERRSIO REISSUE SENSE
       DOS SUPERVISOR-CHANNEL SCHEDULER,UNIT CK RTNS                                                           PAGE   43


  LOC  OBJECT CODE    ADDR1 ADDR2  STMT   SOURCE STATEMENT                                          FDOS CL3-10 03/29/70

                                   1735+*   ERROR RCV EXITS
                                   1736+*      REGISTER USAGE- REFER TO UNIT CHECK ROUTINE
                                   1737+*
                                   1738+*   GET ERP TRANSIENT
00149C 9220 600B      0000B        1739+RCVERR   MVI   ERQMSG,RCVMSG SET  MSG CODE
0014A0 4170 B4D4            014D4  1740+         LA    R7,EXTRAN LOAD EXIT REGISTER          3-10
0014A4 9610 B784      01784        1741+EXSNS    OI    CCWSEN+4,X'10' TURN ON SKIP BIT            3-10
0014A8 4180 B780            01780  1742+         LA    R8,CCWSEN POINT R8 TO SENSE CCW             3-6
0014AC 5080 0048            00048  1743+         ST    R8,CAW SET UP CAW FOR SENSE COMMAND      3-6
0014B0 48F0 003A            0003A  1744+         LH    RF,IOOPSW+2 PICK UP CHANNEL AND UNIT    3-10
0014B4 9D00 F000      00000        1745+BSYTIO   TIO   0(RF) TEST FOR BUSY STATUS        3-12
0014B8 4720 B4B4            014B4  1746+         BC    2,BSYTIO LOOP UNTIL BUSY CLEARS      3-12
0014BC 9C00 F000      00000        1747+RCVSIO   SIO   0(RF) I/O TO CLEAR UNIT CHECK     3-10
0014C0 94EF B784      01784        1748+         NI    CCWSEN+4,X'EF' TURN OFF SKIP BIT           3-11
0014C4 9D00 F000      00000        1749+RCVTIO   TIO   0(RF) TEST TO CLEAR STATUS             3-10
0014C8 4720 B4C4            014C4  1750+         BC    2,RCVTIO LOOP UNTIL BUSY CLEARS       3-9
0014CC 0797                        1751+         BCR   9,R7 EXIT ON AVAIL & NOT OPER.   3-10
0014CE 9204 0044      00044        1752+         MVI   DEVSTA,DE SET DEVICE END STATUS       3-10
0014D2 07F7                        1753+         BR    R7 RETURN                      3-10
0014D4 4580 B5C0            015C0  1754+EXTRAN   BAL   R8,RSTREG RESTORE CHNL SCD REGS
0014D8 9102 600A      0000A        1755+         TM    ERQFLG,NOCCB IS THERE A CCB
0014DC 4710 B50C            0150C  1756+         BO    STDEXT NO,BRANCH
0014E0 9502 B981      01981        1757+         CLI   RIK+1,X'02' IS IT FETCH                 3-3
0014E4 4770 B504            01504  1758+         BNE   NTFTCH NO    BRANCH                3-3
0014E8 9502 5020      00020        1759+         CLI   REQID,FCHID ARE YOU SURE                 3-5
0014EC 4770 B504            01504  1760+         BNE   NTFTCH NO                           3-5
0014F0 9520 600D      0000D        1761+         CLI   ERQSNS+1,X'20' IS IT E.O.C.                   3-4
0014F4 4780 B504            01504  1762+         BE    NTFTCH NO ... FETCH PHASE          3-11
0014F8 9506 B847      01847        1763+         CLI   TXTLUB,SYSRES IS IT SYSRES                3-11
0014FC 4780 B518            01518  1764+         BE    FCHERR CHECK FOR $ PHASE           3-11
001500 47F0 B546            01546  1765+         B     FCHERR1 3-11
001504                             1766+NTFTCH   EQU   * 3-11
001504 95FF 0429      00429        1767+         CLI   JCSW2,RALOC REALLOCATION IN PROGRESS
001508 4780 B526            01526  1768+         BE    HARDWT YES
00150C 4190 01AC            001AC  1769+STDEXT   LA    R9,EXT03 SET EXIT
001510 9287 D630      03630        1770+         MVI   PIBQUIS,FLG87 ATTACH QUIESCE
001514 47F0 B0AC            010AC  1771+         B     SELECT 3-5
001518 4870 B748            01748  1772+FCHERR   LH    R7,IDRADD 3-11
00151C D500 7000 B988 00000 01988  1773+         CLC   0(1,R7),SVC3NM IS THIS A $ PHASE            3-5
001522 4770 B546            01546  1774+         BNE   FCHERR1 NO, GO TO CANCEL FETCHER                   3-5
001526 D205 0005 600C 00005 0000C  1775+HARDWT   MVC   5(L'ERQSNS),ERQSNS SET SENSE CODE
00152C 9706 B53B      0153B        1776+         XI    SUPCNL+1,X'06' SET FOR HARD FETCH ERROR
001530 9701 B53B      0153B        1777+FCHOVL   XI    SUPCNL+1,X'01' SET FETCH ERROR QUE OVRFLOW
001534 D201 0002 3000 00002 00000  1778+         MVC   2(2),PUBCHANN SET CH AND UNIT
00153A 9204 0000      00000        1779+SUPCNL   MVI   0,WTCNL SET WAIT ERROR MSG
00153E 92E6 0001      00001        1780+         MVI   1,C'W' SET ACTION
001542 8200 B2A0      012A0        1781+         LPSW  CHFWAT HARD WAIT
001546                             1782+FCHERR1  EQU   * 3-5
001546 9620 B842      01842        1783+         OI    TXTCCB+2,DISERR SET ERROR BIT ON            3-11
00154A 47F0 B56C            0156C  1784+         B     EXIGN 3-5
                                   1785+*
       DOS SUPERVISOR-CHANNEL SCHEDULER,UNIT CK RTNS                                                           PAGE   44


  LOC  OBJECT CODE    ADDR1 ADDR2  STMT   SOURCE STATEMENT                                          FDOS CL3-10 03/29/70

00154E 9541 3004      00004        1786+ERRPRT   CLI   PUBDEVTY,T1443 3-4
001552 4770 B55A            0155A  1787+         BNE   *+8 3-4
001556 94F3 600C      0000C        1788+         NI    ERQSNS,X'F3' SET OFF TYPEBAR SEL. 3-4
00155A 9501 600C      0000C        1789+         CLI   ERQSNS,CH9OVF CHANNEL 9 OVFL                  3-2
00155E 0774                        1790+         BCR   NE,R4 .                  NO,ERROR,TO EXTRAN          3-7
001560 9102 B3AF      013AF        1791+         TM    IOERR,NOCCB IS THERE A CCB
001564 4710 B56C            0156C  1792+         BO    EXIGN NO,IGNORE
001568 9602 1003      00003        1793+         OI    CCBCOM2,CHAN9 POST IT IN CCB                    3-8
                                   1794+*
                                   1795+*   IGNORE EXIT
00156C D207 0040 6000 00040 00000  1796+EXIGN    MVC   CSW(L'ERQCSW),ERQCSW SET ERROR CODE
001572 4580 B59A            0159A  1797+         BAL   R8,DEQUER DEQUE ERROR ENTRY
001576 47F0 0F4A            00F4A  1798+         B     TSTATTN GO TO CHNL SCD
                                   1799+*
                                   1800+*         DISWHY EXIT
00157A 4400 B56C            0156C  1801+EXWHY    EX    0,EXIGN RESTORE CSW
00157E 4570 B5D8            015D8  1802+         BAL   R7,ERRSIO2 EXEC USER CMD
001582 47F0 B586            01586  1803+         B     *+4 EVAL INTERRUPT
001586 4580 B59A            0159A  1804+         BAL   R8,DEQUER DEQUE ERROR ENTRY
00158A 47F0 0EAC            00EAC  1805+         B     DISWHY
                                   1806+*
                                   1807+*   RETRY EXIT
00158E 9104 600A      0000A        1808+EXRTY    TM    ERQFLG,RTYERR IS RETRY ALLOWED
001592 4780 B56C            0156C  1809+         BZ    EXIGN NO TAKE IGNORE
001596 4180 B0AC            010AC  1810+         LA    R8,SELECT GO TO CHNL SCD
                                   1811+*
                                   1812+*   DEQUER SUBROUTINE
00159A 47F0 B5B0            015B0  1813+DEQUER   BC    15,DEQUER1A MODIFIED BRANCH, BRANCH RES 3-5
00159E 96F0 B59B      0159B        1814+         OI    DEQUER+1,X'F0' RESTORE BRANCH CODE          3-5
0015A2 4830 B998            01998  1815+         LH    R3,PUBENT GET PUB ADDR
                                   1816+         MVC   ERQUE(L'ERQUE-L'ERQENT),ERQUE+L'ERQENT DEQUEUE FIRST ENTX
0015A6 D257 B990 B9A6 01990 019A6      +               RY
0015AC 4400 C2D0            022D0  1817+         EX    0,IOPSET PUT CHNL & UNIT IN PSW
0015B0 4870 B97E            0197E  1818+DEQUER1  LH    R7,ERQPTR GET LAST ENTRY
0015B4 4B70 D64A            0364A  1819+         SH    R7,ENTLEN GET NEXT QUE ADDR
0015B8 4070 B97E            0197E  1820+         STH   R7,ERQPTR STORE IT
0015BC 946F 3006      00006        1821+         NI    PUBCSFLG,255-QEDERR-DEVBSY
0015C0 1B22                        1822+RSTREG   SR    R2,R2 LOAD CHNL AND UNIT
0015C2 4320 003A            0003A  1823+         IC    R2,IOOPSW+2
0015C6 4322 D639            03639  1824+         IC    R2,CHNIDX(R2)
0015CA 4570 B0FA            010FA  1825+         BAL   R7,CQDSP INIT REGS
0015CE 07F8                        1826+         BR    R8 RETURN
0015B0                             1827+DEQUER1A EQU   DEQUER1 3-5
                                   1828+*
                                   1829+*         ERROR START I/O ROUTINE
0015D0 1828                        1830+ERRSIO   LR    R2,R8 GET CCW KEY...
0015D2 4320 048E            0048E  1831+         IC    R2,PIK
0015D6 0922                        1832+         ISK   R2,R2
0015D8 5080 0048            00048  1833+ERRSIO2  ST    R8,CAW SET CAW CCW
0015DC 4220 0048            00048  1834+         STC   R2,CAW SET KEY
0015E0 4820 003A            0003A  1835+         LH    R2,IOOPSW+2 GET CHNL AND UNIT
       DOS SUPERVISOR-CHANNEL SCHEDULER,UNIT CK RTNS                                                           PAGE   45


  LOC  OBJECT CODE    ADDR1 ADDR2  STMT   SOURCE STATEMENT                                          FDOS CL3-10 03/29/70

0015E4 9C00 2000      00000        1836+OURSIO   SIO   0(R2) START I/O
0015E8 4740 B5FA            015FA  1837+         BC    4,CSWCHK CHECK STORED CSW
0015EC 9D00 2000      00000        1838+AFTTIO   TIO   0(R2) TEST I/O
0015F0 4720 B5EC            015EC  1839+         BC    2,AFTTIO CHANNEL BUSY, TEST I/O AGAIN
                                   1840+*   THE FOLLOWING INSTRUCTION IS MODIFIED TO RETURN TO THE CALLING  3-9
                                   1841+*   ROUTINE ON CHANNEL NOT OPERATIONAL.                             3-9
0015F4 0707                        1842+RASNSRT  NOPR  R7 RETURN TO CALLING ROUTINE    3-9
0015F5                             1843+ERRSIOS  EQU   RASNSRT+1 RETURN SWITCH                    3-9
0015F6 4710 B49C            0149C  1844+         BC    1,RCVERR ERROR ON RECOVERRY
0015FA 9106 0045      00045        1845+CSWCHK   TM    CHNSTA,CHNCHK IS IT CHNL FAIL
0015FE 4770 B63C            0163C  1846+         BNZ   CHFAIL+2*1
001602 9139 0045      00045        1847+         TM    CHNSTA,PRGPRT+CHDTA+CHCHN CHNL ERROR
001606 0777                        1848+         BCR   NZ,R7 UNIT CHK RETURN
001608 9102 0044      00044        1849+         TM    DEVSTA,UC WAS THERE AN UNIT CHECK
00160C 0717                        1850+         BCR   O,R7 YES USER UNIT CHECK
00160E 9108 0044      00044        1851+         TM    DEVSTA,CE WAS THERE A CHANNEL END
001612 4717 0004            00004  1852+         BO    4(R7) YES RETURN
001616 95D1 3004      00004        1853+         CLI   PUBDEVTY,X'D1' CHECK                             3-8
00161A 4740 B62E            0162E  1854+         BL    NOTTP FOR                          3-8
00161E 95D4 3004      00004        1855+         CLI   PUBDEVTY,X'D4' TP                        3-8
001622 4720 B62E            0162E  1856+         BH    NOTTP DEVICE                  3-8
001626 9540 0044      00044        1857+         CLI   DEVSTA,X'40' STATUS MODIFIER ONLY?             3-8
00162A 4787 0004            00004  1858+         BE    4(R7) YES -- EXIT FROM ROUTINE          3-8
00162E                             1859+NOTTP    EQU   * 3-8
00162E 9550 0044      00044        1860+         CLI   DEVSTA,X'50' IC C.U. BUSY WITH STACKED STATUS 3-11
001632 4780 B58E            0158E  1861+         BE    EXRTY YES,EXIT TO ALLOW INTERRUPTS     3-11
001636 47F0 B5E4            015E4  1862+         B     OURSIO NO, WAIT FOR CHANNEL END          3-8
                                   1863+*
                                   1864+*         CHANNEL FAILURE
00163A 1826                        1865+CHFAIL   LR    R2,R6
00163C 4020 003A            0003A  1866+         STH   R2,IOOPSW+2 PUT CHNL AND UNIT IN PSW
001640 D201 0000 B2A2 00000 012A2  1867+CHFAIL1  MVC   0(2),CHFWAT+2
001646 920F 0073      00073        1868+         MVI   115,CHF
00164A 8200 B2A0      012A0        1869+         LPSW  CHFWAT


00164E                             1871+QUISIO   DC    0H'0' 3-5
00164E D501 B970 B97E 01970 0197E  1872+SDRQUIS  CLC   ERRQ(2),ERQPTR ARE THERE STILL QUED ERRORS 3-5
001654 4720 B66E            0166E  1873+         BH    NOQUIS NO...                          3-5
000000                             1874+         USING PUBADR,RF 3-5
001658 92C4 B98F      0198F        1875+         MVI   SVC3NM+7,C'D' GET TAPE TRANS
00165C 48F0 B998            01998  1876+         LH    RF,PUBENT GET PUB ADDR
001660 9550 F004      00004        1877+         CLI   PUBDEVTY,T2400T9 IS IT A TAPE
001664 4780 B66C            0166C  1878+         BE    *+8 YES,SVC3
001668 92C1 B98F      0198F        1879+         MVI   SVC3NM+7,C'A' GET MONITOR
00166C 0A03                        1880+         SVC   3
00166E 9284 D630      03630        1881+NOQUIS   MVI   PIBQUIS,FLG80+SUPFLG DETACH QUIESE I/O TASK
001672 47F0 01B0            001B0  1882+         B     EXT02
                                   1883+*
                                   1884+*      QUIESCE SUBROUTINE
001676 50E0 B69C            0169C  1885+QISRT2   ST    RE,SAVERGE SAVE RETURN ADDR                       3-9
       DOS SUPERVISOR-CHANNEL SCHEDULER,UNIT CK RTNS                                                           PAGE   46


  LOC  OBJECT CODE    ADDR1 ADDR2  STMT   SOURCE STATEMENT                                          FDOS CL3-10 03/29/70

00167A 58E0 034C            0034C  1886+         L     RE,BASRGS+12 SET UP BASE REG.                       3-9
00167E 48F0 D648            03648  1887+         LH    RF,PUBRES GET ADDR OF SYSRES PUB  GWM            3-9
001682 58E0 B69C            0169C  1888+         L     RE,SAVERGE RESTORE RE                             3-9
001686 8000 B745      01745        1889+QISRT1   SSM   ENABL ENABLE
00168A 9118 F006      00006        1890+QISRT3   TM    PUBCSFLG,QEDERR+OPINTV DVC IN ERROR
00168E 077E                        1891+         BCR   NZ,RE IN ERROR RETURN
001690 95FF F002      00002        1892+         CLI   PUBCHQPT,X'FF' IS DVC UNQUED
001694 4770 B68A            0168A  1893+         BNE   QISRT3 NO,CONTINUE TEST
001698 07FE                        1894+         BR    RE RETURN
00169A 0000
00169C 00000000                    1895+SAVERGE  DC    F'0' 3-9
                                   1896+         DROP  R5
                                   1897+         DROP  R3,R4,R6,RF 3-5
000000                             1898+         USING PIBADR,RA
                                   1899+* CALLS CONSTANTS,FETCH,SVC ROUTINES,AND SYSRES ERROR ROUTINES
       DOS SUPERVISOR - CONSTANTS AND EQUATES                                                                  PAGE   47


  LOC  OBJECT CODE    ADDR1 ADDR2  STMT   SOURCE STATEMENT                                          FDOS CL3-10 03/29/70

                                   1901+*360N-CL-453 SGTCON    CHANGE LEBEL 3-12                           3-12
                                   1902+*   THE OBJECTIVE OF VLDADR1,VLDADR2,AND VLDADR3 IS TO VALIDATE THE
                                   1903+*   UPPER AND LOWER LIMITS OF A FIELD. THESE LIMITS MUST BE WITHIN  3-7
                                   1904+*   CORE. FOR USER ROUTINES,THE LOWER LIMIT MUST NOT BE INSIDE THE
                                   1905+*   SUPERVISOR. ALSO BOTH LIMITS MUST HAVE USER'S KEY.
0016A0 4860 048E            0048E  1906+VLDADR1  LH    R6,PIK LD KEY
0016A4 4122 0000            00000  1907+VLDADR3  LA    R2,0(R2) CLEAR HI BYTE
0016A8 5920 0420            00420  1908+VLDADR2  C     R2,EOCADR IS HIGH ADDR GR THAN HIGH CORE
0016AC 4720 00DE            000DE  1909+         BH    ERR25 YES,CANCEL
0016B0 1266                        1910+         LTR   R6,R6 NO,DOES USER KEY EQUAL ZERO
0016B2 0787                        1911+         BCR   E,R7 YES,RETURN
0016B4 4111 0000            00000  1912+         LA    R1,0(R1) CLEAR HI BYTE
0016B8 5910 0420            00420  1913+         C     R1,EOCADR LOW ADDR GR THEN HIGH CORE             3-7
0016BC 4720 00DE            000DE  1914+         BH    ERR25 YES,CANCEL                             3-7
0016C0 4910 B746            01746  1915+         CH    R1,ENDSUP NO,IS LOWER LIMIT IN SUPERVISOR
0016C4 4740 00DE            000DE  1916+         BL    ERR25 YES,CANCEL
0016C8 1B88                        1917+         SR    R8,R8 NO, CLEAR COMPARE REG
0016CA 1851                        1918+         LR    R5,R1
0016CC 4350 D64E            0364E  1919+         IC    R5,CLRCOM+2 CLEAR LOW ORDER BYTE OF ADDR
0016D0 0985                        1920+         ISK   R8,R5
0016D2 4850 041E            0041E  1921+         LH    R5,PID GET STORAGE PROTECT KEY      3-3
0016D6 1958                        1922+         CR    R5,R8 IS REQUESTOR KEY CORRECT     3-3
0016D8 4770 00DE            000DE  1923+         BNE   ERR25 NO
0016DC 1852                        1924+         LR    R5,R2
0016DE 4350 D64E            0364E  1925+         IC    R5,CLRCOM+2 CLEAR LAST BYTE OF ADDRESS
0016E2 0985                        1926+         ISK   R8,R5 INSERT KEY
0016E4 4850 041E            0041E  1927+         LH    R5,PID GET STORAGE PROTECT KEY      3-3
0016E8 1958                        1928+         CR    R5,R8 IS REQUESTOR KEY CORRECT     3-3
0016EA 4770 00DE            000DE  1929+         BNE   ERR25 NO,CANCEL
0016EE 07F7                        1930+         BR    R7 RETURN TO CALLER


                                   1932+*   ATTENTION TASK
                                   1933+*      REGISTER USAGE
                                   1934+*         RA   PIB ADDR
0016F0 9510 A001      00001        1935+ATNRTN   CLI   PIBCNCL,ISCNCL HAS ATTN RTN BEEN CANCELLED
0016F4 47B0 021A            0021A  1936+         BNL   EXTEOJ YES
0016F8 9503 009B      0009B        1937+         CLI   TRTIDRA,IDRA03 IS DRA DREE                  3-9
0016FC 4780 B708            01708  1938+         BE    IDRATST YES                          3-9
001700 9289 D620      03620        1939+         MVI   PIBAR,IDRA89 NO SET ATTN IDRA BOUND       3-9
001704 47F0 01B0            001B0  1940+         B     EXT02 GO TO TASK SELECT            3-9
001708                             1941+IDRATST  EQU   * 3-9
001708 9503 0099      00099        1942+         CLI   TRTPTA,IDRA03 IS PTA FREE ALSO             3-9
00170C 4780 B718            01718  1943+         BE    IDRAATTN YES                          3-9
001710 9287 D620      03620        1944+         MVI   PIBAR,FLG87 NO SET ATTN PTA BOUND        3-9
001714 47F0 01B0            001B0  1945+         B     EXT02 GO TO TASK SELECT            3-9
001718                             1946+IDRAATTN EQU   * 3-9
001718 92E9 B98F      0198F        1947+         MVI   SVC3NM+7,C'Z' SET CODE TO FETCH PHYSICAL ATTN
00171C 9110 A008      00008        1948+         TM    PIBCORNO,PTAFTCH LOG ATTN RTN REQ              3-2
001720 4710 C2EE            022EE  1949+         BO    FCH3 NO....                         3-2
001724 4700 C5B2            025B2  1950+ITBRC    BC    0,TMERT1 SWTCH TO STACKED TIMER PROCESS
       DOS SUPERVISOR - CONSTANTS AND EQUATES                                                                  PAGE   48


  LOC  OBJECT CODE    ADDR1 ADDR2  STMT   SOURCE STATEMENT                                          FDOS CL3-10 03/29/70

001725                             1951+ITBRC1   EQU   ITBRC+1 MASK MODIFIED
001728 4110 B958            01958  1952+         LA    R1,ATTNNM FETCH ATTENTION RTN (LOGICAL)
00172C 9283 A000      00000        1953+         MVI   PIBFLG,FLG80+NOTSVC2+NOTSVC7 SET PIB FLG TO SELECT
001730 9103 A008      00008        1954+         TM    PIBCORNO,ATTNMSK1+EXTRNM1 ARE THERE ATTN REQSTS TO PRCES
001734 4770 C0CE            020CE  1955+         BC    NZ,SVC02 YES
001738 9280 A000      00000        1956+         MVI   PIBFLG,FLG80 DETATCH ATTN TASK
00173C 9200 A008      00008        1957+         MVI   PIBCORNO,X'00' ZERO BYTE                      3-2
001740 47F0 01B0            001B0  1958+         B     EXT02
       DOS SUPERVISOR - CONSTANTS AND EQUATES                                                                  PAGE   49


  LOC  OBJECT CODE    ADDR1 ADDR2  STMT   SOURCE STATEMENT                                          FDOS CL3-10 03/29/70

001744                             1960+         DS    0H
001744 00FE                        1961+LUBIGN   DC    X'00FE' IGNORE LUB
001745                             1962+ENABL    EQU   LUBIGN+1 SET SYSTEM MASK
001746 6000                        1963+ENDSUP   DC    Y(PPBEG) END OF SUPERVISOR
001748 53F8                        1964+IDRADD   DC    Y(IDRA) 3-9
00174A 0000                        1965+IDRASW   DC    X'0000' 3-9
00174C 0C00                        1966+CENDDEND DC    X'0C00' CHAN END DEVICE END ONLY                   3-4
00174E 0800                        1967+CHANEND  DC    X'0800' CHAN END OMLY                              3-4
001750 00000000                    1968+OLTSAV   DC    F'0' OLTEP SAVE AREA                  3-9
001754 00000000                    1969+OLTABL   DC    F'0' OLTEP TABLE                      3-9
001758 40404040                    1970+IDOUT    DC    CL4' ' OUTPUT AREA FOR SYSLOG ID  3-11
00175C 00000000
001760 0100175860000004            1971+CSCHDCCW CCW   X'01',IDOUT,X'60',4 CHANNEL SCHEDULER CCW      3-11
001768 0800176860000001            1972+         CCW   X'08',*,X'60',1
001770 9300177060000001            1973+STMCCW   CCW   X'93',*,X'60',1 SET MODE CCW
001778 0800177860000001            1974+         CCW   X'08',*,X'60',1 TIC TO USER CHAIN
001780 0400178020000006            1975+CCWSEN   CCW   X'04',*,X'20',6 ERP SENSE CMD
001786                             1976+TEBWIT   EQU   CCWSEN+6 NO. TO GET TEB DISPLACEMENT
001788 130018A020000001            1977+EDCCWR   CCW   X'13',EDHA,X'20',1 RECALIBRATE CCW
00178E                             1978+BTMHRN   EQU   EDCCWR+6 X'0001' FOR LOWER HEAD AND REC. NO.
001790 1A0018A020000005            1979+EDCCWH   CCW   X'1A',EDHA,X'20',5 CCW TO READ HOME ADDRESS
001798 160018A820000004            1980+         CCW   X'16',EDR0,X'20',4 CCW TO READ R0
0017A0 070018A640000006            1981+EDCCWS   CCW   X'07',EDSA,X'40',6 SEEK CCW
0017A8 390018A860000004            1982+         CCW   X'39',EDR0,X'60',4 3-4
0017B0 080017A800000000            1983+         CCW   X'08',*-8,0,0 3-4
0017B8 1F0017BD60000001            1984+EDCCWF   CCW   X'1F',EDCCWF+5,X'60',1 SET FILE MASK
0017C0 1A0018A050000005            1985+         CCW   X'1A',EDHA,X'50',5 CCW TO RD HOME ADDR (SKIP ON)
0017C8 080017C800000001            1986+EDCCWT   CCW   X'08',*,X'00',1 CCW TO TIC TO USER'S CHAIN
0017CC                             1987+         ORG   EDCCWT+4
0017CC 0000                        1988+SHORTLGT DC    H'0' SAVE LENGTH OF LAST CIL-RECORD
                                   1989+* RCLCIL                          TO BE INITIALIZED ON FIRST ENTRY
                                   1990+* SYSRES = 2311 = 1728 , 2314 = 1688
0017CE 06C0                        1991+RCLCIL   DC    H'1728' LENGTH OF FULL CIL TXT RECORD
0017D0                             1992+         ORG


                                   1994+*        CHAIN OF CCW'S-ONE FOR EACH CHANNEL HAVING DASD FILE PROTECT


0017D0 070017D040000006            1996+FPCHAIN  CCW   7,*,X'40',6 SEEK
0017D8 1F00196040000001            1997+         CCW   31,FILEMSKS,X'40',1 SET FILE MASK
0017E0 080017E000000000            1998+         CCW   8,*,0,0 TIC
0017E8 070017E840000006            1999+         CCW   7,*,X'40',6 SEEK
0017F0 1F00196040000001            2000+         CCW   31,FILEMSKS,X'40',1 SET FILE MASK
0017F8 080017F800000000            2001+         CCW   8,*,0,0 TIC
                                   2002+*



001800 0700190540000006            2004+TXTCCW   CCW   7,SKADR,X'40',6 SEEK
001808 3100190740000005            2005+SRCHID   CCW   X'31',SKADR+2,X'40',5 SEARCH
       DOS SUPERVISOR - CONSTANTS AND EQUATES                                                                  PAGE   50


  LOC  OBJECT CODE    ADDR1 ADDR2  STMT   SOURCE STATEMENT                                          FDOS CL3-10 03/29/70

001810 0800180800000001            2006+         CCW   8,SRCHID,0,1 TIC
001814                             2007+         ORG   SRCHID+12
001814 0008                        2008+H8       DC    H'8'
001816 000A                        2009+H10      DC    H'10'
001818                             2010+         ORG
001818 0000181820000001            2011+RDCCW    CCW   0,*,X'20',1 READ TO BE MODIFIED
001820 9200046420000005            2012+         CCW   X'92',SSKADR,X'20',5 READ COUNT CCW FOR NEXT RECORD
001828 8600540060000168            2013+DIRCCW   CCW   X'86',IDRA+8,X'60',DIRLGH READ DATA                  3-9
001830 00000000                    2014+         DC    X'00000000' 3-10
001833                             2015+FCCBAD   EQU   *-1
001834 1840                        2016+         DC    Y(TXTCCB)
001836 5A18                        2017+PTADD    DC    Y(PTA)
001838 00000000000000              2018+DSKPOS   DC    XL7'00' SYSLNK DIB ENTRY BBCCHHR               3-9
00183F FF                          2019+         DC    X'FF' 3-9
001840 000000000000                2020+TXTCCB   DC    3H'0' 3-8
001846 0006                        2021+         DC    H'6'
001848 00001800                    2022+         DC    A(TXTCCW)
00184C 00000000                    2023+         DC    2H'0'
001847                             2024+TXTLUB   EQU   TXTCCB+7 .          LUB NO. IN FETCH CCB             3-9
                                   2025+* SYSIN                                                             3-9
001850 00000000000000              2026+         DC    7X'00' CURRENT ADDRESS
001857 000050                      2027+         DC    X'000050' KDD
00185A 000000000000                2028+         DC    6X'00' END ADDRESS
001860 19                          2029+         DC    X'19' MAXIMUM RECORD PER TRACK
001861 000000                      2030+         DC    3X'00'
001864 0000                        2031+         DC    2X'00' RECORD COUNT
001866 0000                        2032+         DC    2X'00'
                                   2033+* SYSPCH                                                            3-9
001868 00000000000000              2034+         DC    7X'00' CURRENT ADDRESS
00186F 000051                      2035+         DC    X'000051' KDD
001872 000000000000                2036+         DC    6X'00' END ADDRESS
001878 19                          2037+         DC    X'19' MAXIMUM RECORD PER TRACK
001879 000000                      2038+         DC    3X'00'
00187C 03E8                        2039+         DC    AL2(1000) RECORD COUNT
00187E 0000                        2040+         DC    2X'00'
                                   2041+* SYSLST                                                            3-9
001880 00000000000000              2042+         DC    7X'00' CURRENT ADDRESS
001887 000079                      2043+         DC    X'000079' KDD
00188A 000000000000                2044+         DC    6X'00' END ADDRESS
001890 13                          2045+         DC    X'13' MAXIMUM RECORD PER TRACK
001891 000000                      2046+         DC    3X'00'
001894 03E8                        2047+         DC    AL2(1000) RECORD COUNT
001896 0000                        2048+         DC    2X'00'

001898 00000000000000              2050+         DC    XL7'00' .           F2 SYSLNK DIB.  BBCCHHR          3-9
00189F FF                          2051+         DC    X'FF' .             F2 SYSCLB DIB.  1ST CYL OF PCIL  3-9
                                   2052+* MISC ITEMS TO FILL UNUSED DIB SPACE                               3-9
0018A0 000000000000                2053+EDHA     DC    XL6'00' .           HOME ADDRESS                     3-9
0018A6 0000                        2054+EDSA     DC    X'0000' .           BB OF SEEK ADDRESS               3-9
0018A8 00000000                    2055+EDR0     DC    XL4'00' .           R0 - CCHH                        3-9
0018AC C6C7D7                      2056+FGPCON   DC    C'FGP' .            COMPARAND FOR FOREGROUND PHASE   3-9
       DOS SUPERVISOR - CONSTANTS AND EQUATES                                                                  PAGE   51


  LOC  OBJECT CODE    ADDR1 ADDR2  STMT   SOURCE STATEMENT                                          FDOS CL3-10 03/29/70

0018AF 00                          2057+CLBHOLD  DC    X'00' .             HOLD AREA FOR CLB PUB PTR        3-9
                                   2058+* SYSIN                                                             3-9
0018B0 00000000000000              2059+         DC    7X'00' CURRENT ADDRESS
0018B7 000050                      2060+         DC    X'000050' KDD
0018BA 000000000000                2061+         DC    6X'00' END ADDRESS
0018C0 19                          2062+         DC    X'19' MAXIMUM RECORD PER TRACK
0018C1 000000                      2063+         DC    3X'00'
0018C4 0000                        2064+         DC    2X'00' RECORD COUNT
0018C6 0000                        2065+         DC    2X'00'
                                   2066+* SYSPCH                                                            3-9
0018C8 00000000000000              2067+         DC    7X'00' CURRENT ADDRESS
0018CF 000051                      2068+         DC    X'000051' KDD
0018D2 000000000000                2069+         DC    6X'00' END ADDRESS
0018D8 19                          2070+         DC    X'19' MAXIMUM RECORD PER TRACK
0018D9 000000                      2071+         DC    3X'00'
0018DC 03E8                        2072+         DC    AL2(1000) RECORD COUNT
0018DE 0000                        2073+         DC    2X'00'
                                   2074+* SYSLST                                                            3-9
0018E0 00000000000000              2075+         DC    7X'00' CURRENT ADDRESS
0018E7 000079                      2076+         DC    X'000079' KDD
0018EA 000000000000                2077+         DC    6X'00' END ADDRESS
0018F0 13                          2078+         DC    X'13' MAXIMUM RECORD PER TRACK
0018F1 000000                      2079+         DC    3X'00'
0018F4 03E8                        2080+         DC    AL2(1000) RECORD COUNT
0018F6 0000                        2081+         DC    2X'00'

0018F8 00000000000000              2083+         DC    XL7'00' .           F1 SYSLNK DIB.  BBCCHHR          3-9
0018FF FF                          2084+         DC    X'FF' .             F1 SYSCLB DIB.  1ST CYL OF PCIL  3-9
                                   2085+* MISC ITEMS TO FILL UNUSED DIB SPACE                               3-9
001900                             2086+PUBSAVE  DS    0XL5 .                                               3-9
001900 FF00                        2087+         DC    X'FF00' .                                            3-9
001902 60                          2088+         DC    AL1(T2311) .                                         3-9
001903 00                          2089+         DC    X'00' .                                              3-9
001904 00                          2090+BMPXFLAG DC    AL1(M2311) .                                         3-9
                                   2091+* SKADR+3 MUST BE ON A FULL-WORD BOUNDARY.                          3-9
001905 00000000000000              2092+SKADR    DC    XL7'00' .           BUCKET FOR SEEK ADDRESS          3-9
                                   2093+* CIDAR IS CHHR START ADDR OF SYSTEM MAIN CORE IMAGE DIRECTORY.     3-9
                                   2094+* INITIALIZED ON 1ST ENTRY, 01000001 FOR 2311, 00000A01 FOR 2314.   3-9
00190C 01000001                    2095+CIDAR    DC    X'01000001' .                                        3-9
                                   2096+* SYSIN                                                             3-9
001910 00000000000000              2097+         DC    7X'00' CURRENT ADDRESS
001917 000050                      2098+         DC    X'000050' KDD
00191A 000000000000                2099+         DC    6X'00' END ADDRESS
001920 19                          2100+         DC    X'19' MAXIMUM RECORD PER TRACK
001921 000000                      2101+         DC    3X'00'
001924 0000                        2102+         DC    2X'00' RECORD COUNT
001926 0000                        2103+         DC    2X'00'
                                   2104+* SYSPCH                                                            3-9
001928 00000000000000              2105+         DC    7X'00' CURRENT ADDRESS
00192F 000051                      2106+         DC    X'000051' KDD
001932 000000000000                2107+         DC    6X'00' END ADDRESS
       DOS SUPERVISOR - CONSTANTS AND EQUATES                                                                  PAGE   52


  LOC  OBJECT CODE    ADDR1 ADDR2  STMT   SOURCE STATEMENT                                          FDOS CL3-10 03/29/70

001938 19                          2108+         DC    X'19' MAXIMUM RECORD PER TRACK
001939 000000                      2109+         DC    3X'00'
00193C 03E8                        2110+         DC    AL2(1000) RECORD COUNT
00193E 0000                        2111+         DC    2X'00'
                                   2112+* SYSLST                                                            3-9
001940 00000000000000              2113+         DC    7X'00' CURRENT ADDRESS
001947 000079                      2114+         DC    X'000079' KDD
00194A 000000000000                2115+         DC    6X'00' END ADDRESS
001950 13                          2116+         DC    X'13' MAXIMUM RECORD PER TRACK
001951 000000                      2117+         DC    3X'00'
001954 03E8                        2118+         DC    AL2(1000) RECORD COUNT
001956 0000                        2119+         DC    2X'00'

001958 5B5BC2C1E3E3D5C1            2121+ATTNNM   DC    CL8'$$BATTNA' .     ATTENTION PHASE NAME             3-9
001960 10                          2122+FILEMSKS DC    B'00010000' INHIBIT LONG SEEK
001961 40                          2123+FILEMSKW DC    B'01000000' INHIBIT WRITE
0017E4                             2124+         ORG   FPCHAIN+20
0017E4 1960                        2125+INHSADD  DC    Y(FILEMSKS)
0017E6 1961                        2126+INHWADD  DC    Y(FILEMSKW)
001962                             2127+         ORG
001962 17B8                        2128+CHAINST  DC    Y(FPCHAIN-24*1) PNTR TO BEG. OF CHANNEL-CHAIN
001964 0018                        2129+H24      DC    H'24'
001966 0000                        2130+MARSXT   DC    H'0' 2321 BIN/SUBCELL/STRIP FIELD
001968                             2131+SRCHBCKT DS    XL5'0' SEARCH-BUCKET FOR SYSIN/OUT

                                   2133+*
                                   2134+*      ERROR RECOVERY BLOCK
001970                             2135+         DS    0F BOUNDARY ALLIGN ERROR QUE                3-4
001970 1990                        2136+ERRQ     DC    Y(ERQUE) ERROR QUE ADDR
001972 158E                        2137+ERBLOC   DC    Y(EXRTY) RETRY
001974 156C                        2138+         DC    Y(EXIGN) IGNORE
001976 157A                        2139+         DC    Y(EXWHY) DISWHY
001978 3780                        2140+YCHANQ   DC    Y(CHANQ)
00197A 228E                        2141+         DC    Y(EXCAN) CANCEL
00197C 19E8                        2142+FULQUE   DC    Y(ERQUE+4*L'ERQENT) 3-5
00197E 197A                        2143+ERQPTR   DC    Y(ERQUE-L'ERQENT) ADDR OF LAST ENTRY
001980 0000                        2144+RIK      DC    H'0' REQUESTOR I/O KEY
001982 2292                        2145+         DC    Y(ATNCNL) ATTN CANCEL
001984 22CC                        2146+         DC    Y(PUBDEQ) DEQ, FOR ATTN
001986 01B0                        2147+         DC    Y(ATNEXT) ATTN EXIT
0001B0                             2148+ATNEXT   EQU   EXT02
001988 5B5BC1D5C5D9D940            2149+SVC3NM   DC    CL8'$$ANERR' FETCH NAME
001990                             2150+ERQUE    DS    0CL110 3-5
001990                             2151+ERQENT   DS    0CL22 ERROR QUE ENTRY
001990                             2152+ECSW     DS    CL8 STORED CSW
001998                             2153+PUBENT   DS    CL2 PUB ENTRY OF DEVICE IN ERROR
00199A                             2154+EFLAG    DS    CL1 QUEUE ENTRY FLAG BYTE
00199B                             2155+         DS    CL1 BYTE FOR MESSAGE NUMBER
00199C                             2156+ESEN     DS    CL6 SENSE DATA
0019A2                             2157+         DS    XL92 3-5
       DOS SUPERVISOR - CONSTANTS AND EQUATES                                                                  PAGE   53


  LOC  OBJECT CODE    ADDR1 ADDR2  STMT   SOURCE STATEMENT                                          FDOS CL3-10 03/29/70

0019FE 0700                        2159+         CNOP  0,4
001A00 FF0000FF00FF0000            2160+MAXVAL   DC    X'FF0000FF00FF0000' 3-11
001A08 00000600                    2161+MINVAL   DC    X'00000600' MINIMUM VALUE FOR TIMER     3-11
001A0C 0100                        2162+EXTSMR   DC    X'0100' MASK FOR EXT INT

                                   2164+*
                                   2165+* DATA FIELD FOR GENERAL EXIT
001A0E                             2166+TRTFLD   DS    CL(4+2*1+9*1+2*1) 3-9
001A1F 85                          2167+         DC    X'85'
001A20 605040302010                2168+MVCFLD   DC    X'605040302010'
001A26 0000000000000000            2169+         DC    10X'00' 3-3
001A30 00                          2170+SVANCL   DC    X'00' 3-3
001A31 00                          2171+WHLMSW   DC    X'00' 3-3
001A32 0000
001A34 0000000000000000            2172+PCTAB    DC    30F'0' 3-3
001AAC 0000000000000000            2173+ITTAB    DC    2F'0'
001AB4 0000000000000000            2174+OCTAB    DC    6F'0'
001ACC 0000000000000000            2175+ABTAB    DC    30F'0' 15 AB TABLE ENTRIES              3-3
001B44                             2176+         DS    0F 3-3
001B44 00000000                    2177+TADDSV   DC    F'0' 3-3
001B48                             2178+         DS    0D 3-2
001B48                             2179+PTASAVE  DS    40C
001B70                             2180+IDRASAVE DS    40C SAVE AREA FOR FETCH          3-9
001B98                             2181+         DS    0D ALIGN                        3-9

                                   2183+*
                                   2184+*      LOGICAL TRANSIENT SAVE AREA
001B98                             2185+         DS    0D 3-3
001B98                             2186+LTSAREA  DS    0CL72 LOGICAL TRANSIENT SAVE AREA
001B98 FF05                        2187+LTPSW    DC    X'FF05'
001B9A                             2188+         DS    CL6
001BA0                             2189+LTRG9    DS    CL4
001BA4                             2190+LTRG10   DS    CL4
001BA8                             2191+LTRG11   DS    CL4
001BAC                             2192+LTRG12   DS    CL4
001BB0                             2193+LTRG13   DS    CL4
001BB4                             2194+LTRG14   DS    CL4
001BB8                             2195+LTRG15   DS    CL4
001BBC                             2196+LTRG0    DS    CL4
001BC0                             2197+LTRG1    DS    CL4
001BC4                             2198+LTRG2    DS    CL4
001BC8                             2199+LTRG3    DS    CL4
001BCC                             2200+LTRG4    DS    CL4
001BD0                             2201+LTRG5    DS    CL4
001BD4                             2202+LTRG6    DS    CL4
001BD8                             2203+LTRG7    DS    CL4
001BDC                             2204+LTRG8    DS    CL4
001B90                             2205+LTSVPT   EQU   LTSAREA-8
001BE0                             2206+         DS    5XL8 LNG OF LBL ARA AND FP REGS
       DOS SUPERVISOR - FETCH ROUTINES                                                                         PAGE   54


  LOC  OBJECT CODE    ADDR1 ADDR2  STMT   SOURCE STATEMENT                                          FDOS CL3-10 03/29/70

                                   2208+*360N-CL-453 SGDFCH   CHANGE LEVEL 3-12                            3-12
                                   2209+***      FETCH SUBROUTINE



000000                             2211+BUSYPTA  EQU   0 INDICATES PTA BUSY                   3-9
000085                             2212+ACTSUP   EQU   X'85' SUPERVISOR PIB FLAG FOR ACTIVE       3-9


001C08 4860 048E            0048E  2214+FCHRT2   LH    R6,PIK PUT USER'S KEY IN R6
001C0C 4570 0178            00178  2215+FCHRT1   BAL   R7,SVEREG SAVE ALL USER'S REGS                   3-2
001C10 9540 1000      00000        2216+         CLI   0(R1),BLANK BLANK PHASE NAME            3-11
001C14 4780 00D8            000D8  2217+         BE    ERR22 YES                         3-11
001C18 9500 0099      00099        2218+         CLI   TRTPTA,IDRA00 IS PTA BUSY                  3-9
001C1C 4780 BC28            01C28  2219+         BE    IDRAST1 YES DONT MAKE IT BUSY        3-9
001C20 9200 0099      00099        2220+         MVI   TRTPTA,IDRA00 INIDICATE PTA BUSY           3-9
001C24 9601 B74B      0174B        2221+         OI    IDRASW+1,IDRA01 SET PTA BUSY SWITCH          3-9
001C28                             2222+IDRAST1  EQU   * 3-9
001C28 9120 A002      00002        2223+         TM    PIBFLG+2,X'20' IS THIS QUISIO OR SUPVR     3-11
001C2C 4770 BC34            01C34  2224+         BNZ   IDRANOPQ BR IF YES                   3-11
001C30 9289 A000      00000        2225+FCHRT4   MVI   PIBFLG,IDRA89 INIDICATE IDRA BOUND         3-9
001C34                             2226+IDRANOPQ EQU   * 3-11
001C34 9500 009B      0009B        2227+         CLI   TRTIDRA,IDRA00 IS IDRA BUSY                 3-9
001C38 4780 C20C            0220C  2228+         BE    RESVC1 YES                          3-9
001C3C 94BF A001      00001        2229+         NI    PIBCNCL,X'FF'-CANCALL RESET CANCEL CALL FLAG       3-2
001C40                             2230+FCHRT3   EQU   * 3-9
001C40 9202 B981      01981        2231+         MVI   RIK+ONE,FCHID .     INDICATE FETCH IN RIK            3-9
001C44 D200 C006 041F 02006 0041F  2232+         MVC   FIK1,PID+ONE .      SAVE PID                         3-9
001C4A 9260 048F      0048F        2233+         MVI   PIK+1,SPID MAKE PIK THAT OF THE SUPVR
001C4E 4260 BFF5            01FF5  2234+         STC   R6,FIK SAVE USER'S KEY IN FIK
001C52 4120 1007            00007  2235+         LA    R2,7(0,R1) VALIDATE LOCATION OF PHASE-NAME
001C56 4570 B6A8            016A8  2236+         BAL   R7,VLDADR2 *
001C5A 9200 009B      0009B        2237+         MVI   TRTIDRA,IDRA00 INDICATE IDRA BUSY           3-9


                                   2239+*        THE FOLLOWING TWO INSTRUCTIONS WILL BE EXECUTED ONCE ONLY (AT
                                   2240+*        IPL-TIME) AND WILL THEN BE REPLACED BY
                                   2241+*
                                   2242+*        ST    R4,FCHSAV   SAVE RETURN ADDR                         3-3
                                   2243+*       LH     R9,IDRADD               POINT TO IDRA                3-9


001C5E 48F0 D62E            0362E  2245+         LH    RF,LTADD GET ADDRESS OF LTA
001C62 057F                        2246+         BALR  R7,RF BRANCH TO TEMP CODE IN LTA             3-9
001C64 0000                        2247+         DC    X'0000' TO BE OVERLAYED AFTER IPL               3-3
                                   2248+         DROP  RE 3-9
000000                             2249+         USING DIRECTRY,RE BASE FOR DIRECTRY DSECT     3-9


001C66 D207 9000 1000 00000 00000  2251+         MVC   0(IDRA8,R9),0(R1) MOVE PHASE NAME TO IDRA      3-9
       DOS SUPERVISOR - FETCH ROUTINES                                                                         PAGE   55


  LOC  OBJECT CODE    ADDR1 ADDR2  STMT   SOURCE STATEMENT                                          FDOS CL3-10 03/29/70

                                   2253+         DROP  RE 3-9
001C6C 58E0 034C            0034C  2254+         L     RE,BASRGS+12 INITIALIZE BASE REG          3-9
000000                             2255+         USING SYSS00,R0,RB,RC,RD,RE 3-9
001C70 9530 C006      02006        2256+         CLI   FIK1,F1IDEN BG, F2, OR F1                   3-11
001C74 4720 BCCC            01CCC  2257+         BH    SCIL2 NO, DON'T USE PRIVATE CIL       3-11
001C78 1B88                        2258+         SR    R8,R8 .             CLEAR WORK REG                   3-9
001C7A 4380 C006            02006  2259+         IC    R8,FIK1 .           PICKUP CALLER ID                 3-9
001C7E 8880 0003            00003  2260+         SRL   R8,THREE .          DIVIDE IT BY 8                   3-9
001C82 1188                        2261+         LNR   R8,R8 .             MAKE IT NEGATIVE                 3-9
001C84 4388 D4E0            034E0  2262+         IC    R8,CLBLUBS(R8) .    PICKUP CLB PUB PTR               3-9
001C88 4280 B8AF            018AF  2263+         STC   R8,CLBHOLD .        STORE CLB PUB PTR                3-9
001C8C 955B 9000      00000        2264+PCIL1    CLI   ZERO(R9),DOLLAR .   $ PHASE                          3-9
001C90 4780 BCCC            01CCC  2265+         BE    SCIL2 .             YES, USE SYSTEM CIL              3-9
001C94 95FF B8AF      018AF        2266+PCIL2    CLI   CLBHOLD,UNASSGN .   IS PRIVATE CIL UNASSIGNED        3-9
001C98 4780 BCC4            01CC4  2267+         BE    SCIL1 .             YES, USE SYSTEM CIL              3-9
001C9C 1B88                        2268+         SR    R8,R8 .             CLEAR WORK REG                   3-9
001C9E 4380 B8AF            018AF  2269+         IC    R8,CLBHOLD .        PICKUP CLB PUB PTR               3-9
001CA2 8980 0003            00003  2270+         SLL   R8,THREE .          MULTIPLY IT BY 8                 3-9
001CA6 4A80 0430            00430  2271+         AH    R8,PUBPT .          FIND ADDR OF CLB PUB             3-9
001CAA 4080 C064            02064  2272+         STH   R8,PUBCLB .         STORE ADDR OF CLB PUB            3-9
001CAE 920B B847      01847        2273+         MVI   TXTLUB,SYSCLB .     PT TXTCCB TO PRIVATE CIL         3-9
001CB2 58E0 034C            0034C  2274+         L     RE,BASRGS+12 INITIALIZE BASE REGISTER        3-11
001CB6 1B88                        2275+         SR    R8,R8 .             CLEAR WORK REGISTER              3-9
001CB8 4380 C006            02006  2276+         IC    R8,FIK1 .           PICKUP PID DISPLACEMENT          3-9
001CBC 4888 D4E0            034E0  2277+         LH    R8,PIB2AD(R8) .     PICKUP ADDR OF CORRECT COMREG    3-9
001CC0 47F0 BCD0            01CD0  2278+         B     PICKDIR .           SELECT DIRECTORY                 3-9
                                   2279+         DROP  RE 3-9
000000                             2280+         USING DIRECTRY,RE 3-9
001CC4 955B 9000      00000        2281+SCIL1    CLI   ZERO(R9),DOLLAR .   $ PHASE                          3-9
001CC8 4780 BDAE            01DAE  2282+         BE    TESTSVC .           YES, PHASE NOT FOUND             3-9
001CCC 9206 B847      01847        2283+SCIL2    MVI   TXTLUB,SYSRES .     PT TXTCCB TO SYSTEM CIL          3-9
001CD0 1B44                        2284+PICKDIR  SR    R4,R4 .             CLEAR WORK REG FOR LA-TABLE      3-9
001CD2 9604 B843      01843        2285+         OI    TXTCCB+3,X'04' SET RETRY ON NRF                 3-11
001CD6 9140 0429      00429        2286+         TM    JCSW2,X'40' SUBDIRECTORY BEING REBUILT            3-10
001CDA 4780 BCE2            01CE2  2287+         BZ    NOMOD NO,ALLOW RETRY                        3-11
001CDE 94FB B843      01843        2288+         NI    TXTCCB+3,X'FB' RESET RETRY ON NRF               3-11
001CE2                             2289+NOMOD    EQU   * 3-11
001CE2 D503 9000 0460 00000 00460  2290+         CLC   0(4,R9),DOLLARBO OPEN PHASE?
001CE8 4780 BD34            01D34  2291+         BE    OPCLOSE YES
001CEC D501 0030 9000 00030 00000  2292+CLCEX    CLC   DOLLARB(2),0(R9) A OR B TRANSIENT?
001CF2 4780 BD38            01D38  2293+         BE    ABTRANS YES
001CF6 955B 9000      00000        2294+         CLI   0(R9),DOLLAR PREFERRED PROGRAM PHASE?
001CFA 4780 BD30            01D30  2295+         BE    PREFERED YES
001CFE D502 9000 B8AC 00000 018AC  2296+         CLC   0(3,R9),FGPCON FGP-PHASE?
001D04 4780 BD2C            01D2C  2297+         BE    FGP YES
001D08 9510 C006      02006        2298+         CLI   FIK1,X'10' BACKGROUND REQUEST                3-3
001D0C 47D0 BD28            01D28  2299+         BNH   PHASE YES, START AT PHASE DIRECTORY          3-9
001D10 950B B847      01847        2300+         CLI   TXTLUB,SYSCLB .     GOING TO SEARCH PRIVATE CID      3-9
001D14 4770 BD20            01D20  2301+         BNE   LCIDAR .            NO, GO START AT MAIN DIR.        3-9
001D18 9120 8039      00039        2302+         TM    LINKBYTE(R8),ALLOWEX IS ALLOW EXEC BIT ON            3-9
                                   2303+*IF FG LINK & GO, LINKED PHASES ARE IN PCIL PHASE DIRECTORY.        3-9
       DOS SUPERVISOR - FETCH ROUTINES                                                                         PAGE   56


  LOC  OBJECT CODE    ADDR1 ADDR2  STMT   SOURCE STATEMENT                                          FDOS CL3-10 03/29/70

001D1C 4710 BD28            01D28  2304+         BO    PHASE .             YES, START AT PHASE DIR.         3-9
001D20                             2305+LCIDAR   EQU   * .                                                  3-9
001D20                             2306+CIDONLY  EQU   * 3-10
001D20 5840 B90C            0190C  2307+         L     R4,CIDAR START IN MAIN DIRECTORY     3-10
001D24 47F0 BD3C            01D3C  2308+         B     SETSKAD
                                   2309+*        CALCULATE DIRECTORY STARTING ADDRESS FROM LA-TABLE
001D28                             2310+PHASE    EQU   *
001D28 4144 0100            00100  2311+         LA    R4,EQU9(R4) PHASE-DIR.
001D2C 4144 0100            00100  2312+FGP      LA    R4,EQU8(R4) FGP-DIR.
001D30 4144 0100            00100  2313+PREFERED LA    R4,EQU7(R4) PREFERRED DIR.
001D34 4144 0100            00100  2314+OPCLOSE  LA    R4,EQU6(R4) OPEN DIR.
001D38 4144 0501            00501  2315+ABTRANS  LA    R4,EQU5(R4) TRANS. DIR.
001D3C                             2316+SETSKAD  EQU   *
001D3C D207 B818 B828 01818 01828  2317+         MVC   RDCCW(8),DIRCCW SET UP READ-CCW TO READ DIRECTORY
001D42 950B B847      01847        2318+         CLI   TXTLUB,SYSCLB .     GOING TO SEARCH PRIVATE CID      3-9
001D46 4770 BD58            01D58  2319+         BNE   SETSK .             NO, LEAVE PTR TO CYL 0 OR 1      3-9
001D4A 4888 0060            00060  2320+         LH    R8,DIBDISP(R8) .    PICKUP CORRECT DIB PTR           3-9
001D4E 4388 0007            00007  2321+         IC    R8,SEVEN(R8) .      PICKUP SYSCLB DIB                3-9
001D52 8980 0018            00018  2322+         SLL   R8,CPOS .           SHIFT TO C POSITION OF CHHR      3-9
001D56 1A48                        2323+         AR    R4,R8 .             ADD PCIL CYL TO CHHR             3-9
001D58 5040 B908            01908  2324+SETSK    ST    R4,SKADR+THREE .    PLANT CHHR IN SEEK ADDR          3-9
001D5C 4580 BF3E            01F3E  2325+RDDIR2   BAL   R8,READUPDT READ DISK AND UPDATE DISK ADDR
001D60 18E9                        2326+         LR    RE,R9 LOAD DSECT-BASE WITH ORIGIN OF PTA
001D62 4180 9168            00168  2327+         LA    R8,DIRLGH(0,R9) LIMIT SEARCH TO 18 ENTRIES
001D66 955C E008      00008        2328+LOOKUP   CLI   DIRNAME,ENDSGN
001D6A 41F0 01B0            001B0  2329+         LA    RF,EXT02 SAVE SVC 23 RETURN ADDR
001D6E 4780 BD8A            01D8A  2330+         BE    NOTFOUND .          LAST ENTRY IN MAIN DIRECTORY     3-9
001D72 D507 9000 E008 00000 00008  2331+         CLC   0(8,R9),DIRNAME CORRECT PHASE?
001D78 4780 BDBC            01DBC  2332+         BE    TSTSVC YES
001D7C 41E0 E014            00014  2333+         LA    RE,20(0,RE) INCREMENT DSECT-BASE BY 20
001D80 15E8                        2334+         CLR   RE,R8 STILL WITHIN I/O AREA
001D82 4740 BD66            01D66  2335+         BL    LOOKUP YES
001D86 47F0 BD5C            01D5C  2336+         B     RDDIR2
001D8A 9530 C006      02006        2337+NOTFOUND CLI   FIK1,F1IDEN .       BG, F2, OR F1                   3-11
001D8E 47D0 BD9E            01D9E  2338+         BNH   NOTSUP .            YES, NOT SUPVR                   3-9
001D92 4400 BDAE            01DAE  2339+         EX    0,TESTSVC REGULAR FETCH?               3-9
001D96 4720 B53A            0153A  2340+         BH    SUPCNL YES,HARD WAIT                3-9
001D9A 47F0 BDDA            01DDA  2341+         B     FCHEXIT1 NO,RETURN                   3-11
001D9E                             2342+NOTSUP   EQU   * .                                                  3-9
001D9E 950B B847      01847        2343+         CLI   TXTLUB,SYSCLB .     NOT FOUND ON PRIVATE CIL         3-9
001DA2 4780 BCC4            01CC4  2344+         BE    SCIL1 .             YES, TRY SYSTEM CIL              3-9
001DA6 955B 9000      00000        2345+         CLI   ZERO(R9),DOLLAR .   $ PHASE                          3-9
001DAA 4780 BC94            01C94  2346+         BE    PCIL2 .             YES, TRY PRIVATE CIL             3-9
001DAE                             2347+TESTSVC  EQU   * ENTERED IF PHASE NOT FOUND   3-9
001DAE D503 C060 C05C 02060 0205C  2348+         CLC   FCHSAV(L'FCHSAV),FCHCON REGULAR FETCH?               3-9
001DB4 4720 BDE0            01DE0  2349+         BH    ERR22TST YES,CANCEL                  3-11
001DB8 47F0 BDDA            01DDA  2350+         B     FCHEXIT1 RELEASE FETCH               3-11
001DBC                             2351+TSTSVC   EQU   * ENTERED IF PHASE FOUND       3-9
001DBC 4400 BDAE            01DAE  2352+         EX    0,TESTSVC REGULAR FETCH?               3-9
001DC0 4720 BDFA            01DFA  2353+         BH    GETENTRY YES,CONTINUE                 3-9
001DC4 1840                        2354+         LR    R4,R0 MOVE LOAD-ADDR INTO AREA OF SVC 23 CALLER     3-3
       DOS SUPERVISOR - FETCH ROUTINES                                                                         PAGE   57


  LOC  OBJECT CODE    ADDR1 ADDR2  STMT   SOURCE STATEMENT                                          FDOS CL3-10 03/29/70

001DC6 4780 BDD4            01DD4  2355+         BE    ISSVC51 IF EQUAL IS AN SVC 51        3-9
001DCA D202 4001 E010 00001 00010  2356+         MVC   ONE(L3,R4),LOADADDR MOVE LOAD ADDR TO CALLER     3-9
001DD0 47F0 BDDA            01DDA  2357+         B     FCHEXIT1 GO RESET IDRA               3-11
001DD4                             2358+ISSVC51  EQU   * ENTERED IF SVC 51            3-9
001DD4 D20B 4000 E010 00000 00010  2359+         MVC   ZERO(OLTPAREA,R4),LOADADDR MOVE PHASE HEADER TO OLTP 3-9
001DDA                             2360+FCHEXIT1 EQU   * 3-11
001DDA 184F                        2361+         LR    R4,RF LOAD EXIT ADDR              3-11
001DDC 47F0 BF02            01F02  2362+         B     FCHEXIT RELEASE FETCH               3-11
001DE0                             2363+ERR22TST EQU   * 3-11
001DE0 4140 BDE8            01DE8  2364+         LA    R4,FLERR22 LOAD EXIT ADDR              3-11
001DE4 47F0 BF02            01F02  2365+         B     FCHEXIT RELEASE FETCH               3-11
001DE8 9500 BE1F      01E1F        2366+FLERR22  CLI   CEFLTHK2+1,X'00' F/L TRACE ACTIVE?           3-10
001DEC 4770 00D8            000D8  2367+         BNE   ERR22 NO:GO TO CANCEL IMMEDIATELY 3-10
001DF0 1B11                        2368+         SR    R1,R1 LOAD PHASE NOT FOUND COND   3-10
001DF2 0610                        2369+         BCTR  R1,0 IN LOAD ADDRESS             3-10
001DF4 1601                        2370+         OR    R0,R1 AND ENTRY ADDRESS           3-10
001DF6 47F0 BE1E            01E1E  2371+         B     CEFLTHK2 3-10
001DFA 5880 E014            00014  2372+GETENTRY L     R8,ENTRYADR GET LE ENTRY ADDR
001DFE 8880 0008            00008  2373+         SRL   R8,8
001E02 5870 E010            00010  2374+         L     R7,LOADADDR GET L/E LOAD-ADDR
001E06 8870 0008            00008  2375+         SRL   R7,8 *
001E0A 1200                        2376+         LTR   R0,R0 OVERRIDING LOAD-ADDR SUPPLIED?
001E0C 4780 BE1A            01E1A  2377+         BZ    NOLOADAD NO
001E10 1810                        2378+         LR    R1,R0 SAVE SUPPLIED LOAD-ADDR IN R1
001E12 1B87                        2379+         SR    R8,R7
001E14 1A08                        2380+         AR    R0,R8
001E16 47F0 BE1E            01E1E  2381+         B     EXPAND
001E1A 1808                        2382+NOLOADAD LR    R0,R8 LE ENTRY ADDR INTO R0
001E1C 1817                        2383+         LR    R1,R7 L/E LOAD-ADDR INTO R1
001E1E                             2384+EXPAND   EQU   *
                                   2385+*                                                                   3-1
                                   2386+*              THIS HOOK DEPENDS ON REG 8 BEING AVAILABLE FOR USE.  3-1
                                   2387+*              THE FOLLOWING EIGHT STATEMENTS ARE USED BY THE CE    3-1
                                   2388+*                            FETCH-LOAD TRACE ROUTINE FOR LINKAGE   3-1
                                   2389+*                                                                   3-1
001E1E 47F0 BE44            01E44  2390+CEFLTHK2 BC    15,NOCEFLT2 BRANCH UNLESS FETCH/LOAD TRACE ACTIVE  3-1
001E22 96F0 BEB3      01EB3        2391+         OI    CEDYNHK+1,X'F0' RESET DYNAMIC DUMP AND PATCH HOOK    3-1
001E26 5880 008C            0008C  2392+         L     R8,CETABPTR LOAD BASE REGISTER FOR NEXT INSTRUCTION3-1
001E2A 909B 8050            00050  2393+         STM   R9,RB,80(R8) SAVE REGISTERS 9,10,11                 3-1
001E2E 1898                        2394+         LR    R9,R8 LOAD CE AREA BASE REGISTER             3-1
001E30 4880 0090            00090  2395+         LH    R8,CEPIK GET VALUE OF PIK FOR PARTITION TES3-1
001E34 45A9 0068            00068  2396+         BAL   RA,104(R9) GO TO FETCH/LOAD TRACE ROUTINE         3-1
001E38 989B 9050            00050  2397+         LM    R9,RB,80(R9) RESTORE REGISTERS                      3-1
001E3C 955C E008      00008        2398+         CLI   DIRNAME,ENDSGN PHASE NOT FOUND?            3-10
001E40 4780 00D8            000D8  2399+         BE    ERR22 YES:CANCEL                  3-10
001E44                             2400+NOCEFLT2 EQU   * 3-1
001E44 D202 B909 E017 01909 00017  2401+         MVC   SKADR+4(3),CILCHR SET UP LIBRARY SEEK- ADDR FROM
001E4A D200 B908 B909 01908 01909  2402+         MVC   SKADR+3(1),SKADR+4 * DIRECTORY
001E50 9200 B909      01909        2403+         MVI   SKADR+4,0 *
001E54 D201 B81E B7CE 0181E 017CE  2404+         MVC   RDCCW+6(2),RCLCIL INIT. BLOCK SIZE IN READ CCW
001E5A 1B99                        2405+         SR    R9,R9 SAVE NUMBER OF TXT-BLOCKS FROM DIR
       DOS SUPERVISOR - FETCH ROUTINES                                                                         PAGE   58


  LOC  OBJECT CODE    ADDR1 ADDR2  STMT   SOURCE STATEMENT                                          FDOS CL3-10 03/29/70

001E5C 4390 E013            00013  2406+         IC    R9,NOBLOCKS *
001E60 D201 B7CC E01A 017CC 0001A  2407+         MVC   SHORTLGT,LASTLGTH SAVE LENGTH OF LAST BLOCK FROM DIR.
001E66 4880 B7CE            017CE  2408+RDTXT    LH    R8,RCLCIL SET RC TO FULL TXT REC SIZE
001E6A 4690 BE76            01E76  2409+         BCT   R9,DATAADDR BRANCH IF FULL TXT BLOCK
001E6E 4880 B7CC            017CC  2410+         LH    R8,SHORTLGT GET LENGTH OF LAST BLOCK FROM DIR
001E72 4080 B81E            0181E  2411+         STH   R8,RDCCW+6 SET UP LAST BLOCK COUNT IN READ CCW
001E76 1821                        2412+DATAADDR LR    R2,R1 VALIDATE ADDR FOR READ AREA       3-8
001E78 9203 009B      0009B        2413+         MVI   TRTIDRA,IDRA03 INDICATE IDRA FREE           3-9
001E7C 58E0 034C            0034C  2414+         L     RE,BASRGS+12 3-9
001E80 4570 B6A4            016A4  2415+         BAL   R7,VLDADR3 *                                 3-8
001E84 4880 B81E            0181E  2416+         LH    R8,RDCCW+6 *                                 3-8
001E88 0620                        2417+         BCTR  R2,0 *                                 3-8
001E8A 1A28                        2418+         AR    R2,R8 *                                 3-8
001E8C 4570 B6A4            016A4  2419+         BAL   R7,VLDADR3 CHECK ADDR LIMITS                 3-8
001E90 9200 009B      0009B        2420+         MVI   TRTIDRA,IDRA00 INDICATE IDRA BUSY           3-9
001E94 5010 B818            01818  2421+         ST    R1,RDCCW STORE DATA IN READ CCW            3-8
001E98 9286 B818      01818        2422+         MVI   RDCCW,X'86' *
001E9C 4580 BF3E            01F3E  2423+         BAL   R8,READUPDT
001EA0 5810 B818            01818  2424+         L     R1,RDCCW UPDATE LOAD-ADDR FOR NEXT BLOCK
001EA4 4110 1000            00000  2425+         LA    R1,0(0,R1) *
001EA8 4A10 B81E            0181E  2426+         AH    R1,RDCCW+6 *
001EAC 1299                        2427+         LTR   R9,R9 ANY MORE TXT-BLOCKS TO BE LOADED?
001EAE 4720 BE66            01E66  2428+         BC    2,RDTXT YES
000000                             2429+         USING SYSS00,R0,RB,RC,RD,RE 3-9
                                   2430+*                                                                   3-2
                                   2431+*        THE FOLLOWING HOOK DEPENDS ON REG 9 BEING AVAILABLE FOR USE3-2
                                   2432+*        THE FOLLOWING SIX STATEMENTS ARE USED BY THE CE DYNAMIC DUM3-2
                                   2433+*              AND DYNAMIC PATCH ROUTINE FOR LINKAGE.               3-2
                                   2434+*                                                                   3-2
001EB2 47F0 BECA            01ECA  2435+CEDYNHK  BC    15,NOCEDNHK BRANCH UNLESS ROUTINE ACTIVE           3-2
001EB6 92F0 BEB3      01EB3        2436+         MVI   CEDYNHK+1,X'F0' TURN OFF HOOK                     3-2
001EBA 5890 008C            0008C  2437+         L     R9,CETABPTR LOAD CE AREA BASE REGISTER             3-2
001EBE 90AD 9050            00050  2438+         STM   RA,RD,80(R9) SAVE REGISTERS 9-13               3-2
001EC2 45A9 0060            00060  2439+         BAL   RA,96(R9) GO TO ROUTINE                     3-2
001EC6 98AD 9050            00050  2440+         LM    RA,RD,80(R9) RESTORE REGISTERS 9-13            3-2
001ECA                             2441+NOCEDNHK EQU   * 3-2
001ECA 9500 BFF5      01FF5        2442+         CLI   FIK,X'00' 3-2
001ECE 4780 BEFA            01EFA  2443+         BE    SETSVAR 3-2
001ED2 4190 D4E0            034E0  2444+         LA    R9,PIB2AD 3-2
001ED6 4A90 BFF4            01FF4  2445+         AH    R9,FIK-1 3-2
001EDA 4899 0000            00000  2446+         LH    R9,0(R9) SET UPPERMOST BYTE OF THE PHASE IN  3-2
001EDE 0610                        2447+         BCTR  R1,0 THE PROPER COMMUNICATIONS REGION
001EE0 4919 0008            00008  2448+         CH    R1,8(R9)
001EE4 4740 BEFA            01EFA  2449+         BL    SETSVAR
001EE8 4840 B748            01748  2450+         LH    R4,IDRADD DO NOT STORE END ADDRESS    3-11
001EEC D506 4000 B958 00000 01958  2451+         CLC   0(7,R4),ATTNNM OF ATTENTION PHASES        3-12
001EF2 4780 BEFA            01EFA  2452+         BE    SETSVAR *                           3-11
001EF6 5019 0024            00024  2453+         ST    R1,36(R9) *
001EFA 5890 A004            00004  2454+SETSVAR  L     R9,4(0,RA) STORE ADDR OF SAVE-AREA IN R9
001EFE 5840 C060            02060  2455+         L     R4,FCHSAV LOAD RETURN ADDR                         3-3
001F02                             2456+FCHEXIT  EQU   * 3-11
       DOS SUPERVISOR - FETCH ROUTINES                                                                         PAGE   59


  LOC  OBJECT CODE    ADDR1 ADDR2  STMT   SOURCE STATEMENT                                          FDOS CL3-10 03/29/70

001F02 9200 B981      01981        2457+         MVI   RIK+1,X'00' 3-3
001F06 9203 009B      0009B        2458+         MVI   TRTIDRA,IDRA03 INDICATE IDRA FREE           3-9
001F0A 9101 B74B      0174B        2459+         TM    IDRASW+1,IDRA01 HAS PTA BEEN SET BUSY        3-9
001F0E 4780 BF16            01F16  2460+         BZ    IDRAST2 NO                           3-9
001F12 9203 0099      00099        2461+         MVI   TRTPTA,IDRA03 INDICATE PTA FREE            3-9
001F16                             2462+IDRAST2  EQU   * 3-9
001F16 9102 B74B      0174B        2463+         TM    IDRASW+1,IDRA02 IS SVC 3 WAITING TO FETCH    3-9
001F1A 4780 BF22            01F22  2464+         BZ    IDRAST3 NO                           3-9
001F1E 9285 D640      03640        2465+         MVI   PIBSUPVR,IDRA85 INDICATE SUPVR ACTIVE        3-9
001F22                             2466+IDRAST3  EQU   * 3-9
001F22 9200 B74B      0174B        2467+         MVI   IDRASW+1,IDRA00 RESET SWITCH                 3-9
001F26 9500 0099      00099        2468+         CLI   TRTPTA,BUSYPTA IS THE PTA BUSY                      3-9
001F2A 4770 BF32            01F32  2469+         BNE   SUPNEXT NO, ALLOW IDRA TO FIBISH             3-9
001F2E 9285 D640      03640        2470+         MVI   PIBSUPVR,ACTSUP MAKE SUPVR ACTIVE FOR TASK SELECT.   3-9
001F32                             2471+SUPNEXT  EQU   * 3-9
001F32 9120 A002      00002        2472+         TM    2(RA),X'20' IS THIS SUPVR/QUIS                     3-9
001F36 0714                        2473+         BCR   O,R4 YES -- BRANCH                          3-9
001F38 9283 A000      00000        2474+         MVI   0(RA),X'83' NO -- RESET PIB FLAG                   3-9
001F3C 07F4                        2475+         BR    R4 RETURN                                           3-3



                                   2477+***      SUBROUTINE TO READ DIR OR TXT-RECORDS AND UPDATE THE DISK-ADDR



001F3E                             2479+READUPDT DS    0H 3-9
001F3E 5080 033C            0033C  2480+         ST    R8,SVBSR8 .         SAVE R8                          3-9
001F42 9620 B74A      0174A        2481+         OI    IDRASW,IDRA20 SET QUIS BIT                 3-9
001F46 4170 B676            01676  2482+         LA    R7,QISRT2 .         POINT TO QUIESE SYSRES           3-9
001F4A 950B B847      01847        2483+         CLI   TXTLUB,SYSCLB .     READ FROM PCIL                   3-9
001F4E 4770 BF5A            01F5A  2484+         BNE   QISRES .            NO, QUIESE SYSRES                3-9
001F52 4170 B686            01686  2485+         LA    R7,QISRT1 .         QUIESE SYSCLB                    3-9
001F56 48F0 C064            02064  2486+         LH    RF,PUBCLB .         POINT TO SYSCLB PUB              3-9
001F5A 05E7                        2487+QISRES   BALR  RE,R7 .             GO TO QUIESE RTN                 3-9
000000                             2488+         USING PUBADR,RF
001F5C 9190 F006      00006        2489+         TM    PUBCSFLG,QEDERR+DEVBSY DVC BUSY AND ERROR QUEUED     3-4
001F60 4710 BF6C            01F6C  2490+         BC    1,NOTBONLY BOTH                                     3-4
001F64 9180 F006      00006        2491+         TM    PUBCSFLG,DEVBSY BUSY ONLY                           3-4
001F68 4710 B686            01686  2492+         BC    1,QISRT1 YES                                        3-4
                                   2493+         DROP  RF
001F6C 95FF 09CF      009CF        2494+NOTBONLY CLI   FLPTR,X'FF' CHANQ FREE              3-6
001F70 4780 BF6C            01F6C  2495+         BE    NOTBONLY NO, WAIT UNTILL AVAIL.  3-6
001F74 45E0 C026            02026  2496+         BAL   RE,RSTPUB 3-6
001F78 41F0 B840            01840  2497+         LA    RF,TXTCCB EXCP
001F7C 92F0 09B1      009B1        2498+         MVI   EXCP3A+1,X'F0' AVOID TEST                       3-4
001F80 9280 B74A      0174A        2499+         MVI   IDRASW,IDRA80 SET IDRA SVC 0 BIT           3-9
001F84 9202 B981      01981        2500+         MVI   RIK+1,FCHID SET RIK FOR I/O REQUEST     3-11
001F88 0A00                        2501+         SVC   0
001F8A 9220 09B1      009B1        2502+         MVI   EXCP3A+1,X'20' RESTORE SWITCH                   3-4
001F8E                             2503+WAITLOOP EQU   * 3-9
       DOS SUPERVISOR - FETCH ROUTINES                                                                         PAGE   60


  LOC  OBJECT CODE    ADDR1 ADDR2  STMT   SOURCE STATEMENT                                          FDOS CL3-10 03/29/70

001F8E 9180 B842      01842        2504+         TM    TXTCCB+2,TRABIT IS FETCH DONE                3-9
001F92 4710 BFAA            01FAA  2505+         BO    FIODONE YES                          3-9
001F96 9284 D640      03640        2506+         MVI   PIBSUPVR,IDRA84 POST SUPVR                   3-9
001F9A 9090 BB78            01B78  2507+         STM   R9,R0,IDRASAVE+8 SAVE REGISTERS               3-9
001F9E 4180 BF8E            01F8E  2508+         LA    R8,WAITLOOP LOAD RETURN ADDR             3-9
001FA2 5080 BB74            01B74  2509+         ST    R8,IDRASAVE+4 AND STORE IN PSW             3-9
001FA6 47F0 01B0            001B0  2510+         B     EXT02 GO TO TASK SELECT


001FAA                             2512+FIODONE  EQU   * 3-9
001FAA 9200 B981      01981        2513+         MVI   RIK+1,ZERO RESET RIK                   3-11
001FAE 9200 B74A      0174A        2514+         MVI   IDRASW,IDRA00 TURN OFF IDRA SWITCH         3-9
001FB2 48F0 D648            03648  2515+         LH    RF,PUBRES ADDR OF SYSRES PUB                     3-2
001FB6 950B B847      01847        2516+         CLI   TXTLUB,SYSCLB .     IS READ FROM PCIL                3-9
001FBA 4770 BFC2            01FC2  2517+         BNE   RESQD .             NO, POINT TO SYSRES PUB          3-9
001FBE 48F0 C064            02064  2518+         LH    RF,PUBCLB .         YES, POINT TO SYSCLB PUB         3-9
001FC2                             2519+RESQD    EQU   * .                                                  3-9
000000                             2520+         USING PUBADR,RF 3-2
001FC2 95FF F002      00002        2521+         CLI   PUBCHQPT,X'FF' ANY MORE CCBS QUEUED FOR SYSRES      3-2
001FC6 4770 BFCE            01FCE  2522+         BNE   *+8 YES, DO NOT RESTORE PUBS               3-2
                                   2523+         DROP  RF 3-2
001FCA 45E0 C026            02026  2524+         BAL   RE,RSTPUB RESTORE PUB FLAGS
001FCE 5880 033C            0033C  2525+         L     R8,SVBSR8 SAVE R8
001FD2 9120 B843      01843        2526+         TM    TXTCCB+3,ED35 WAS E.O.C. POSTED
001FD6 4780 BFEC            01FEC  2527+         BZ    EXIT1 NO..
001FDA 4370 B908            01908  2528+         IC    R7,SKADR+3 UPDATE CYLINDER NUMBER
001FDE 4177 0001            00001  2529+         LA    R7,1(R7) *
001FE2 4270 0465            00465  2530+         STC   R7,SSKADR+1 *
001FE6 D201 0467 B78E 00467 0178E  2531+         MVC   SSKADR+3(2),BTMHRN RESET HEAD AND RECORD NUMBER
001FEC D204 B907 0464 01907 00464  2532+EXIT1    MVC   SKADR+2(5),SSKADR SET UP ADDR. FOR NEXT READ
001FF2 4160 0000            00000  2533+         LA    R6,0 RESTORE USER'S KEY FROM FIK INTO
001FF5                             2534+FIK      EQU   *-1 * R6,WHICH MIGHT HAVE BEEN DESTROYED
001FF6 D200 041F C006 0041F 02006  2535+         MVC   PID+1(1),FIK1 RESET THE PIK                     3-3
001FFC 9120 B842      01842        2536+         TM    TXTCCB+2,DISERR I/O ERROR DURING FETCH      3-11
002000 4710 C008            02008  2537+         BO    FCHCNCL YES CANCEL PARTITION        3-11
002004 07F8                        2538+         BCR   15,R8
002006 00                          2539+FIK1     DC    X'00' 3-3
002007 00                          2540+TIMSW    DC    X'00' FLAGBYTE FOR SVC 1 ROUTINE      3-11


002008                             2542+FCHCNCL  DS    0H 3-11
002008 48A0 044A            0044A  2543+         LH    RA,PIBPT POINT TO PIBTAB             3-11
00200C 1AA6                        2544+         AR    RA,R6 POINT TO CORRECT PIB        3-11
00200E 9120 A002      00002        2545+         TM    2(RA),X'20' IS IT SUPVR                 3-11
002012 4710 B526            01526  2546+         BO    HARDWT YES HARDWAIT                3-11
002016 9274 00FF      000FF        2547+         MVI   ERRSET0D,X'74' SET CANCELCODE FOR CIL      3-11
00201A 4580 00F2            000F2  2548+         BAL   R8,ERRGO SET CANCEL CODE IN PIB      3-11
00201E 4140 01B0            001B0  2549+         LA    R4,EXT02 EXITADDR                    3-11
002022 47F0 BF02            01F02  2550+         B     FCHEXIT RELEASE FETCH               3-11
       DOS SUPERVISOR - FETCH ROUTINES                                                                         PAGE   61


  LOC  OBJECT CODE    ADDR1 ADDR2  STMT   SOURCE STATEMENT                                          FDOS CL3-10 03/29/70

                                   2552+***    EXCHANGE PUB FLAG SUBROUTINE                                3-11

002026 8000 0058      00058        2554+RSTPUB   SSM   DISABL DISABLE I/O
00202A 187E                        2555+         LR    R7,RE SET R7 WITH RETURN ADDR.               3-9
00202C 58E0 034C            0034C  2556+         L     RE,BASRGS+12 SET RE AS BASE REG.                    3-9
002030 48F0 D648            03648  2557+         LH    RF,PUBRES GET PUB ADDR
002034 950B B847      01847        2558+         CLI   TXTLUB,SYSCLB .     IS READ FROM PCIL                3-9
002038 4770 C040            02040  2559+         BNE   RSTRES .            NO, EXCHANGE SYSRES PUB FLAGS    3-9
00203C 48F0 C064            02064  2560+         LH    RF,PUBCLB .         YES, EXCHANGE SYSCLB PUB FLAGS   3-9
002040                             2561+RSTRES   EQU   * 3-9
000000                             2562+         USING PUBADR,RF
002040 4380 F005            00005  2563+         IC    R8,PUBOPTN SAVE SAB POINTER                 3-9
002044 D704 F002 B900 00002 01900  2564+RSTPUB1  XC    PUBCHQPT(5),PUBSAVE EXCHANGE FLAGS
00204A D704 B900 F002 01900 00002  2565+         XC    PUBSAVE(5),PUBCHQPT
002050 4400 C044            02044  2566+         EX    0,RSTPUB1
002054 4280 F005            00005  2567+         STC   R8,PUBOPTN RESTORE SAB POINTER              3-9
002058 07F7                        2568+         BR    R7 3-9
                                   2569+         DROP  RF
00205A 0000
00205C 00000001                    2570+FCHCON   DC    F'1' FETCH COMPARE CONSTANT       3-9
002060 00000000                    2571+FCHSAV   DC    F'0' 3-3
002064 0000                        2572+PUBCLB   DC    H'0' .              ADDR OF SYSCLB PUB               3-9



                                   2574+***      DSECT FOR DIRECTORY I/O AREA IN PHYS TRANS AREA.  BASE R14



000000                             2576+DIRECTRY DSECT
000000                             2577+CALLNAME DS    CL8 NAME OF PHASE CALLED
000008                             2578+DIRNAME  DS    CL8 PHASE-NAME
000010                             2579+LOADADDR DS    CL3 LOAD-ADDR ESTABLISHED BY L/E
000013                             2580+NOBLOCKS DS    CL1 NUMBER OF TXT-BLOCKS
000014                             2581+ENTRYADR DS    CL3 ENTRY-ADDR ESTABLISHED BY L/E
000017                             2582+CILCHR   DS    CL3 START ADDR OF PHASE IN LIBRARY
00001A                             2583+LASTLGTH DS    CL2 LENGTH OF LAST TXT-BLOCK IN LIBRARY
000000                             2584+IJBSUP20 CSECT


000002                             2586+IDRA2    EQU   2 3-9
000008                             2587+IDRA8    EQU   8 3-9
000014                             2588+IDRAD20  EQU   20
000000                             2589+IDRA00   EQU   X'00' 3-9
000001                             2590+IDRA01   EQU   X'01' 3-9
000002                             2591+IDRA02   EQU   X'02' 3-9
000003                             2592+IDRA03   EQU   X'03' 3-9
000020                             2593+IDRA20   EQU   X'20' 3-9
000040                             2594+IDRA40   EQU   X'40' 3-9
00007F                             2595+IDRA7F   EQU   X'7F' 3-9
000080                             2596+IDRA80   EQU   X'80' 3-9
       DOS SUPERVISOR - FETCH ROUTINES                                                                         PAGE   62


  LOC  OBJECT CODE    ADDR1 ADDR2  STMT   SOURCE STATEMENT                                          FDOS CL3-10 03/29/70

000084                             2597+IDRA84   EQU   X'84' 3-9
000085                             2598+IDRA85   EQU   X'85' 3-9
000089                             2599+IDRA89   EQU   X'89' 3-9
0000A0                             2600+IDRAA0   EQU   X'A0' 3-9
0000E0                             2601+IDRAE0   EQU   X'E0' 3-9
       DOS SUPERVISOR - SVC INTERRUPT ROUTINES                                                                 PAGE   63


  LOC  OBJECT CODE    ADDR1 ADDR2  STMT   SOURCE STATEMENT                                          FDOS CL3-10 03/29/70

                                   2603+*360N-CL-453 SGSVC      CHANGE LEVEL 3-12                          3-12
                                   2604+***************          SVC INTERRUPT ROUTINES              **********



                                   2606+*
                                   2607+* THE OBJECTIVE OF SVC1 IS TO LOAD AND EXECUTE A PROBLEM PROG PHASE
002066 4570 0178            00178  2608+SVC01    BAL   R7,SVEREG SAVE THE USERS REGS
000000                             2609+         USING SVEARA,R9 3-9
00206A D500 041F 045B 0041F 0045B  2610+         CLC   PID+1(1),PWTIMS+1 PARTITION OWN TIMER         3-12
002070 4770 C086            02086  2611+         BNE   SVC01C NO, BRANCH                  3-11
002074 9680 C007      02007        2612+         OI    TIMSW,X'80' INDICATE TIMERSUPPORT            3-11
002078 5860 BAAC            01AAC  2613+         L     R6,ITTAB GET IT ROUTINE ADDRESS           3-11
00207C 1266                        2614+         LTR   R6,R6 RUOTINE NON-EXISTENT OR FREE     3-11
00207E 47B0 C086            02086  2615+         BNM   SVC01C YES                              3-11
002082 947F C007      02007        2616+         NI    TIMSW,X'7F' ROUTINE IS BUSY, SO SVC1 IS      3-11
                                   2617+*                                 ISSUED BY IT-ROUTINE             3-11
                                   2618+*                                 TREAT AS IF NO TIMER SUPPORT     3-11
002086                             2619+SVC01C   EQU   * 3-11
002086 1B00                        2620+         SR    R0,R0 ZERO LOAD ADDRESS
002088 4540 BC08            01C08  2621+         BAL   R4,FCHRT2 READ IN THE PHASE
00208C 5860 902C            0002C  2622+         L     R6,SVER00
002090 1266                        2623+         LTR   R6,R6
002092 4780 C098            02098  2624+         BZ    SVC01A
002096 1806                        2625+         LR    R0,R6
002098                             2626+SVC01A   EQU   * 3-9
002098 9180 C007      02007        2627+         TM    TIMSW,X'80' TIMER FOR THIS PARTITION AND     3-11
                                   2628+*                                 IT-ROUTINE DID NOT ISSUE SVC 1   3-11
00209C 4780 C0C0            020C0  2629+         BZ    SVC01B NO                               3-11
0020A0 947F C007      02007        2630+         NI    TIMSW,X'7F' RESET TIMERFLAG                  3-11
0020A4 5860 BAAC            01AAC  2631+         L     R6,ITTAB IT RTN ADDRESS               3-9
0020A8 1266                        2632+         LTR   R6,R6 CHECK FOR ADDRESS OR COMPLEMENT        3-9
0020AA 47B0 C0C0            020C0  2633+         BNL   SVC01B NO, BRANCH                   3-9
0020AE 5860 BAB0            01AB0  2634+         L     R6,ITTAB+4 YES, STORE PHASE ENTRY       3-9
0020B2 5006 0004            00004  2635+         ST    R0,4(R6) PT IN IT RTN SAVE AREA       3-9
0020B6 D300 6001 C006 00001 02006  2636+         MVZ   1(1,R6),FIK1 ST PROTECT KEY TO PSW        3-9
0020BC 47F0 01B0            001B0  2637+         B     EXT02 GO TO TASK SELECTION         3-9
0020C0                             2638+SVC01B   EQU   * 3-8
0020C0 5000 900C            0000C  2639+         ST    R0,SVEPSW1+4 ST ENTRY PT IN PARTITION SAVE AREA     3-9
0020C4 D300 9009 C006 00009 02006  2640+         MVZ   SVEPSW1+1(1),FIK1 MOVE STORAGE PROTECT KEY TO PSW   3-3
0020CA 47F0 01B0            001B0  2641+         B     EXT02
                                   2642+*
                                   2643+* THE OBJECTIVE OF SVC2 IS TO LOAD AND EXECUTE A LOGICAL TRANSIENT
0020CE 4400 0906            00906  2644+SVC02    EX    0,COMPCLC IS SVC FROM LOGICAL TRAN
0020D2 4780 C120            02120  2645+         BE    SVC02A YES
0020D6 4111 0000            00000  2646+         LA    R1,0(R1) 3-3
0020DA 5510 0420            00420  2647+         CL    R1,EOCADR IS ADDRESS VALID            3-3
0020DE 47B0 00DE            000DE  2648+         BNL   ERR25 NO                      3-3
0020E2 D507 1000 C0FC 00000 020FC  2649+         CLC   0(8,R1),BDUMP IS $$BDUMP BEING FETCHED              3-3
0020E8 4770 C104            02104  2650+         BNE   SVC02J NO-CONTINUE                            3-3
0020EC 9604 A00F      0000F        2651+         OI    PIBFLG2,CNCLD SET CANCEL IN PROGRESS BIT IN PIB 3-3
       DOS SUPERVISOR - SVC INTERRUPT ROUTINES                                                                 PAGE   64


  LOC  OBJECT CODE    ADDR1 ADDR2  STMT   SOURCE STATEMENT                                          FDOS CL3-10 03/29/70

0020F0 9530 048F      0048F        2652+         CLI   PIK+1,X'30' YES-IS THIS A MAINTASK                 3-3
0020F4 4720 C104            02104  2653+         BH    SVC02J NO-CONTINUE                            3-3
0020F8 47F0 D27A            0327A  2654+         B     CNCELL YES-GO CHECK IF SUBTASKS ARE ATTACHED  3-3
0020FC 5B5BC2C4E4D4D740            2655+BDUMP    DC    C'$$BDUMP ' 3-3
002104                             2656+SVC02J   EQU   * 3-3
002104 9500 009B      0009B        2657+         CLI   TRTIDRA,IDRA00 IS IDRA BUSY                 3-9
002108 4780 BC0C            01C0C  2658+         BE    FCHRT1 YES, CANNOT FETCH            3-2
00210C 9500 045F      0045F        2659+         CLI   LTK+1,0 IS THE LOG TRANSIENT ACTIVE
002110 4770 C1BA            021BA  2660+         BNE   SVC2BND YES, SET PIB FLAG TO SVC 2 BND
002114 D200 C16B 041F 0216B 0041F  2661+         MVC   LTABSYD(1),PID+1 SET UP TASK OWNERSHIP OF LTA      3-3
00211A D200 C16F 048F 0216F 0048F  2662+         MVC   LTABSYD1(1),PIK+1 SET UP PARTITION OWNERSHIP OF LTA 3-3
002120                             2663+SVC02A   EQU   * 3-2
002120 9500 009B      0009B        2664+         CLI   TRTIDRA,IDRA00 IS IDRA BUSY                 3-9
002124 4780 BC0C            01C0C  2665+         BE    FCHRT1 YES CANNOT FETCH               3-3
002128 4570 0178            00178  2666+         BAL   R7,SVEREG
00212C 48F0 D62E            0362E  2667+         LH    RF,LTADD GET LOAD ADDR
002130 90F1 BBB8            01BB8  2668+         STM   RF,R1,LTRG15 PASS REGS TO LOGICAL TRAN
002134 180F                        2669+         LR    R0,RF SET LOAD ADDR
002136 41FF 0008            00008  2670+         LA    RF,8(RF) SET ENTRY PT ADDR IN PSW
00213A 50F0 BB9C            01B9C  2671+         ST    RF,LTPSW+4
00213E 1B66                        2672+         SR    R6,R6 ZERO FIK
002140 4111 0000            00000  2673+         LA    R1,0(R1) 3-3
002144 5510 0420            00420  2674+         CL    R1,EOCADR
002148 47B0 00DE            000DE  2675+         BNL   ERR25
00214C D502 1000 0030 00000 00030  2676+         CLC   0(3,R1),DOLLARB IS IT A $$B PHASE
002152 4770 00D6            000D6  2677+         BNE   ERR21 NO,ERROR-ILLEGAL SVC
002156 4540 BC0C            01C0C  2678+         BAL   R4,FCHRT1 YES,READ IN PHASE
00215A 9140 A001      00001        2679+         TM    PIBCNCL,CANCALL
00215E 4710 01AC            001AC  2680+         BO    EXT03
002162 9500 045F      0045F        2681+         CLI   LTK+1,0 IS THE L TRAN AREA IN USE
002166 4770 01B0            001B0  2682+         BNE   EXT02 YES, EXIT
00216A 9200 045F      0045F        2683+LTABSY   MVI   LTK+1,0 SET LTK
00216B                             2684+LTABSYD  EQU   LTABSY+1 IMMEDIATE DATA MODIFIED
00216E 9200 048D      0048D        2685+LTABSY1  MVI   LID+1,0 SET LID                           3-3
00216F                             2686+LTABSYD1 EQU   LTABSY1+1 IMMEDIATE DATA MODIFIED           3-3
002172 47F0 C192            02192  2687+         B     SETLT1
                                   2688+*   SVC11 PROVIDES FOR A RETURN FROM A LOGICAL TRANSIENT
002176 4400 0906            00906  2689+SVC11    EX    0,COMPCLC IS SVC FROM L. TRAN
00217A 4770 00D6            000D6  2690+         BNE   ERR21 NO, CANCEL - ILLEGAL SVC
00217E 9680 A000      00000        2691+SVC11A   OI    PIBFLG,FLG80 SET FLGS TO IND REGS SAVES    3-3
002182 9200 045F      0045F        2692+         MVI   LTK+1,0 RESET LTK
002186 9200 048D      0048D        2693+         MVI   LID+1,0 RESET LID                        3-3
00218A 9200 C16F      0216F        2694+         MVI   LTABSYD1,0 RESET LTA OWNERSHIP                    3-6
00218E 92FF BB98      01B98        2695+         MVI   LTPSW,X'FF' ENABLE LTA PSW
                                   2696+*
                                   2697+*   SETLT1 IS USED TO COMPLETLY RELEASE OR SEIZE THE LOGICAL TRANSIENT
                                   2698+*   SETLT2 IS USED BY SVC8 AND SVC9 TO EXCHANGE LOGICAL TRANSIENT
                                   2699+*   AND SAVE AREA POINTERS.
002192 9703 0093      00093        2700+SETLT1   XI    TRTLTK,NOTSVC2+NOTSVC7 SW TRT BYT FOR SVC 2 BND SELECT
002196 4170 01B0            001B0  2701+SETLT2A  LA    R7,EXT02 SET SUBROUTINE EXIT ADDR
00219A 4700 C1AE            021AE  2702+SVC11B   NOP   SVC11C THIS INST MOD BY LTACNL RTN     3-3
       DOS SUPERVISOR - SVC INTERRUPT ROUTINES                                                                 PAGE   65


  LOC  OBJECT CODE    ADDR1 ADDR2  STMT   SOURCE STATEMENT                                          FDOS CL3-10 03/29/70

00219E D702 D629 A005 03629 00005  2703+SETLT2   XC    PIBAR+9(3),PIBSVADD EXCHANGE PIB SVPTR WITH LTB
0021A4 D702 A005 D629 00005 03629  2704+         XC    PIBSVADD(3),PIBAR+9
0021AA 4400 C19E            0219E  2705+         EX    0,SETLT2
0021AE 9200 C19B      0219B        2706+SVC11C   MVI   SVC11B+1,X'00' NOP IT               3-3
0021B2 95FF BA31      01A31        2707+         CLI   WHLMSW,X'FF' 3-3
0021B6 0788                        2708+         BCR   8,R8 3-3
0021B8 07F7                        2709+         BR    R7
0021BA D500 048F 048D 0048F 0048D  2710+SVC2BND  CLC   PIK+1(1),LID+1 IS REQUEST FROM TRAN ON SVC 8    3-3
0021C0 4780 00D6            000D6  2711+         BE    ERR21 YES, CANCEL - ILLEGAL SVC
0021C4 94FD A000      00000        2712+         NI    PIBFLG,255-NOTSVC2 SET PIB FLG TO SVC 2 BOUND
0021C8 5880 0024            00024  2713+RESVC    L     R8,SVOLDP+4
0021CC 9140 0024      00024        2714+         TM    SVOLDP+4,X'40' RESVC TWO BYTE INSTR?             3-9
0021D0 4710 C1D8            021D8  2715+         BO    NOTEXSVC YES, BRANCH                            3-9
0021D4 0680                        2716+         BCTR  R8,0 3-9
0021D6 0680                        2717+         BCTR  R8,0 3-9
0021D8                             2718+NOTEXSVC EQU   * 3-9
0021D8 0680                        2719+         BCTR  R8,0
0021DA 0680                        2720+         BCTR  R8,0
0021DC 5080 0024            00024  2721+         ST    R8,SVOLDP+4 SET PSW TO RE-EXECUTE SVC
0021E0 9240 0652      00652        2722+         MVI   ACCTRAID,JAOHID CHARGE UNUSED SVC TO OVHEAD  3-9
0021E4 9502 B981      01981        2723+         CLI   RIK+1,X'02' IS THIS FETCH
0021E8 4770 01AC            001AC  2724+         BNE   EXT03
0021EC 9180 A000      00000        2725+         TM    PIBFLG,X'80' ARE YOU SURE -----               3-3
0021F0 4780 01AC            001AC  2726+         BZ    EXT03 PP PIB WILL BE '03' AT AN INTER  3-3
0021F4 9140 B74A      0174A        2727+         TM    IDRASW,IDRA40 IS FETCH ACTIVE              3-9
0021F8 4780 C204            02204  2728+         BZ    IDRANO NO                           3-9
0021FC 5080 BB74            01B74  2729+         ST    R8,IDRASAVE+4 SET PSW FOR RETRY            3-9
002200 47F0 01AC            001AC  2730+         B     EXT03 RETURN                       3-9
002204                             2731+IDRANO   EQU   * 3-9
002204 5080 BB4C            01B4C  2732+         ST    R8,PTASAVE+4 SET PSW FOR RETRY SVC
002208 47F0 01AC            001AC  2733+         B     EXT03
00220C                             2734+RESVC1   EQU   * 3-2
00220C 9140 A001      00001        2735+         TM    PIBCNCL,CANCALL CANCEL OR EOJ                3-2
002210 4710 01B0            001B0  2736+         BO    EXT02 3-2
002214 D501 A004 C23E 00004 0223E  2737+         CLC   PIBINSTR(2),UNCBRCH ATTN. RTN. CALL              3-2
00221A 4780 01B0            001B0  2738+         BE    EXT02 3-2
00221E 5880 0024            00024  2739+         L     R8,SVOLDP+4 3-2
002222 9140 0024      00024        2740+         TM    SVOLDP+4,X'40' RESVC TWO BYTE INSTR?             3-9
002226 4710 C22E            0222E  2741+         BO    NOEXSVC YES, BRANCH                            3-9
00222A 0680                        2742+         BCTR  R8,0 3-9
00222C 0680                        2743+         BCTR  R8,0 3-9
00222E                             2744+NOEXSVC  EQU   * 3-9
00222E 0680                        2745+         BCTR  R8,0
002230 0680                        2746+         BCTR  R8,0
002232 5890 A004            00004  2747+         L     R9,PIBINSTR PICK UP SAVE AREA ADDR
002236 5080 900C            0000C  2748+         ST    R8,SVEPSW1+4 STORE UPDATED ADDR IN SAVE AREA
00223A 9240 0652      00652        2749+         MVI   ACCTRAID,JAOHID CHARGE UNUSED SVC TO OVERHEAD3-9
00223E 47F0 01B0            001B0  2750+UNCBRCH  B     EXT02 3-2
                                   2751+*
                                   2752+*      SVC 3    PHYSICAL TRANSIENT TRANSFER OF CONTROL
                                   2753+*         REGISTER USAGE
       DOS SUPERVISOR - SVC INTERRUPT ROUTINES                                                                 PAGE   66


  LOC  OBJECT CODE    ADDR1 ADDR2  STMT   SOURCE STATEMENT                                          FDOS CL3-10 03/29/70

                                   2754+*            R7    LINK REG
                                   2755+*            R8    LINK REG
                                   2756+*            R9    EXIT ADDR
                                   2757+*            RA    PIB ADDR
                                   2758+*            RF    BR ADDR PASSED BY EXITING PHYSICAL TRANSIENT
002242 9101 0021      00021        2759+SVC03    TM    SVOLDP+1,X'01' SUPVR CALL
002246 4710 00D6            000D6  2760+         BO    ERR21 NO,ILLEGAL SVC
00224A 9503 009B      0009B        2761+         CLI   TRTIDRA,IDRA03 IS IDRA FREE                 3-9
00224E 4780 C26A            0226A  2762+         BE    IDRASVC3 YES                          3-9
002252 9200 0099      00099        2763+         MVI   TRTPTA,IDRA00 SET PTA BUSY                3-11
002256 5860 BB4C            01B4C  2764+         L     R6,PTASAVE+4 GET SVC 3 ADDR               3-9
00225A 0660                        2765+         BCTR  R6,R0 * AND SET IT TO              3-9
00225C 0660                        2766+         BCTR  R6,R0 * REISSUE THE SVC 3          3-9
00225E 5060 BB4C            01B4C  2767+         ST    R6,PTASAVE+4 *                            3-9
002262 9602 B74B      0174B        2768+         OI    IDRASW+1,IDRA02 SET SVC 3 WAITING SWITCH     3-9
002266 47F0 01B0            001B0  2769+         B     EXT02 GO TO TASK SELECT            3-9
00226A                             2770+IDRASVC3 EQU   * 3-9
00226A 9203 0099      00099        2771+         MVI   TRTPTA,X'03' INDICATE PTA IS FREE         3-2
00226E 9501 B98F      0198F        2772+         CLI   SVC3NM+7,ATTNCODE CMPAR ACTION CODE
002272 4720 C2EE            022EE  2773+         BH    FCH3 BR IF PHASE TO BE FETCHED
002276 9284 D640      03640        2774+         MVI   PIBSUPVR,FLG80+SUPFLG MAKE SUPVR INACTIVE
00227A 078F                        2775+         BCR   E,RF BR IF ATTN EXIT
00227C 92D9 B98E      0198E        2776+         MVI   SVC3NM+6,C'R'
002280 4190 01B0            001B0  2777+         LA    R9,EXT02 SET EXIT TO TASK SELECT
002284 4160 B990            01990  2778+         LA    R6,ERQENT GET ENTRY ADDR
002288 940F B59B      0159B        2779+         NI    DEQUER+1,X'0F' SET ERP RETURN SWITCH
00228C 07FF                        2780+         BR    RF GO TO ERP EXIT PROCEDURE
                                   2781+*
00228E 9200 0159      00159        2782+EXCAN    MVI   LTACNL+1,X'00' NOP LTA CANCEL SWITCH
002292 58A0 0324            00324  2783+ATNCNL   L     RA,ERA+4 LD PIB ADDR
002296 92FF BA30      01A30        2784+         MVI   SVANCL,X'FF' 3-3
00229A 4580 0102            00102  2785+         BAL   R8,ERRSET SET CANCEL
00229E 1B88                        2786+         SR    R8,R8 CLEAR REG FOR COMPARE          3-4
0022A0 4880 044A            0044A  2787+         LH    R8,PIBPT GET PIB ADDRESS                3-4
0022A4 4A80 048C            0048C  2788+         AH    R8,LID OF TASK OWNING LTA             3-9
0022A8 198A                        2789+         CR    R8,RA IS IT EQUAL TO PART CANCELLING 3-4
0022AA 4770 C2C2            022C2  2790+         BNE   NOSWP2 NO--DONT SWAP SAVE AREAS       3-4
0022AE 47F0 C2BE            022BE  2791+         B     NOSWP
0022AF                             2792+SVC89SW  EQU   *-3
0022B2 4400 0906            00906  2793+         EX    0,COMPCLC 3-4
0022B6 4780 C2BE            022BE  2794+         BE    NOSWP 3-4
0022BA 4570 C19E            0219E  2795+         BAL   R7,SETLT2 3-4
0022BE                             2796+NOSWP    EQU   * 3-4
0022BE 96F0 C2AF      022AF        2797+         OI    SVC89SW,X'F0'
0022C2 41A0 D640            03640  2798+NOSWP2   LA    RA,PIBSUPVR RESTORE PIB SUPVR ADD          3-4
0022C6 9280 0159      00159        2799+         MVI   LTACNL+1,CNCL80 RESORE LTA CNCL SWITCH
0022CA 07F9                        2800+         BR    R9 EXT01
                                   2801+*
0022CC 9601 D640      03640        2802+PUBDEQ   OI    PIBSUPVR,NOTSVC7 MAKE SUPVR ACTIVE
0022D0                             2803+PUBDEQ4  EQU   * ENTER HERE FROM SVC52 ROUTINE         3-11
000000                             2804+         USING PUBADR,R3
       DOS SUPERVISOR - SVC INTERRUPT ROUTINES                                                                 PAGE   67


  LOC  OBJECT CODE    ADDR1 ADDR2  STMT   SOURCE STATEMENT                                          FDOS CL3-10 03/29/70

0022D0 D201 003A 3000 0003A 00000  2805+IOPSET   MVC   IOOPSW+2(2),PUBCHANN
                                   2806+         DROP  R3
0022D6 4580 B5C0            015C0  2807+DEQUE    BAL   R8,RSTREG GET CHNL SCD REGS
0022DA 47F0 B016            01016  2808+         B     TRNOFF DEQUE CCB
                                   2809+*
                                   2810+*      SVC 5 CALLS MOVE COM TRANSIENT
0022DE                             2811+SVC05    EQU   * 3-10
0022DE 9500 0099      00099        2812+         CLI   TRTPTA,X'00' IS TH E PTA BUSY            3-10
0022E2 4780 C1C8            021C8  2813+         BE    RESVC YES                         3-10
0022E6 92F1 B98F      0198F        2814+         MVI   SVC3NM+7,C'1' SET MOVE COM NAME           3-10
0022EA 4570 0178            00178  2815+         BAL   R7,SVEREG SAVE REGS
0022EE 4110 B988            01988  2816+FCH3     LA    R1,SVC3NM LOAD PHYSICAL TRANSIENT          3-2
0022F2 4800 B836            01836  2817+         LH    R0,PTADD
0022F6 1B66                        2818+         SR    R6,R6
0022F8 4540 BC0C            01C0C  2819+         BAL   R4,FCHRT1
0022FC 18B0                        2820+         LR    RB,R0 SET BASE FOR PHYSICAL TRANS      3-2
0022FE 9200 0099      00099        2821+         MVI   TRTPTA,X'00' INDICATE PTA BUSY                3-5
002302 47FB 0008            00008  2822+         B     8(RB) BR TO PHYSICAL TRAN
                                   2823+*   SVC04 LOADS A PROBLEM PROGRAM PHASE
002306 4860 048E            0048E  2824+SVC04    LH    R6,PIK
00230A 4570 0178            00178  2825+         BAL   R7,SVEREG
00230E 4400 0906            00906  2826+         EX    0,COMPCLC
002312 4770 C318            02318  2827+         BNE   CALFET
002316 1B66                        2828+         SR    R6,R6
002318 4540 BC0C            01C0C  2829+CALFET   BAL   R4,FCHRT1
00231C 5000 9030            00030  2830+         ST    R0,SVER01 STORE ENTRY ADDR IN USER REG1
002320 47F0 01B0            001B0  2831+         B     EXT02
                                   2832+*
                                   2833+* SVC7 CHECKS FOR POSTING OF CCB OR TECB,IF NOT POSTED RE-ISSUES WAIT
002324 5880 0024            00024  2834+SVC07    L     R8,SVOLDP+4
002328 4B80 B816            01816  2835+         SH    R8,H10 SET TO RE-ISSUE WAIT MACRO
00232C 5080 0024            00024  2836+         ST    R8,SVOLDP+4 3-2
002330 9560 048F      0048F        2837+         CLI   PIK+1,X'60' FROM FETCH OR ERP
002334 4770 C34E            0234E  2838+         BNE   NOTFCH NO
002338 5080 BB4C            01B4C  2839+         ST    R8,PTASAVE+4 SET TO REISSUE IF ERP/FETCH  3-2
00233C 9180 F002      00002        2840+         TM    2(RF),TRABIT IS CCB POSTED                3-2
002340 0719                        2841+         BCR   O,R9 YES,RETURN VIA EXT01         3-2
002342 9284 A000      00000        2842+         MVI   PIBFLG,X'84' SO SUPVR WON'T BE SELECTED   3-2
002346 9200 0099      00099        2843+         MVI   TRTPTA,X'00' INDICATE FETCH BUSY          3-2
00234A 47F0 01B0            001B0  2844+         B     EXT02
00234E                             2845+NOTFCH   EQU   * 3-2
00234E 9180 1002      00002        2846+         TM    2(R1),TRABIT IS CCB POSTED
002352 0719                        2847+         BCR   O,R9 YES, EXIT
002354 94FE A000      00000        2848+         NI    PIBFLG,255-X'01' TURN OFF SVC7 FLAG
002358 47F0 01AC            001AC  2849+         B     EXT03
                                   2850+*
                                   2851+* SVC9 PROVIDES A RETURN FROM USER AFTER AN SVC8
00235C                             2852+SVC09    EQU   * 3-12
00235C D500 048F 045F 0048F 0045F  2853+         CLC   PIK+1(1),LTK+1 DOES PARTITION OWN THE LTA 3-12
002362 4770 00D6            000D6  2854+         BNE   ERR21 ILLEGAL SVC9               3-12
002366 D203 0024 BBBC 00024 01BBC  2855+         MVC   SVOLDP+4(4),LTRG0 RESTORE PROB PROG PSW ADDR 3-12
       DOS SUPERVISOR - SVC INTERRUPT ROUTINES                                                                 PAGE   68


  LOC  OBJECT CODE    ADDR1 ADDR2  STMT   SOURCE STATEMENT                                          FDOS CL3-10 03/29/70

00236C 96F0 C2AF      022AF        2856+         OI    SVC89SW,X'F0'
002370 4570 0178            00178  2857+         BAL   R7,SVEREG PROTECT PROB PROB REGS
002374 5870 BB9C            01B9C  2858+         L     R7,LTPSW+4 AVOID WRONG PSW ADDR         3-9
002378 47F0 C380            02380  2859+         B     NOSWREGS 3-9
                                   2860+*   SVC08 TRANSFERS CONTROL TO USER FROM LOGICAL TRANSIENT WITHOUT
                                   2861+*   RELEASING LOGICAL TRANSIENT.
00237C                             2862+SVC08    EQU   * 3-9
00237C 5870 0334            00334  2863+         L     R7,ERA+20 SET ENTRY PT IN PROB PROG    3-9
002380                             2864+NOSWREGS EQU   * 3-9
002380 5880 D628            03628  2865+         L     R8,LTB-1 PTR TO NEW SAVE AREA         3-9
002384 940F C2AF      022AF        2866+         NI    SVC89SW,X'0F'
                                   2867+         DROP  R9
000000                             2868+         USING SVEARA,R8
002388 9001 802C            0002C  2869+         STM   R0,R1,SVER00 PASS REGS 15 TO 1 TO NEW SV ARA
00238C 5800 800C            0000C  2870+         L     R0,SVEPSW2 LD PSW ADDR TO SAVE FOR SVC09
002390 5070 800C            0000C  2871+         ST    R7,SVEPSW2 ST ADDR PASSED IN SVC 8      3-9
                                   2872+         DROP  R8
000000                             2873+         USING SVEARA,R9
002394 4570 0178            00178  2874+         BAL   R7,SVEREG SAVE REGS
002398 47F0 C196            02196  2875+         B     SETLT2A GO TO SW SV AREA PTERS
                                   2876+*SVC12 TURNS OFF BITS IN JOB CONTROL SW2 (COMREG BYTE 57)           3-9
                                   2877+*USING MASK POINTED TO BY R1.                                       3-9
00239C                             2878+SVC12    EQU   * .                                                  3-9
00239C                             2879+         USING *,R6 .              TEMP BASE REG BECAUSE OF R5      3-9
0003F0                             2880+         USING COMREG,R5 .                                          3-9
00239C 4850 0016            00016  2881+         LH    R5,CRADDR .         PT R5 TO ACTIVE COMREG           3-9
                                   2882+*IF R1=0, TURNS OFF BIT 5 OF JCSW6 (COMREG BYTE 59).                3-9
0023A0 1211                        2883+         LTR   R1,R1 .             R1=0                             3-9
0023A2 4770 6010            023AC  2884+         BNZ   SVC12A .            BR IF NO                         3-9
0023A6 94FB 503B      0042B        2885+         NI    JCSW6,JC59OFF .     TURN OFF BIT 5 OF BYTE 59        3-9
0023AA 07F9                        2886+         BR    R9 .                                                 3-9
0023AC                             2887+SVC12A   EQU   * .                                                  3-9
0023AC D400 5039 1000 00429 00000  2888+         NC    JCSW2(BYTCT),ZERO(R1) .TURN OFF BITS OF BYTE 57      3-9
0023B2 07F9                        2889+         BR    R9 .                                                 3-9
                                   2890+*SVC13 TURNS ON SAME BITS THAT SVC12 TURNS OFF.                     3-9
0023B4                             2891+SVC13    EQU   * .                                                  3-9
0023B4                             2892+         USING *,R6 .              TEMP BASE REG BECAUSE OF R5      3-9
0023B4 4850 0016            00016  2893+         LH    R5,CRADDR .         PT R5 TO ACTIVE COMREG           3-9
0023B8 1211                        2894+         LTR   R1,R1 .             R1=0                             3-9
0023BA 4770 6010            023C4  2895+         BNZ   SVC13A .            BR IF NO                         3-9
0023BE 9604 503B      0042B        2896+         OI    JCSW6,JC59ON .      TURN ON BIT 5 OF BYTE 59         3-9
0023C2 07F9                        2897+         BR    R9 .                                                 3-9
0023C4                             2898+SVC13A   EQU   * .                                                  3-9
0023C4 D600 5039 1000 00429 00000  2899+         OC    JCSW2(BYTCT),ZERO(R1) .TURN ON BITS OF BYTE 57       3-9
0023CA 07F9                        2900+         BR    R9 .                                                 3-9
                                   2901+         DROP  R5 .                                                 3-9
                                   2902+         DROP  R6 .                                                 3-9
                                   2903+*   SVC22 PROVIDES LINKAGE TO LOGICALLY OR PHYSICALLY SEIZE THE SYSTEM
0023CC 91F0 0021      00021        2904+SVC22    TM    SVOLDP+1,PSKEY0 IS PSW KEY=0
0023D0 4770 00D6            000D6  2905+         BC    NZ,ERR21 NO,CANCEL
0023D4 1200                        2906+         LTR   R0,R0 PSW KEY TO BE SET
       DOS SUPERVISOR - SVC INTERRUPT ROUTINES                                                                 PAGE   69


  LOC  OBJECT CODE    ADDR1 ADDR2  STMT   SOURCE STATEMENT                                          FDOS CL3-10 03/29/70

0023D6 47A0 C3E0            023E0  2907+         BC    10,SVC22A NO,SKIP
0023DA D300 0021 041F 00021 0041F  2908+         MVZ   SVOLDP+1(1),PID+1 SET KEY                          3-3
0023E0 9706 A000      00000        2909+SVC22A   XI    PIBFLG,SUPFLG+NOTSVC2 YES,FLIP PIB CODE
0023E4 9703 0095      00095        2910+         XI    TRTRUN,NOTSVC2+NOTSVC7 FLIP RUN BYTE IN TRT FIELD
0023E8 4200 0020            00020  2911+         STC   R0,SVOLDP SET I/O KEY IN PSW
0023EC 07F9                        2912+         BR    R9
                                   2913+*   SVC23 LOADS THE PHASE HEADER
0023EE 91F0 0021      00021        2914+SVC23    TM    SVOLDP+1,PSKEY0 IS PSW KEY=0
0023F2 4770 00D6            000D6  2915+         BC    NZ,ERR21 NO,CANCEL
0023F6 4570 0178            00178  2916+         BAL   R7,SVEREG
0023FA 1B44                        2917+         SR    R4,R4 CLEAR PARAM REG
0023FC 4400 0906            00906  2918+         EX    0,COMPCLC RQST FROM LTA
002400 4770 BC08            01C08  2919+         BNE   FCHRT2
002404 1864                        2920+         LR    R6,R4 SET FIK
002406 47F0 BC0C            01C0C  2921+         B     FCHRT1
                                   2922+*  PROCEDURE FOR SETIME MACRO THAT PASSES A TECB                    3-3
                                   2923+*  IT MAY BE ISSUED BY ANY TASK IN AN AP SUPERVISOR                 3-3
00240A D500 041F 045B 0041F 0045B  2924+SVC24    CLC   PID+1(1),PWTIMS+1 DOES PARTITION OWN TIMER         3-3
002410 4770 00D6            000D6  2925+         BNE   ERR21 IF NOT-ILLEGAL SVC               3-3
002414 4BA0 044A            0044A  2926+         SH    RA,PIBPT CALC PIB DISPL OF ISSUING TASK   3-3
002418 42A0 C48B            0248B  2927+         STC   RA,TWTIMS+1 SAVE TASK ID OF SVC24ER          3-3
00241C 4AA0 044A            0044A  2928+         AH    RA,PIBPT RESTORE PIB POINTER              3-3
002420 1831                        2929+         LR    R3,R1 LOAD TIME INTERVAL FOR UPDATE    3-3
002422 1810                        2930+         LR    R1,R0 ADDR
002424 5870 A004            00004  2931+         L     R7,PIBINSTR SET TECB ADDR IN REG 1
                                   2932+         DROP  R9
000000                             2933+         USING SVEARA,R7
002428 5000 7030            00030  2934+         ST    R0,SVER01
                                   2935+         DROP  R7
000000                             2936+         USING SVEARA,R9
00242C 4121 0003            00003  2937+         LA    R2,3(R1) PT TO END OF TECB
002430 4570 B6A0            016A0  2938+         BAL   R7,VLDADR1
000000                             2939+         USING CCBADR,R1
002434 947F 1002      00002        2940+         NI    CCBCOM1,255-TRABIT
                                   2941+         DROP  R1
002438 1321                        2942+         LCR   R2,R1 COMPLIMENT ADDR TO INDICAT TECB
00243A 9012 BAAC            01AAC  2943+         STM   R1,R2,ITTAB STOR TECB ADDR IN OPTION TBL
00243E                             2944+SVC10A   EQU   * 3-11
00243E 5530 BA08            01A08  2945+         CL    R3,MINVAL INTERVAL TOO SHORT          3-11
002442 47B0 C44A            0244A  2946+         BNL   SVC10B NO                          3-11
002446 5830 BA08            01A08  2947+         L     R3,MINVAL SET TO SMALLEST ALLOWED     3-11
00244A 5530 BA00            01A00  2948+SVC10B   CL    R3,MAXVAL INTERVAL TOO LONG           3-11
00244E 47D0 C456            02456  2949+         BNH   SVC10C NO                          3-11
002452 5830 BA00            01A00  2950+         L     R3,MAXVAL SET TO LONGEST ALLOWED      3-11
002456                             2951+SVC10C   EQU   * 3-11
002456 5820 0050            00050  2952+         L     R2,SYSTIMER GET CURR TIME VALUE         3-11
00245A 5030 0050            00050  2953+         ST    R3,SYSTIMER SET INTERVAL                           3-8
00245E 5520 BA00            01A00  2954+         CL    R2,MAXVAL HAS TIMER GONE NEGATIVE            3-5
002462 47D0 C476            02476  2955+         BNH   NGTMBP NO  BRANCH                  3-4
002466 1072                        2956+         LPR   R7,R2 MAKE POSITIVE               3-11
002468 1B22                        2957+         SR    R2,R2 3-7
       DOS SUPERVISOR - SVC INTERRUPT ROUTINES                                                                 PAGE   70


  LOC  OBJECT CODE    ADDR1 ADDR2  STMT   SOURCE STATEMENT                                          FDOS CL3-10 03/29/70

00246A 8870 0008            00008  2958+         SRL   R7,8 3-4
00246E 5E70 0054            00054  2959+         AL    R7,SYSTOD UPDATE SYSTOD WITH TIME      3-4
002472 5070 0054            00054  2960+         ST    R7,SYSTOD ELAPSED                      3-4
002476                             2961+NGTMBP   EQU   * 3-4
002476 8830 0008            00008  2962+         SRL   R3,8 SHIFT FOR TIME-OF-DAY CALC
00247A 8820 0008            00008  2963+         SRL   R2,8 3-4
00247E 5E30 0054            00054  2964+         AL    R3,SYSTOD INCREMENT TIME OF DAY BY TIME
002482 1F32                        2965+         SLR   R3,R2 PASSED SINCE TEMER WENT TO ZERO
002484 5030 0054            00054  2966+         ST    R3,SYSTOD PLUS LNG OF TIME INTERVAL SET
002488 07F9                        2967+         BR    R9
00248A 0000                        2968+TWTIMS   DC    H'0' TASK ISSUING SETIME WITH TECB    3-3
                                   2969+*         SETIME WITH NO TECB
                                   2970+*         ONLY A MAIN TASK MAY ISSUE SVC10 IN AN AP SUPERVISOR      3-3
00248C 4170 C43E            0243E  2971+SVC10    LA    R7,SVC10A LD SUBROUTINE EXIT ADDR
                                   2972+*         TEST IF INTERRUPTED PROG OWNS INTERVAL TIMER
002490 1831                        2973+TMEKEY   LR    R3,R1 LD TIME INTERVAL FOR UPDATE
002492                             2974+TMEKEY1  EQU   * 3-6
002492 D500 048F 045B 0048F 0045B  2975+         CLC   PIK+1(1),PWTIMS+1 DOES TASK OWN TIMER          3-7
002498 0787                        2976+         BCR   E,R7
00249A 47F0 00D6            000D6  2977+         B     ERR21 ILLEGAL SVC
                                   2978+*      SVC 26 IS USED BY TRANSIENTS TO VALIDATE LIMITS
00249E 91F0 0021      00021        2979+SVC26    TM    SVOLDP+1,PSKEY0 REQUESTOR KEY ZERO
0024A2 4770 00D6            000D6  2980+         BNZ   ERR21
0024A6 4111 0000            00000  2981+         LA    R1,0(R1) 3-5
0024AA 5510 0420            00420  2982+         CL    R1,EOCADR 3-5
0024AE 47B0 00DE            000DE  2983+         BNL   ERR25 3-5
0024B2 4570 B6A0            016A0  2984+         BAL   R7,VLDADR1 VERIFY LIMITS
0024B6 07F9                        2985+         BR    R9
0024B8                             2986+SVC29    EQU   * 3-3
0024B8 5861 0000            00000  2987+PDCCBT   L     R6,0(R1) GET ADDRESS FROM LIST            3-3
0024BC 9500 1000      00000        2988+         CLI   0(R1),X'00' IS IT THE END OF THE LIST        3-3
0024C0 4770 C4D4            024D4  2989+         BNE   PDEDLT YES                               3-3
0024C4 9180 6002      00002        2990+         TM    2(R6),TRABIT TRAFFIC BIT POSTED
0024C8 4710 C4DC            024DC  2991+         BO    PDCCBPT YES
0024CC 4111 0004            00004  2992+         LA    R1,4(R1) POINT TO NEXT CCB
0024D0 47F0 C4B8            024B8  2993+         B     PDCCBT 3-3
0024D4                             2994+PDEDLT   EQU   * 3-3
0024D4 94FE A000      00000        2995+         NI    PIBFLG,255-X'01' TURN OFF SVC 7 FLAG
0024D8 47F0 C1C8            021C8  2996+         B     RESVC 3-5
0024DC                             2997+PDCCBPT  EQU   * 3-3
0024DC 5810 A004            00004  2998+         L     R1,PIBINSTR GET PP REGISTER SAVE AREA         3-3
                                   2999+         DROP  R9 3-3
000000                             3000+         USING SVEARA,R1 SET UP BASE REGISTER FOR DSECT    3-3
0024E0 5060 1030            00030  3001+         ST    R6,SVER01 STORE POSTED ECB POINTER IN USER'S      3-3
                                   3002+*                              REGISTER ONE SAVE AREA               3-3
                                   3003+         DROP  R1 3-3
000000                             3004+         USING SVEARA,R9 3-3
0024E4 07F9                        3005+         BR    R9
000080                             3006+OLTAC    EQU   X'80' 3-9
000004                             3007+OLTP     EQU   X'04' 3-9
0024E6                             3008+SVC46    EQU   * 3-9
       DOS SUPERVISOR - SVC INTERRUPT ROUTINES                                                                 PAGE   71


  LOC  OBJECT CODE    ADDR1 ADDR2  STMT   SOURCE STATEMENT                                          FDOS CL3-10 03/29/70

0024E6 9510 048F      0048F        3009+         CLI   PIK+1,BGIDEN IS IT BG                     3-9
0024EA 4770 00D6            000D6  3010+         BNE   ERR21 NO, ILLEGAL SVC                  3-9
0024EE 9180 04A0      004A0        3011+         TM    AOLTAB,OLTAC OLTEP ACTIVE                     3-9
0024F2 4780 00D6            000D6  3012+         BZ    ERR21 NO, ILLEGAL SVC                  3-9
0024F6 0571                        3013+         BALR  R7,R1 GO TO OLTEP IN SUPVR STATE   3-9
0024F8 47F0 025A            0025A  3014+         B     EXT01 EXIT                         3-9
       STXIT - EXIT AND TIMER FACILITIES                                                                       PAGE   72


  LOC  OBJECT CODE    ADDR1 ADDR2  STMT   SOURCE STATEMENT                                          FDOS CL3-10 03/29/70

                                   3016+*      REGISTER USAGE
                                   3017+*         R0 INPUT PARAMETER
                                   3018+*         R1 INPUT PARAMETER
                                   3019+*         R2 PARAMETER AND WORK REG
                                   3020+*         R3 KEY OF PROG TO WHOM INTERRUPT BELONGS, SETIME INTERVAL
                                   3021+*         R4 PTER TO OPTION TBL
                                   3022+*         R5 EXIT ROUTINE ADDR
                                   3023+*         R6 USER SAVE AREA ADDR
                                   3024+*         R7 LINK AND WORK REG
                                   3025+*         R8 IT PIB ADDR AND WORK REG
                                   3026+*         R9 EXIT REG AND PTER TO PROG SAVE AREA
                                   3027+*    PROGRAM CHECK INTERRUPT ROUTINE
0024FC                             3028+ENTPCK   DS    0H
0024FC 4700 0C3A            00C3A  3029+PCHKSW   NOP   LGD BRANCH IF PROG. CHECK IN START I/O
002500 909F 0320            00320  3030+         STM   R9,RF,ERA SAVE ENTRY REGS              3-9
                                   3031+*                                                                   3-1
                                   3032+*              THIS HOOK DEPENDS ON REG 9,10,11 BEING STORED AT ERA 3-1
                                   3033+*              AND THOSE REGS BEING AVAILABLE FOR USE. THE FOLLOWING3-1
                                   3034+*              FOUR STATEMENTS ARE USED BY THE CE LOGICAL TRANSIENT 3-1
                                   3035+*              AREA DUMP ROUTINE FOR LINKAGE.                       3-1
                                   3036+*                                                                   3-1
002504 0590                        3037+         BALR  R9,R0 GET BASE REGISTER FOR BRANCH AROUND HOO3-1
002506 47F9 002C            0002C  3038+CETRANHK BC    15,NOCETRHK-*(R9) BRANCH UNLESS LTA DUMP IS ACTIVE  3-1
00250A 5890 008C            0008C  3039+         L     R9,CETABPTR LOAD CE AREA BASE REGISTER             3-1
00250E 98BE 0340            00340  3040+         LM    RB,RE,BASRGS INIT BASE REGS              3-10
002512 D200 C52B 041F 0252B 0041F  3041+         MVC   CEPIDSV,PID+1 SAVE PID                     3-7
002518 D200 C52F 048F 0252F 0048F  3042+         MVC   CEPIKSV,PIK+1 SAVE PIK                     3-7
00251E 41B0 0320            00320  3043+         LA    RB,ERA ADDR OF SUPVR SAVAR          3-7
002522 45A9 005C            0005C  3044+         BAL   RA,92(R9) EXIT TO CE DUMP RTN         3-10
002526 58B0 0340            00340  3045+         L     RB,BASRGS INIT BASE REG                3-9
00252B                             3046+CEPIDSV  EQU   *+1 ORIGINAL PID SAVE            3-7
00252A 9200 041F      0041F        3047+         MVI   PID+1,X'00' RESTORE PID                  3-7
00252F                             3048+CEPIKSV  EQU   *+1 ORIGINAL PIK SAVE            3-7
00252E 9200 048F      0048F        3049+         MVI   PIK+1,X'00' RESTORE PIK                  3-7
002532                             3050+NOCETRHK EQU   * 3-1
002532 9228 0291      00291        3051+         MVI   HLDPSW,X'28' 3-1
002536 4590 04E0            004E0  3052+         BAL   R9,GENENT INITIALIZE INTERRUPT
00253A 9530 041F      0041F        3053+         CLI   PID+1,X'30' IS PC IN PROBLEM PROGRAM          3-3
00253E 4720 00D4            000D4  3054+         BH    ERR20 NO
002542 9500 048F      0048F        3055+         CLI   PIK+1,X'00' IS PROG. CHECK IN ALL BOUND?      3-6
002546 4780 00D4            000D4  3056+         BE    ERR20 YES                               3-6
00254A 4140 BA2C            01A2C  3057+         LA    R4,PCTAB-8 PT TO PC OPTION TBL
00254E 4570 C6EE            026EE  3058+         BAL   R7,OPTRT1 GET KEY AND STXIT REGS
002552 4880 048E            0048E  3059+         LH    R8,PIK
002556 4188 D5E0            035E0  3060+         LA    R8,PIBTAB(R8)
00255A 4570 C60E            0260E  3061+         BAL   R7,PCITRT LINK TO PC AND IT RTN
00255E 47F0 00D4            000D4  3062+         B     ERR20 EXIT IF NO RTN LINKAGE
002562 47F0 00D4            000D4  3063+         B     ERR20 EXIT IF TRANSIENT OPERATING
002566 47F0 00D4            000D4  3064+         B     ERR20 EXIT IF LTRAN OP
       STXIT - EXIT AND TIMER FACILITIES                                                                       PAGE   73


  LOC  OBJECT CODE    ADDR1 ADDR2  STMT   SOURCE STATEMENT                                          FDOS CL3-10 03/29/70

                                   3066+*    EXTERNAL INTERRUPT ROUTINE
00256A 9218 0291      00291        3067+ENTEXT   MVI   HLDPSW,X'18' SAVE EXTRNL OLD PSW ADDR
00256E 909F 0320            00320  3068+         STM   R9,RF,ERA SAVE ENTRY REGS              3-9
002572 4590 04E0            004E0  3069+         BAL   R9,GENENT INITIALIZE INTERRUPT
002576 94FD 0019      00019        3070+         NI    EXOLDP+1,255-WAITBT1 RESET WAIT BIT
00257A 9140 001B      0001B        3071+         TM    EXOLDP+3,X'40'
00257E 4780 C58A            0258A  3072+         BZ    EXT1 BR IF NOT EXTERN INTERR KEY
002582 9601 D620      03620        3073+         OI    PIBAR,NOTSVC7 READY ATTN RTN PIB
002586 9601 D628      03628        3074+         OI    PIBAR+8,EXTRNM1 SET FLAG FOR EXTERN INTERR KEY
00258A 9180 001B      0001B        3075+EXT1     TM    EXOLDP+3,X'80'
00258E 4780 01AC            001AC  3076+         BZ    EXT03
                                   3077+*      TIMER UPDATE PROCEDURE
002592 9856 0050            00050  3078+         LM    R5,R6,SYSTIMER LD TIMER AND TIME OF DAY
002596 5550 BA00            01A00  3079+         CL    R5,MAXVAL NEW INTERVAL SET ALREADY    3-11
00259A 47D0 01AC            001AC  3080+         BNH   EXT03 YES, IGNORE INTERUPT        3-11
00259E D203 0050 BA00 00050 01A00  3081+         MVC   SYSTIMER(4),MAXVAL RESET TIMER
0025A4 8A50 0008            00008  3082+         SRA   R5,8
0025A8 1B65                        3083+         SR    R6,R5
0025AA 5E60 BA04            01A04  3084+         AL    R6,MAXVAL+4
0025AE 5060 0054            00054  3085+         ST    R6,SYSTOD
0025B2 940F B725      01725        3086+TMERT1   NI    ITBRC+1,X'0F' RESET BR SWITCH
0025B6 4830 045A            0045A  3087+         LH    R3,PWTIMS GET ADDR OF PIB WITH IT
0025BA 9180 BAB0      01AB0        3088+         TM    ITTAB+4,X'80' IS THIS TECB TYPE INTERRUPT      3-3
0025BE 4780 C5C6            025C6  3089+         BZ    *+8 IF NOT-SKIP GETTING TASK ID      3-3
0025C2 4830 C48A            0248A  3090+         LH    R3,TWTIMS GET ID OF TASK THAT SVC24'D      3-3
0025C6 4183 D5E0            035E0  3091+         LA    R8,PIBTAB(R3)
                                   3092+         DROP  RA
000000                             3093+         USING PIBADR,R8
0025CA 9510 8001      00001        3094+         CLI   PIBCNCL,ISCNCL
0025CE 47B0 01AC            001AC  3095+         BNL   EXT03 BR IF PROG HAS BEEN CANCELLED
0025D2 9856 BAAC            01AAC  3096+         LM    R5,R6,ITTAB LD EXIT RTN AND SAVE AREA ADDR
0025D6 1266                        3097+         LTR   R6,R6
0025D8 4740 C5F4            025F4  3098+         BM    EXT2 BR IF TECB
0025DC 4140 BAAC            01AAC  3099+         LA    R4,ITTAB LD ADDR OF IT OPTION TBL
0025E0 4570 C60E            0260E  3100+         BAL   R7,PCITRT EXIT TO USER RTN IF VALID
0025E4 47F0 01AC            001AC  3101+         B     EXT03 EXIT IF NO RTN LINKAGE
0025E8 9607 D620      03620        3102+         OI    PIBAR,SUPFLG+NOTSVC2+NOTSVC7 ATTACH ATN PTO BOUND    3-7
0025EC 96F0 B725      01725        3103+         OI    ITBRC+1,X'F0' SET BR SW TO GO TO ITRTN     3-7
0025F0 47F0 01AC            001AC  3104+         B     EXT03
                                   3105+*
000000                             3106+         USING CCBADR,R5
0025F4 9580 8000      00000        3107+EXT2     CLI   PIBFLG,X'80' DETACHED?                              3-8
0025F8 4780 C604            02604  3108+         BE    CKEN YES                                    3-8
0025FC 9680 5002      00002        3109+         OI    CCBCOM1,TRABIT POST TECB                         3-8
002600 9601 8000      00000        3110+         OI    PIBFLG,NOTSVC7 READY PIB OF REQUESTOR
002604                             3111+CKEN     EQU   * 3-8
                                   3112+         DROP  R5,R8
000000                             3113+         USING PIBADR,RA
002604 D707 BAAC BAAC 01AAC 01AAC  3114+         XC    ITTAB(8),ITTAB PURGE TECB SET TIME REQUEST
00260A 47F0 01AC            001AC  3115+         B     EXT03
                                   3116+*    PC AND IT RTN TO GIVE CONTROL TO USER EXIT RTN
       STXIT - EXIT AND TIMER FACILITIES                                                                       PAGE   74


  LOC  OBJECT CODE    ADDR1 ADDR2  STMT   SOURCE STATEMENT                                          FDOS CL3-10 03/29/70

00260E 1255                        3117+PCITRT   LTR   R5,R5
002610 07D7                        3118+         BCR   NP,R7 BR IF RTN BUSY ON NON-EXISTENT
                                   3119+         DROP  RA
000000                             3120+         USING PIBADR,R8
002612 9601 8000      00000        3121+         OI    PIBFLG,NOTSVC7
                                   3122+         DROP  R8
000000                             3123+         USING PIBADR,RA
002616 4930 048C            0048C  3124+         CH    R3,LID IS LTA ACTIVE                    3-3
00261A 4770 C626            02626  3125+         BNE   NOSTACK 3-11
00261E 9281 D620      03620        3126+         MVI   PIBAR,X'81' ATN LTA BOUND                         3-11
002622 47F7 0008            00008  3127+         B     8(R7) STACK IT IF LT OPERATING FOR REQSTR   3-11
002626                             3128+NOSTACK  EQU   * 3-11
002626 9528 0291      00291        3129+         CLI   HLDPSW,X'28' PROG CHECK INT EXECUTION     3-7
00262A 4780 C64C            0264C  3130+         BE    PCITRT2 DO NOT TEST TIMER INT/FETCH  3-7
00262E 9502 B981      01981        3131+         CLI   RIK+1,X'02' IS FETCH IN PROG              3-4
002632 4770 C64C            0264C  3132+         BNE   PCITRT2 NO...                          3-4
002636 D500 BFF5 045B 01FF5 0045B  3133+         CLC   FIK(1),PWTIMS+1 FETCH IN SAME PROGRAM        3-7
00263C 4770 C64C            0264C  3134+         BNE   PCITRT2 BR IF LT NOT OPERATING FOR REQSTR       3-11
002640 9589 D620      03620        3135+         CLI   PIBAR,X'89' ATN IDRA BOUND                3-11
002644 4777 0004            00004  3136+         BNE   4(R7) BR IF NOT TO STACK IT         3-11
002648 47F7 0008            00008  3137+         B     8(R7) STACK IT                      3-11
00264C 4570 0178            00178  3138+PCITRT2  BAL   R7,SVEREG NO,CONTINUE                    3-4
002650 5893 D5E4            035E4  3139+         L     R9,PIBTAB+PIBINSTR-PIBADR(R3) LD ADDR OF REQSTR SAVE
002654 D207 6000 9008 00000 00008  3140+         MVC   0(8,R6),SVEPSW1 SAVE REQSTR PSW AND REGS IN HIS
00265A D223 6008 902C 00008 0002C  3141+         MVC   8(SVELBLL-SVER00,R6),SVER00 SAVE AREA
002660 D21B 602C 9010 0002C 00010  3142+         MVC   SVELBLL-SVER00+8(SVER00-SVER09,R6),SVER09
002666 5050 900C            0000C  3143+         ST    R5,SVEPSW2 SET RTN ADDR IN PROG PSW
00266A 1135                        3144+         LNR   R3,R5
00266C 47F0 C6A2            026A2  3145+         B     SETOP2


                                   3147+*    PROCEDURE FOR EXIT MACRO
002670 4570 C492            02492  3148+SVC19    BAL   R7,TMEKEY1 CK IT OWNERSHIP
002674 1B44                        3149+EXTRT1   SR    R4,R4 SET SVC INDEX TO VALUE FOR EXIT
002676 9515 0023      00023        3150+         CLI   SVOLDP+3,X'15' IS THIS OC                    3-5
00267A 4770 C686            02686  3151+         BNE   SXPC1 NO--ALLOW ANY ID               3-4
00267E 9530 048F      0048F        3152+         CLI   PIK+1,X'30' VALIDATE CALLER ID               3-3
002682 4720 00D6            000D6  3153+         BH    ERR21 3-3
002686                             3154+SXPC1    EQU   * 3-3
002686 4570 C6E6            026E6  3155+         BAL   R7,OPTRT2 GET REQSTR KEY AND OPTION TBL
00268A 4570 0178            00178  3156+         BAL   R7,SVEREG
00268E D203 900C 6004 0000C 00004  3157+         MVC   SVEPSW2(4),4(R6) RESTOR PROG REGS FROM USER SAVE
002694 D223 902C 6008 0002C 00008  3158+         MVC   SVER00(SVELBLL-SVER00),8(R6)
00269A D21B 9010 602C 00010 0002C  3159+         MVC   SVER09(SVER00-SVER09),SVELBLL-SVER00+8(R6)
0026A0 1035                        3160+SETOP1   LPR   R3,R5
0026A2 5034 0000            00000  3161+SETOP2   ST    R3,0(R4) STOR ADDR IN OPTION TBL
0026A6 47F0 01AC            001AC  3162+         B     EXT03


                                   3164+*    PROCEDURE FOR STXIT MACRO
0026AA 4570 C492            02492  3165+SVC18    BAL   R7,TMEKEY1 CK IT OWNERSHIP
       STXIT - EXIT AND TIMER FACILITIES                                                                       PAGE   75


  LOC  OBJECT CODE    ADDR1 ADDR2  STMT   SOURCE STATEMENT                                          FDOS CL3-10 03/29/70

0026AE D201 C48A 048E 0248A 0048E  3166+         MVC   TWTIMS(2),PIK 3-6
0026B4 4140 0001            00001  3167+SXTRT1   LA    R4,1 SET SVC INDEX TO VALU FOR STXIT
0026B8 9514 0023      00023        3168+         CLI   SVOLDP+3,X'14' IS THIS OC                    3-5
0026BC 4770 C6C8            026C8  3169+         BNE   SXPC2 NO--ALLOW ANY ID               3-4
0026C0 9530 048F      0048F        3170+         CLI   PIK+1,X'30' VALIDATE CALLER ID               3-3
0026C4 4720 00D6            000D6  3171+         BH    ERR21 3-3
0026C8                             3172+SXPC2    EQU   * 3-3
0026C8 4570 C6E6            026E6  3173+         BAL   R7,OPTRT2 GET REQSTR KEY AND OPTION TBL
0026CC 1330                        3174+         LCR   R3,R0 COMPLIMENT RTN ADDR
0026CE 4780 C6A2            026A2  3175+         BZ    SETOP2 BR IF EXIT BEING RESET
0026D2 1255                        3176+         LTR   R5,R5 TEST IF SVC FROM USER EXIT RTN
0026D4 4740 C6A2            026A2  3177+         BM    SETOP2 YES
0026D8 4121 0047            00047  3178+         LA    R2,71(R1) PT TO END OF USER SAVE AREA
0026DC 4570 B6A0            016A0  3179+         BAL   R7,VLDADR1 VALIDATE SAVE AREA ADDR
0026E0 9001 4000            00000  3180+         STM   R0,R1,0(R4) SET NEW EXIT
0026E4 07F9                        3181+         BR    R9
                                   3182+*         GET KEY AND OPTION TBL
0026E6 4A40 0022            00022  3183+OPTRT2   AH    R4,SVOLDP+2 CALC INDEX FOR SELECTNG OPT TBL
000011                             3184+         USING OPTRTSVC,R4
000000                             3185+OPTRTSCT DSECT  ,  DSECT TO AVOID ALLIGNMENT ERR
000011                             3186+OPTRTSVC EQU   OPTRTSCT+17 SVC NO. TO INDEX OPT TBL ADDRS
000454                             3187+OPTTBLPT EQU   OPTRTSCT+PCPTR-SYSS00 ADDR OF PTERS TO OPT TBLS
000000                             3188+IJBSUP20 CSECT
0026EA 4840 4443            00454  3189+         LH    R4,OPTTBLPT
                                   3190+         DROP  R4
0026EE 4830 048E            0048E  3191+OPTRT1   LH    R3,PIK LD KEY OF INTERRUPTED PROG
0026F2 1853                        3192+         LR    R5,R3 USE KEY AS INDEX TO OPTION TBLS
0026F4 8850 0001            00001  3193+         SRL   R5,1
0026F8 1A45                        3194+         AR    R4,R5 PT TO OPTION TBL FOR PROG
0026FA 9856 4000            00000  3195+         LM    R5,R6,0(R4)
0026FE 07F7                        3196+         BR    R7

                                   3198+****  SVC 51 MOVES THE PHASE HEADER TO THE OLTEP SAVEAREA SPECIFIED 3-9
                                   3199+****  IN REGISTER 0 .                                               3-9

002700                             3201+SVC51    EQU   * 3-9
002700 9510 048F      0048F        3202+         CLI   PIK+ONE,BGIDEN BACKGROUND REQUEST?          3-9
002704 4770 00D6            000D6  3203+         BNE   ERR21 NO,CANCEL                    3-9
002708 9180 04A0      004A0        3204+         TM    AOLTAB,OLTAC OLTEP ACTIVE?                3-9
00270C 4780 00D6            000D6  3205+         BZ    ERR21 NO,CANCEL                    3-9
002710 4570 0178            00178  3206+         BAL   R7,SVEREG SAVE REGISTERS               3-9
002714 1831                        3207+         LR    R3,R1 SAVE ADDR OF PHASE NAME      3-9
002716 1810                        3208+         LR    R1,R0 GET LOW ADDR OF OLTEP AREA   3-9
002718 4121 000B            0000B  3209+         LA    R2,LSVC51(R1) GET HIGH ADDR OF USER FIELD  3-9
00271C 4570 B6A0            016A0  3210+         BAL   R7,VLDADR1 VALIDATE ADDRESSES           3-9
002720 1813                        3211+         LR    R1,R3 RESTORE ADDR OF PHASE NAME   3-9
002722 4140 0001            00001  3212+         LA    R4,CODE51 PUT 1 IN FETCH RTE LINK REG  3-9
002726 47F0 BC08            01C08  3213+         B     FCHRT2 GO TO FETCH ROUTINE          3-9

00000C                             3215+OLTPAREA EQU   12 LENGTH OF MOVE TO OLTEP AREA 3-9
000001                             3216+CODE51   EQU   1 LINK REG CODE FOR SVC 51     3-9
       STXIT - EXIT AND TIMER FACILITIES                                                                       PAGE   76


  LOC  OBJECT CODE    ADDR1 ADDR2  STMT   SOURCE STATEMENT                                          FDOS CL3-10 03/29/70

00000B                             3217+LSVC51   EQU   11 LENGTH OF USER FIELD MINUS 1 3-9
000003                             3218+FGASSGNS EQU   X'03' FG ASSGNS IN PUBJCFLG       3-10
0000FF                             3219+OLTPHALT EQU   X'FF' OLTEP HALT I/O INDICATOR    3-10
                                   3220+*************** SVC 52 RETURNS THE ADDRESS OF FLPTR IN R7 *************

00272A 4400 0906            00906  3222+SVC52    EX    R0,COMPCLC REQUEST FROM LTA?                3-10
00272E 4770 00D6            000D6  3223+         BNE   ERR21 NO, ILLEGAL SVC                  3-10
002732 1211                        3224+         LTR   R1,R1 PARAMETER PASSED                    3-11
002734 4780 C2D0            022D0  3225+         BZ    PUBDEQ4 YES, EXIT VIA DEQUE                 3-11
002738 4170 09CF            009CF  3226+         LA    R7,FLPTR GET FLPTR ADDR                      3-10
00273C 5071 0000            00000  3227+         ST    R7,0(R1) 3-11
002740 07F9                        3228+         BR    R9 EXIT01                              3-11
       DOS SUPERVISOR - DISK ERROR ROUTINES                                                                    PAGE   77


  LOC  OBJECT CODE    ADDR1 ADDR2  STMT   SOURCE STATEMENT                                          FDOS CL3-10 03/29/70

                                   3230+* 360N-CL-453 SGDSK   CHANGE LEVEL 3-11                            3-11
                                   3231+*
                                   3232+*        DISK ERROR RECOVERY
                                   3233+*      R1 CCB ADDR
                                   3234+*      R2 CH AND UNIT
                                   3235+*      R3 PUB ADDR
                                   3236+*      R4 WORK REG
                                   3237+*      R5 WORK REG
                                   3238+*      R6 ERROR QUE ENTRY
                                   3239+*      R7 LINK AND WORK
                                   3240+*      R8 RECOV CCW ADDR
000000                             3241+         USING ERRQUE,R6
000000                             3242+         USING PUBADR,R3
000000                             3243+         USING CCBADR,R1
                                   3244+*      INITIALIZATION
002742 4370 3003            00003  3245+RESERR   IC    R7,PUBERR INCREASE ERROR COUNT
002746 4177 0001            00001  3246+         LA    R7,1(R7)
00274A 4270 3003            00003  3247+         STC   R7,PUBERR
00274E 9220 B794      01794        3248+         MVI   EDCCWH+4,X'20' UNCHAIN READ HA
002752 9102 600A      0000A        3249+         TM    ERQFLG,NOCCB IS THERE CCB
002756 4710 C782            02782  3250+         BO    DSKTST NO,SKIP
00275A D202 B8A9 1009 018A9 00009  3251+         MVC   EDR0+1(3),CCBCCW SET CCW ADDR IN TIC
002760 5850 B8A8            018A8  3252+         L     R5,EDR0 GET USER SEEK ADDR...
002764 D502 5001 0421 00001 00421  3253+         CLC   1(3,R5),EOCADR+1 VALID SEEK ADDRESS?         3-11
00276A 4740 C778            02778  3254+         BL    DSKTSTA YES, CONTINUE               3-11
00276E D702 5001 5001 00001 00001  3255+         XC    1(3,R5),1(R5) CLEAR SEEK ADDRESS          3-11
002774 47F0 B49C            0149C  3256+         B     RCVERR SIMULATE UNREC. ERROR.      3-11
002778                             3257+DSKTSTA  EQU   * 3-11
002778 5855 0000            00000  3258+         L     R5,0(R5)
00277C D203 6012 5002 00012 00002  3259+         MVC   ERQSEK,2(R5) PUT SEEK ADDR IN ERROR QUE
                                   3260+*      TEST INTERRUPT STATUS
002782 4170 C84A            0284A  3261+DSKTST   LA    R7,RTY1 3-7
002786 9108 6005      00005        3262+         TM    ERQCHL,CHDTA DATA CHECK                  3-7
00278A 0717                        3263+         BCR   O,R7 YES, BRANCH TO RTY1         3-7
00278C 9110 600C      0000C        3264+         TM    ERQSNS,ED3 EQUIP CHECK
002790 0717                        3265+         BCR   O,R7 YES, BRANCH TO RTY1         3-7
002792 9108 600D      0000D        3266+         TM    ERQSNS+1,ED8 NO RCD FOUND
002796 4710 C7DE            027DE  3267+         BO    NORCD
00279A 9101 600C      0000C        3268+         TM    ERQSNS,ED4 SEEK CHECK
00279E 4710 C808            02808  3269+         BO    SEKCHK
0027A2 9140 600C      0000C        3270+         TM    ERQSNS,ED5 INTV RQD
0027A6 0717                        3271+         BCR   O,R7 YES, BRANCH TO RTY1         3-7
0027A8 9108 600C      0000C        3272+         TM    ERQSNS,ED23 DATA CHECK
0027AC 4710 C824            02824  3273+         BO    RDHA9
0027B0 4170 C842            02842  3274+         LA    R7,RTY9 3-7
0027B4 9124 600C      0000C        3275+         TM    ERQSNS,ED22+ED26 BUS OUT OR OVERRUN
0027B8 0777                        3276+         BCR   NZ,R7 YES, BRANCH TO RTY9         3-7
0027BA 9102 600D      0000D        3277+         TM    ERQSNS+1,ED7 MISSING MARKER
0027BE 0717                        3278+         BCR   O,R7 YES, BRANCH TO RTY9         3-7
0027C0 9180 600C      0000C        3279+         TM    ERQSNS,ED9 CMD RJT
0027C4 0714                        3280+         BCR   O,R4 YES, BRANCH TO EXTRAN       3-7
       DOS SUPERVISOR - DISK ERROR ROUTINES                                                                    PAGE   78


  LOC  OBJECT CODE    ADDR1 ADDR2  STMT   SOURCE STATEMENT                                          FDOS CL3-10 03/29/70

0027C6 9102 600C      0000C        3281+         TM    ERQSNS,ED10 TRK CND CHK
0027CA 4710 C854            02854  3282+         BO    TRKCHK
0027CE 9160 600D      0000D        3283+         TM    ERQSNS+1,ED11 TRK OVRRUN OR EOC
0027D2 4770 C8E6            028E6  3284+         BC    NZ,TRKEOC
0027D6 9101 6005      00005        3285+         TM    ERQCHL,CHCHN CHAIN CHK
0027DA 0717                        3286+         BCR   O,R7 YES, BRANCH TO RTY9         3-7
0027DC 07F4                        3287+         BR    R4 NO, BRANCH TO EXTRAN        3-7
                                   3288+*
                                   3289+*      DISK RECOVERY ROUTINES
0027DE 9102 600D      0000D        3290+NORCD    TM    ERQSNS+1,ED7 MISS MARKER                 3-5
0027E2 4710 C80E            0280E  3291+         BO    SEKCHK1 YES,EQ SEEK ADR             3-5
0027E6 4550 C8D0            028D0  3292+         BAL   R5,EDRDHA1 READ HA AND R0              3-7
0027EA D501 B8A8 6012 018A8 00012  3293+         CLC   EDR0(2),ERQSEK EQ USER SEEK ADDR           3-9
0027F0 4770 C80E            0280E  3294+         BNE   SEKCHK1 NO,SEEK CHK
0027F4 9680 600A      0000A        3295+         OI    ERQFLG,TRABIT INDICATE NRF TO ERROR MONITOR
0027F8 9104 1003      00003        3296+         TM    CCBCOM2,ED13 USER WANT RETRY ON NRF
0027FC 4710 C842            02842  3297+         BO    RTY9 YES, GO CHECK RETRY COUNTER
002800 9608 1003      00003        3298+         OI    CCBCOM2,ED12 POST NOO RCD FOUND
002804 47F0 B56C            0156C  3299+         B     EXIGN
                                   3300+*
002808 9180 600C      0000C        3301+SEKCHK   TM    ERQSNS,ED9 CMD RJT
00280C 0714                        3302+         BCR   O,R4 YES, BRANCH TO EXTRAN       3-7
00280E 950A 3003      00003        3303+SEKCHK1  CLI   PUBERR,ED14 RETRY GTR THAN 10
002812 0724                        3304+         BCR   H,R4 YES BRANCH TO EXTRAN        3-7
002814                             3305+RECAL    EQU   *
002814 4180 B788            01788  3306+         LA    R8,EDCCWR GET CCW FOR ERRSIO
002818 4570 B5D0            015D0  3307+         BAL   R7,ERRSIO RECALIBRATE
00281C 47F0 B49C            0149C  3308+         B     RCVERR UNIT CHK
002820 47F0 B58E            0158E  3309+         B     EXRTY
                                   3310+*
002824 9501 3003      00003        3311+RDHA9    CLI   PUBERR,ED36 1ST RETRY                  3-10
002828 47D0 C814            02814  3312+         BNH   RECAL YES BRANCH                 3-10
00282C 4550 C8D4            028D4  3313+         BAL   R5,EDRDHA READ HA                    3-10
002830 95FF 3003      00003        3314+         CLI   PUBERR,255 256 RETRIES
002834 0784                        3315+         BCR   E,R4 YES, BRANCH TO EXTRAN       3-7
002836 910F 3003      00003        3316+         TM    PUBERR,X'0F' EVERY 16TH RETRY
00283A 4780 C814            02814  3317+         BZ    RECAL GO TO RECALIBRATE
00283E 47F0 B58E            0158E  3318+         B     EXRTY
002842 950A 3003      00003        3319+RTY9     CLI   PUBERR,ED14 RETRY 10 TIMES
002846 47F0 C84E            0284E  3320+         B     ONECHK USE ONLY ONE CHECK          3-9
                                   3321+*
00284A 9501 3003      00003        3322+RTY1     CLI   PUBERR,ED36 RETRY ONCE
00284E 0724                        3323+ONECHK   BCR   H,R4 YES, BRANCH TO EXTRAN       3-9
002850 47F0 B58E            0158E  3324+         B     EXRTY
                                   3325+*
002854 4400 B56C            0156C  3326+TRKCHK   EX    0,EXIGN SET UP CSW
002858 5870 0040            00040  3327+         L     R7,CSW UPDATE CCW ADDR
00285C 4B70 B814            01814  3328+         SH    R7,H8
002860 5070 B7C8            017C8  3329+         ST    R7,EDCCWT PUT IT IN TIC
002864 9208 B7C8      017C8        3330+         MVI   EDCCWT,X'08' RESTORE TIC CMD
002868 4550 C8D0            028D0  3331+         BAL   R5,EDRDHA1 READ HA AND R0              3-7
       DOS SUPERVISOR - DISK ERROR ROUTINES                                                                    PAGE   79


  LOC  OBJECT CODE    ADDR1 ADDR2  STMT   SOURCE STATEMENT                                          FDOS CL3-10 03/29/70

00286C 9101 B8A0      018A0        3332+         TM    EDHA,ED27 ALT TRK(DEFECTIVE TRK)
002870 4780 C898            02898  3333+         BZ    EDTIC NO,EXEC USER CHAIN
002874 9562 3004      00004        3334+         CLI   PUBDEVTY,T2314 TYPE = 2314
002878 4780 C884            02884  3335+         BE    *+12 YES.. CHECK HEAD GTR THAN 19
00287C 9509 B8AB      018AB        3336+         CLI   EDR0+3,ED28 HEAD GTR THAN 9
002880 47B0 C8E2            028E2  3337+         BNL   CYLEND YES,BRANCH
002884 9513 B8AB      018AB        3338+         CLI   EDR0+3,ED38 HEAD GTR THAN 19
002888 47B0 C8E2            028E2  3339+         BNL   CYLEND YES.. POST END OF CYLINDER
00288C 5870 B8A8            018A8  3340+         L     R7,EDR0 UPDATE CYL NO...
002890 4177 0001            00001  3341+         LA    R7,1(R7)
002894 5070 B8A8            018A8  3342+         ST    R7,EDR0
002898 4570 B0FA            010FA  3343+EDTIC    BAL   R7,CQDSP RESTORE REGS
000000                             3344+         USING LUBID,R5 3-1
00289C 91F0 5020      00020        3345+         TM    REQID,X'F0' 3-1
0028A0 4780 C8C0            028C0  3346+         BZ    EDTIC2 3-1
0028A4 9210 B7BD      017BD        3347+         MVI   EDCCWF+5,X'10' DISABLE LONG SEEKS
0028A8 9506 5040      00040        3348+         CLI   LUBDSP,SYSRES IS IT FOR SYSRES
                                   3349+         DROP  R5
0028AC 4770 C8C4            028C4  3350+         BNE   EDTIC1 NO,SKIP
0028B0 4570 B26C            0126C  3351+         BAL   R7,GETPIB CALC OWNER
0028B4 9240 B7BD      017BD        3352+         MVI   EDCCWF+5,X'40' DISABLE WRITES
                                   3353+         DROP  RA
000000                             3354+         USING PIBADR,R8
0028B8 9180 800C      0000C        3355+         TM    PIBPUBAS,ED37 CAN PROG WRITE ON SYSRES
0028BC 4780 C8C4            028C4  3356+         BZ    EDTIC1 NO,BRANCH
                                   3357+         DROP  R8
000000                             3358+         USING PIBADR,RA
0028C0 9200 B7BD      017BD        3359+EDTIC2   MVI   EDCCWF+5,X'00' SET FILE MASK TO ZERO        3-1
0028C4 4180 B7A0            017A0  3360+EDTIC1   LA    R8,EDCCWS SET FOR ERRSIO
0028C8 4320 6000            00000  3361+         IC    R2,ERQCSW GET CCW KEY...
0028CC 47F0 B57A            0157A  3362+         B     EXWHY BRANCH TO AREA              3-9
                                   3363+*
0028D0 9240 B794      01794        3364+EDRDHA1  MVI   EDCCWH+4,X'40' CHAIN HA AND R0
0028D4 4180 B790            01790  3365+EDRDHA   LA    R8,EDCCWH SET CCW ADDR FOR ERRSIO
0028D8 4570 B5D0            015D0  3366+         BAL   R7,ERRSIO EXEC RD HA
0028DC 47F0 B49C            0149C  3367+         B     RCVERR UNIT CHK
0028E0 07F5                        3368+         BR    R5 3-7
                                   3369+*
0028E2 9620 1003      00003        3370+CYLEND   OI    CCBCOM2,ED35 POST EOC
0028E6 D600 1003 600D 00003 0000D  3371+TRKEOC   OC    CCBCOM2,ERQSNS+1 POST CCB FOR TRK OVRRUN,EOC
0028EC 47F0 B56C            0156C  3372+         B     EXIGN
0028F0                             3373+         DS    0H ALIGN                       3-9
                                   3374+         DROP  R6,R1,R3
000040                             3375+ED1      EQU   X'40' FLAG BIT - DATA CHECK
000001                             3376+ED2      EQU   X'01' STATUS BIT FOR CHANNEL CHAINING CHEK
000010                             3377+ED3      EQU   X'10' SENSE BIT - EQUIPT CHECK
000001                             3378+ED4      EQU   X'01' SENSE BIT - SEEK CHECK
000040                             3379+ED5      EQU   X'40' SENSE BIT - INTERV REQ
00002C                             3380+ED6      EQU   X'2C' BUSOUT, DATA CHECK, OR OVERRUN
000002                             3381+ED7      EQU   X'02' SENSE BIT - MISSING ADDR MARKER
000008                             3382+ED8      EQU   X'08' SENSE BIT - NO RECORD FOUND
       DOS SUPERVISOR - DISK ERROR ROUTINES                                                                    PAGE   80


  LOC  OBJECT CODE    ADDR1 ADDR2  STMT   SOURCE STATEMENT                                          FDOS CL3-10 03/29/70

000080                             3383+ED9      EQU   X'80' SENSE BIT - COMMAND REJECT
000002                             3384+ED10     EQU   X'02' SENSE BIT - TRACK CONDITION CHECK
000060                             3385+ED11     EQU   X'60' TRACK OVERRUN OR END OF CYLINDER
000008                             3386+ED12     EQU   X'08' CCB - NO RECORD FOUND
000004                             3387+ED13     EQU   X'04' SENSE BIT - FILE PROTECT
00000A                             3388+ED14     EQU   10 NUMBER RETRIES
000002                             3389+ED17     EQU   X'02' ALL READ COMMANDS
000001                             3390+ED18     EQU   X'01' END IN BINARY 10
000001                             3391+ED19     EQU   X'01' SELECTED ERROR BIT - ERROR BLOCK
000030                             3392+ED20     EQU   X'30' VERIFY COMM (SKIP AND SILI BITS ON)
000002                             3393+ED21     EQU   X'02' FLAG BIT - VERIFY ERROR
000020                             3394+ED22     EQU   X'20' SENSE BIT - BUS OUT CHECK
000008                             3395+ED23     EQU   X'08' SENSE BIT - DATA CHECK
000080                             3396+ED24     EQU   X'80' SENSE BIT - DATA CHECK IN COUNT
000020                             3397+ED25     EQU   X'20' FLAG - DATA CHECK IN COUNT FIELD
000004                             3398+ED26     EQU   X'04' SENSE BIT - OVERRUN
000001                             3399+ED27     EQU   X'01' FLAG BYTE BITS FOR ALTERNATE TRACK
000009                             3400+ED28     EQU   9 MAX HEAD NO.
0000C0                             3401+ED29     EQU   X'C0' NORMAL FILE MASK (ALLOW READS-SEEKS)
000000                             3402+ED31     EQU   0 REQUESTER IS SUPERVISOR
000040                             3403+ED32     EQU   X'40' FILE MASK-INHIBIT WRITES
000008                             3404+ED33     EQU   X'08' PUB+6 - SHARED FILE
0000D0                             3405+ED34     EQU   X'D0' FILE MASK-LIMIT SEEKS
000020                             3406+ED35     EQU   X'20' CCB - END OF CYLINDER
000001                             3407+ED36     EQU   1 RETRY COUNT
000080                             3408+ED37     EQU   X'80' WRITE O N SYSRES FLAG
000013                             3409+ED38     EQU   19 MAX. 2314 HEAD NO.
                                   3410+* 360N-CL-453  SGTHAP  CHANGE LEVEL 3-12                           3-12
       TRACK HOLD MACRO ROUTINES                                                                               PAGE   81


  LOC  OBJECT CODE    ADDR1 ADDR2  STMT   SOURCE STATEMENT                                          FDOS CL3-10 03/29/70

0028F0 4140 C90C            0290C  3412+SVC35    LA    R4,TKHD1 SET UP BAL REGISTER
0028F4 92FF 0022      00022        3413+SVC35A   MVI   SVOLDP+2,X'FF' SET FLAG TO INDICATE TRACK HOLD TO
                                   3414+*                                 BE PERFORMED FOR THIS I/O
0028F8 47F0 08EE            008EE  3415+         B     SVC00
0028FC 9200 0022      00022        3416+TKHDRTN  MVI   SVOLDP+2,X'00' TURN OFF FLAG
000000                             3417+         USING PUBADR,R3
002900 D300 CC46 3004 02C46 00004  3418+         MVZ   ALC3(1),PUBDEVTY GET DEVICE TYPE
002906 9560 CC46      02C46        3419+         CLI   ALC3,T2311 IS IT A DISK
00290A 07F4                        3420+         BR    R4 RETURN TO CORRECT LOCATION
00290C                             3421+TKHD1    EQU   *
00290C 4770 09AA            009AA  3422+         BNE   EXCP3 NO RETURN TO MAIN LINE
000000                             3423+         USING CCBADR,R1
002910 D202 CC3D 1009 02C3D 00009  3424+         MVC   ALC2+1(3),CCBCCW MOVE CCW TO FULL WORD
002916 5840 CC3C            02C3C  3425+         L     R4,ALC2 LOAD ADDRESS IN REGISTER
00291A 9507 4000      00000        3426+         CLI   0(R4),X'07' IS COMMAND CODE A LONG SEEK
00291E 4770 09AA            009AA  3427+         BNE   EXCP3 NO - IGNORE TRACK HOLD REQUEST
002922 5844 0000            00000  3428+         L     R4,0(R4) GET SEEK ADDRESS FROM CCW
002926 95FF 3005      00005        3429+         CLI   PUBOPTN,X'FF' ANY ENTRIES QUED TO DEVICE
00292A 4780 C9D2            029D2  3430+         BE    TKHDQUE NO-PLACE ENTRY IN TABLE
00292E 1B77                        3431+         SR    R7,R7 ZERO REGISTER
002930 4370 3005            00005  3432+         IC    R7,PUBOPTN GET POINTER IN PUB
002934 4550 CC0C            02C0C  3433+         BAL   R5,THRETRY BAL TO ROUTINE TO SCAN TABLE
002938 47F0 CA08            02A08  3434+         B     TKHDADD BRANCH TO ADD ENTRY TO TABLE
000000                             3435+         USING TKHDTAD,R7
00293C D502 A005 0469 00005 00469  3436+         CLC   5(3,RA),LTAREA DID LTA ISSUE A HOLD           3-12
002942 4770 C9B0            029B0  3437+         BNE   TKHELD NO                             3-12
002946 D500 045F 700A 0045F 0000A  3438+         CLC   LTK+1(1),TKHDOWN LTA ALREADY OWN TRK            3-12
00294C 4780 C9B0            029B0  3439+         BE    TKHELD YES                            3-12
002950 4850 045E            0045E  3440+         LH    R5,LTK PICK UP LTA USER               3-12
002954 4155 D5E0            035E0  3441+         LA    R5,PIBTAB(R5) PICK UP PIB ADDRESS            3-12
002958 9288 5000      00000        3442+         MVI   0(R5),X'88' REMOVE PARTITION UNTILL FREED  3-12
00295C 9501 045F      0045F        3443+         CLI   LTK+1,X'01' WAS IT BG                      3-12
002960 4770 C96C            0296C  3444+         BNE   TKHNBG NO                             3-12
002964 5850 D4D8            034D8  3445+         L     R5,BGSAVADR PICK UP BG SAVE ADDR           3-12
002968 47F0 C970            02970  3446+         B     TKHSVADR 3-12
00296C 5855 0004            00004  3447+TKHNBG   L     R5,4(R5) PART SAVE AREA ADDRESS         3-12
002970 5845 000C            0000C  3448+TKHSVADR L     R4,12(R5) ADDRESS PORTION OF SAVE PSW    3-12
002974 5B40 CC48            02C48  3449+         S     R4,TKHMIN2 BACK UP ADDRESS BY 2 BYTES     3-12
002978 5045 000C            0000C  3450+         ST    R4,12(R5) STORE BACK UP ADDRESS        3-12
00297C 9500 CC67      02C67        3451+         CLI   TKHLTA,X'00' LTA ALREADY WAITING            3-12
002980 4780 C994            02994  3452+         BE    LTAWAIT NO                             3-12
002984 D200 CC66 045F 02C66 0045F  3453+         MVC   TKHLTA2,LTK+1 SAVE ID                       3-12
00298A D205 CC60 7004 02C60 00004  3454+         MVC   TKTRAC2,TKHDADR SAVE ADDRESS                  3-12
002990 47F0 C9A0            029A0  3455+         B     TKHLOAD RESTORE PSW                   3-12
002994 D200 CC67 045F 02C67 0045F  3456+LTAWAIT  MVC   TKHLTA,LTK+1 S        SAVE ID                       3-12
00299A D205 CC5A 7004 02C5A 00004  3457+         MVC   TKTRAC,TKHDADR TRACK WANTED BY LTA -SAVE IT  3-12
0029A0 5850 0024            00024  3458+TKHLOAD  L     R5,SVOLDP+4 SVC PSW                       3-12
0029A4 4155 0004            00004  3459+         LA    R5,4(R5) BUMP BY 4 TO USER ROUTINE     3-12
0029A8 5050 0024            00024  3460+         ST    R5,SVOLDP+4 TO REISSUE SVC                3-12
0029AC 47F0 025A            0025A  3461+         B     EXT01 RETURN                       3-12
0029B0 D500 700A 048F 0000A 0048F  3462+TKHELD   CLC   TKHDOWN(1),PIK+1 REQUESTER OWN TRACK
       TRACK HOLD MACRO ROUTINES                                                                               PAGE   82


  LOC  OBJECT CODE    ADDR1 ADDR2  STMT   SOURCE STATEMENT                                          FDOS CL3-10 03/29/70

0029B6 4770 CA2C            02A2C  3463+         BNE   THWAIT2 NO
0029BA 910F 700B      0000B        3464+         TM    TKHDCTR,X'0F' MORE THAN 15 HOLDS
0029BE 4710 00D6            000D6  3465+         BO    ERR21 YES
0029C2 4340 700B            0000B  3466+         IC    R4,TKHDCTR ADD ONE
0029C6 4144 0001            00001  3467+         LA    R4,1(R4) TO COUNTER
0029CA 4240 700B            0000B  3468+         STC   R4,TKHDCTR
0029CE 47F0 09AA            009AA  3469+         B     EXCP3
0029D2 95FF C9DD      029DD        3470+TKHDQUE  CLI   THFLPTR,X'FF' TABLE FILLED
0029D6 4780 CA30            02A30  3471+         BE    THWAIT1 YES
0029DA 4170 0000            00000  3472+         LA    R7,0 GET TRACK HOLD FREE LIST POINTER
0029DD                             3473+THFLPTR  EQU   *-1
0029DE 4270 3005            00005  3474+         STC   R7,PUBOPTN PLACE IN PUB TABLE
0029E2 4C70 CC42            02C42  3475+         MH    R7,H12 USE POINTER TO GET TO ENTRY IN TABLE
0029E6 5A70 0480            00480  3476+         A     R7,THTABAD
0029EA D200 C9DD 7000 029DD 00000  3477+         MVC   THFLPTR,TKHDPTR MOVE THAT POINTER TO FREE LIST POINT
0029F0 5010 7000            00000  3478+THSETUP  ST    R1,TKHDCCB-1 STORE CCB IN TABLE
0029F4 92FF 7000      00000        3479+         MVI   TKHDPTR,X'FF' MOVE FF IN THIS ENTRY
0029F8 D205 7004 4000 00004 00000  3480+         MVC   TKHDADR(6),0(R4) SAVE DISK ADDRESS
0029FE D200 700A 048F 0000A 0048F  3481+         MVC   TKHDOWN(1),PIK+1 SAVE TASK IDENTIFIER
002A04 47F0 09AA            009AA  3482+         B     EXCP3
002A08 95FF C9DD      029DD        3483+TKHDADD  CLI   THFLPTR,X'FF' TABLE FULL
002A0C 4780 CA30            02A30  3484+         BE    THWAIT1 YES
002A10 D200 7000 C9DD 00000 029DD  3485+         MVC   TKHDPTR(1),THFLPTR MOVE NEXT AVAIL ENTRY PNTR IN TAB
002A16 4870 C9DC            029DC  3486+         LH    R7,THFLPTR-1 GET NEXT AVAIL ENTRY POINTER
002A1A 4C70 CC42            02C42  3487+         MH    R7,H12 USE POINTER AS INDEX TO NEXT ENTRY
002A1E 5A70 0480            00480  3488+         A     R7,THTABAD
002A22 D200 C9DD 7000 029DD 00000  3489+         MVC   THFLPTR(1),TKHDPTR MOVE THIS PTR TO FLPTR
002A28 47F0 C9F0            029F0  3490+         B     THSETUP
002A2C 9680 700B      0000B        3491+THWAIT2  OI    TKHDFLG,THELD INDICATE SOMEONE WAITING FOR THIS TRK
000000                             3492+         USING PIBADR,RA
002A30 94FE A000      00000        3493+THWAIT1  NI    PIBFLG,255-NOTSVC7 MAKE THIS TASK INACTINE
002A34 92FF 0022      00022        3494+         MVI   SVOLDP+2,X'FF' MAKE THIS INTERRUPT CODE UNIQUE
002A38 47F0 C1C8            021C8  3495+         B     RESVC GO TO RESVC PROBLEM PROGRAM
                                   3496+         DROP  RA
002A3C 9224 CC45      02C45        3497+SVC36    MVI   TKHWT+1,X'24' SET MASK FOR FREEING TRACK
002A40 D203 CC3C 1002 02C3C 00002  3498+         MVC   ALC2(4),CCBCOM1
002A46 4540 C8F4            028F4  3499+         BAL   R4,SVC35A BRANCH TO INITIATE REGISTERS
002A4A D203 1002 CC3C 00002 02C3C  3500+         MVC   CCBCOM1(4),ALC2
002A50 9223 CC45      02C45        3501+         MVI   TKHWT+1,X'23' RESET MASK FOR TRACK HOLD
002A54 4770 00D6            000D6  3502+         BNE   ERR21
002A58 9180 CC47      02C47        3503+         TM    ALC,X'80' FROM DETACH              3-5
002A5C 4780 CA68            02A68  3504+         BZ    SVC36A NO SKIP                  3-5
002A60 4140 CC54            02C54  3505+         LA    R4,ALC4 POINT R4 TO SEEK BUFFER  3-5
002A64 47F0 CA76            02A76  3506+         B     SVC36B SKIP COMPUTING R4        3-5
002A68 D202 CC3D 1009 02C3D 00009  3507+SVC36A   MVC   ALC2+1(3),CCBCCW MOVE CCW TO FULL WORD    3-5
002A6E 5840 CC3C            02C3C  3508+         L     R4,ALC2 LOAD ADDRESS IN REGISTER
002A72 5844 0000            00000  3509+         L     R4,0(R4) GET SEEK ADDRESS FROM CCW
002A76 1B77                        3510+SVC36B   SR    R7,R7 ZERO REGISTER            3-5
002A78 95FF 3005      00005        3511+         CLI   PUBOPTN,X'FF' ANY HOLDS ON THIS DEVICE
002A7C 4780 00D6            000D6  3512+         BE    ERR21
002A80 4370 3005            00005  3513+         IC    R7,PUBOPTN GET POINTER
       TRACK HOLD MACRO ROUTINES                                                                               PAGE   83


  LOC  OBJECT CODE    ADDR1 ADDR2  STMT   SOURCE STATEMENT                                          FDOS CL3-10 03/29/70

002A84 9640 CC47      02C47        3514+         OI    ALC,TKHD1ST TURN ON SWITCH - 1ST TIME THROUGH
002A88 4550 CC0C            02C0C  3515+         BAL   R5,THRETRY BAL TO ROUTINE TO SCAN TABLE
002A8C 47F0 00D6            000D6  3516+         B     ERR21
002A90 D500 700A 048F 0000A 0048F  3517+THFREE   CLC   TKHDOWN(1),PIK+1 REQUESTER OWN THIS TRACK
002A96 4780 CABE            02ABE  3518+         BE    THFREE1 YES
002A9A 9180 CC47      02C47        3519+         TM    ALC,X'80' THIS REQUEST FROM DETACH
002A9E 4710 CAB4            02AB4  3520+         BO    DETFRE YES...                         3-3
002AA2 D502 A005 0469 00005 00469  3521+         CLC   5(3,RA),LTAREA TRANS ISSUE FREE               3-3
002AA8 4770 CAB4            02AB4  3522+         BNE   DETFRE NO...                             3-3
002AAC 9540 041F      0041F        3523+         CLI   PID+1,X'40' ALSO FROM MAINTASK            3-3
002AB0 4740 CABE            02ABE  3524+         BL    THFREE1 YES...FREE IT                    3-3
002AB4                             3525+DETFRE   EQU   * 3-3
002AB4 D500 700A D21B 0000A 0321B  3526+         CLC   TKHDOWN(1),TIDSAV+1 TASK OWN THIS TRACK
002ABA 4770 00D6            000D6  3527+         BNE   ERR21 NO
002ABE                             3528+THFREE1  EQU   *
002ABE 910F 700B      0000B        3529+         TM    TKHDCTR,X'0F' DOES ENTRY HAVE MORE THAN ONE HOLD
002AC2 4780 CAD2            02AD2  3530+         BZ    TKDLET NO
002AC6 4360 700B            0000B  3531+         IC    R6,TKHDCTR SUBTRACT ONE
002ACA 0660                        3532+         BCTR  R6,0 FROM COUNTER
002ACC 4260 700B            0000B  3533+         STC   R6,TKHDCTR
002AD0 07F9                        3534+         BR    R9 EXIT
002AD2 9140 CC47      02C47        3535+TKDLET   TM    ALC,TKHD1ST FIRST TIME THROUGH
002AD6 4710 CB8A            02B8A  3536+         BO    THDLT1 YES
002ADA 4340 C9DD            029DD  3537+         IC    R4,THFLPTR SAVE FREE LIST POINTER
002ADE D200 C9DD CC41 029DD 02C41  3538+         MVC   THFLPTR(1),ALC1+1 MOVE PREVIOUS ENTRY PNTR TO FLPTR
002AE4 5860 CC3C            02C3C  3539+         L     R6,ALC2 GET PREVIOUS ENTRY ADDRESS
002AE8 D200 6000 7000 00000 00000  3540+         MVC   0(1,R6),TKHDPTR MOVE THIS PNTR TO PREVIOUS ENTRY
002AEE 4240 7000            00000  3541+         STC   R4,TKHDPTR STORE SAVED FLPTR IN THIS ENTRY
002AF2 9180 700B      0000B        3542+THCHK    TM    TKHDFLG,THELD IS SOMEONE WAITING FOR THIS TRACK
002AF6 9200 700A      0000A        3543+         MVI   TKHDOWN,X'00' REMOVE TID FROM TABLE
002AFA 9200 700B      0000B        3544+         MVI   TKHDFLG,X'00' ZERO BYTE
002AFE 4710 CBBE            02BBE  3545+         BO    THINIT INITIATE WAITING TASK
002B02 D502 A005 0469 00005 00469  3546+         CLC   5(3,RA),LTAREA DID LTA ISSUE THE FREE       3-12
002B08 4770 CB22            02B22  3547+         BNE   TKHNLTA NO                           3-12
002B0C 4850 D62E            0362E  3548+         LH    R5,LTADD PICK UP LTA ADDR             3-12
002B10 D507 5000 CC4C 00000 02C4C  3549+         CLC   0(8,R5),TKHBSET WAS IT BSETL1                3-12
002B16 4770 CB22            02B22  3550+         BNE   TKHNLTA NO                           3-12
002B1A 9101 5009      00009        3551+         TM    9(R5),X'01' WAS FREE DUE TO BAD HOLD ON  3-12
002B1E 4780 CB80            02B80  3552+         BE    THINIT2 SVC FROM BSETL1  -BR IF YES  3-12
002B22 1B55                        3553+TKHNLTA  SR    R5,R5 CLEAR R5                     3-12
002B24 91FF CC67      02C67        3554+         TM    TKHLTA,X'FF' DOES LTA NEED A HELD TRACK   3-12
002B28 4780 CB50            02B50  3555+         BZ    CHECK2 NO                           3-12
002B2C D505 7004 CC5A 00004 02C5A  3556+         CLC   TKHDADR,TKTRAC LTA WAITING FOR THIS TRACK   3-12
002B32 4770 CB50            02B50  3557+         BNE   CHECK2 NO                           3-12
002B36 4350 CC67            02C67  3558+         IC    R5,TKHLTA PICK UP PART ID              3-12
002B3A D500 CC67 CC66 02C67 02C66  3559+         CLC   TKHLTA,TKHLTA2 PART HAVE ANOTHER REQUEST    3-12
002B40 4770 CB48            02B48  3560+         BNE   TKHX NO                           3-12
002B44 9400 CC66      02C66        3561+         NI    TKHLTA2,X'00' RESET OTHER REQUEST          3-12
002B48 9400 CC67      02C67        3562+TKHX     NI    TKHLTA,X'00' CLEAR ID SAVE                3-12
002B4C 47F0 CB78            02B78  3563+         B     TKHDPIB 3-12
002B50 91FF CC66      02C66        3564+CHECK2   TM    TKHLTA2,X'FF' LTA HAVE OTHER REQUEST       3-12
       TRACK HOLD MACRO ROUTINES                                                                               PAGE   84


  LOC  OBJECT CODE    ADDR1 ADDR2  STMT   SOURCE STATEMENT                                          FDOS CL3-10 03/29/70

002B54 4780 CB80            02B80  3565+         BZ    THINIT2 NO                           3-12
002B58 D505 7004 CC60 00004 02C60  3566+         CLC   TKHDADR,TKTRAC2 3-12
002B5E 4770 CB80            02B80  3567+         BNE   THINIT2 3-12
002B62 4350 CC66            02C66  3568+         IC    R5,TKHLTA2 3-12
002B66 D500 CC67 CC66 02C67 02C66  3569+         CLC   TKHLTA,TKHLTA2 PART HAVE ANOTHER REQUEST    3-12
002B6C 4770 CB74            02B74  3570+         BNE   TKHY NO                           3-12
002B70 9400 CC67      02C67        3571+         NI    TKHLTA,X'00' RESET OTHER REQUEST ALSO     3-12
002B74 9400 CC66      02C66        3572+TKHY     NI    TKHLTA2,X'00' 3-12
002B78 4155 D5E0            035E0  3573+TKHDPIB  LA    R5,PIBTAB(R5) LOAD ADDRESS OF PIB TABLE    3-12
002B7C 9283 5000      00000        3574+         MVI   0(R5),X'83' MAKE PIB READY TO RUN        3-12
002B80 95FF 7000      00000        3575+THINIT2  CLI   TKHDPTR,X'FF' WAS TABLE FULL               3-12
002B84 4780 CBBE            02BBE  3576+         BE    THINIT INITIATE WAITING TASK
002B88 07F9                        3577+         BR    R9 EXIT
002B8A 95FF 7000      00000        3578+THDLT1   CLI   TKHDPTR,X'FF' ONLY HOLD ON DASD
002B8E 4780 CBAA            02BAA  3579+         BE    THDLT2 YES
002B92 4340 7000            00000  3580+         IC    R4,TKHDPTR SAVE THIS POINTER
002B96 D200 7000 C9DD 00000 029DD  3581+         MVC   TKHDPTR(1),THFLPTR MOVE FLPTR TO HERE
002B9C D200 C9DD 3005 029DD 00005  3582+         MVC   THFLPTR(1),PUBOPTN MOVE PTR FROM PUB TO FLPTR
002BA2 4240 3005            00005  3583+         STC   R4,PUBOPTN STORE SAVED PTR TO PUB TABLR
002BA6 47F0 CAF2            02AF2  3584+         B     THCHK
002BAA                             3585+THDLT2   EQU   *
002BAA D200 7000 C9DD 00000 029DD  3586+         MVC   TKHDPTR(1),THFLPTR MOVE FLPTR TO THIS ENTRY
002BB0 D200 C9DD 3005 029DD 00005  3587+         MVC   THFLPTR(1),PUBOPTN MVE PTR TO DELETED ENTRY TO FLPTR
002BB6 92FF 3005      00005        3588+         MVI   PUBOPTN,X'FF' INDICATE NO ENTRIES HELD ON THIS DASD
002BBA 47F0 CAF2            02AF2  3589+         B     THCHK
002BBE 4130 BA22            01A22  3590+THINIT   LA    R3,MVCFLD+2 GET ADDRESS OF TASK ID NUMBERS
002BC2 4133 0001            00001  3591+TKHDAGN  LA    R3,1(R3) INCREMENT BY ONE
002BC6 9500 3000      00000        3592+         CLI   0(R3),X'00' END OF NUMBERS
002BCA 0789                        3593+         BCR   E,R9 YES - EXIT
002BCC 1B44                        3594+         SR    R4,R4 ZERO REGISTER
002BCE 4343 0000            00000  3595+         IC    R4,0(R3) GET NUMBER IN REGISTER
002BD2 4A40 044A            0044A  3596+         AH    R4,PIBPT ADD ADDRESS OF PIB TABLE
000000                             3597+         USING PIBADR,R4
002BD6 9580 4000      00000        3598+         CLI   PIBFLG,FLG80 THIS TASK EXIST
002BDA 4780 CBC2            02BC2  3599+         BE    TKHDAGN NO GET NEXT NUMBER
002BDE 9101 4000      00000        3600+         TM    PIBFLG,NOTSVC7 TASK IN WAIT STATE
002BE2 4710 CBC2            02BC2  3601+         BO    TKHDAGN NO - GET NEXT NUMBER
002BE6 5850 4004            00004  3602+         L     R5,PIBSVADD-1 GET PP SAVE AREA ADDRESS
                                   3603+         DROP  R9
000000                             3604+         USING SVEARA,R5
002BEA D501 500A CC44 0000A 02C44  3605+         CLC   SVEPSW1+2(2),TKHWT IS TASK IN WAIT STATE VIA SVC 35
002BF0 4770 CBC2            02BC2  3606+         BNE   TKHDAGN NO
002BF4 9200 500A      0000A        3607+         MVI   SVEPSW1+2,X'00' REMOVE UNIQUE CODE FOR SVC 35
002BF8 9601 4000      00000        3608+         OI    PIBFLG,NOTSVC7 ACTIVATE TASK
002BFC 9180 CC47      02C47        3609+         TM    ALC,X'80' THIS REQUEST FROM DETACH RTN
002C00 4710 CBC2            02BC2  3610+         BO    TKHDAGN YES
002C04 4190 01AC            001AC  3611+         LA    R9,EXT03 SET UP EXIT FOR TASK SELECTION
002C08 47F0 CBC2            02BC2  3612+         B     TKHDAGN
002C0C 4C70 CC42            02C42  3613+THRETRY  MH    R7,H12 MULTIPLY BY TWELVE AND
002C10 5A70 0480            00480  3614+         A     R7,THTABAD ADD TABLR ADDRESS TO GET ENTRY
002C14 D505 4000 7004 00000 00004  3615+         CLC   0(6,R4),TKHDADR THIS THE TRACK
       TRACK HOLD MACRO ROUTINES                                                                               PAGE   85


  LOC  OBJECT CODE    ADDR1 ADDR2  STMT   SOURCE STATEMENT                                          FDOS CL3-10 03/29/70

002C1A 4785 0004            00004  3616+         BE    4(R5)
002C1E 94BF CC47      02C47        3617+         NI    ALC,255-TKHD1ST TURN OFF SWITCH
002C22 95FF 7000      00000        3618+         CLI   TKHDPTR,X'FF' IS THIS THE LAST ENTRY
002C26 0785                        3619+         BCR   E,R5 YES - EXIT
002C28 D200 CC41 7000 02C41 00000  3620+         MVC   ALC1+1(1),TKHDPTR GET POINTER INTO
002C2E 5070 CC3C            02C3C  3621+         ST    R7,ALC2
002C32 4870 CC40            02C40  3622+         LH    R7,ALC1 REGISTER
002C36 47F0 CC0C            02C0C  3623+         B     THRETRY GET NEXT ENTRY
                                   3624+         DROP  R1,R3,R4,R5,R7
000000                             3625+         USING SVEARA,R9
002C3C                             3626+ALC2     DS    F
002C40 0000                        3627+ALC1     DC    H'0'
002C42 000C                        3628+H12      DC    H'12'
002C44 FF23                        3629+TKHWT    DC    X'FF23'
002C46 00                          3630+ALC3     DC    X'00'
002C47 00                          3631+ALC      DC    X'00' FLAG BYTE FOR TRACK HOLD
000080                             3632+THELD    EQU   X'80' INDICATES THIS TRACK IN DEMAND
000040                             3633+TKHD1ST  EQU   X'40'
002C48 00000002                    3634+TKHMIN2  DC    X'00000002' 3-12
002C4C 5B5BC2E2C5E3D3F1            3635+TKHBSET  DC    C'$$BSETL1' 3-12
002C54 000000000000                3636+ALC4     DC    XL6'00' SEEK BUFFER FOR DETACH   3-5
002C5A 000000000000                3637+TKTRAC   DC    XL6'00' 3-12
002C60 000000000000                3638+TKTRAC2  DC    XL6'00' 3-12
002C66 00                          3639+TKHLTA2  DC    X'00' 3-12
002C67 00                          3640+TKHLTA   DC    X'00' 3-12
       ASYNCHRONOUS PROCESSING MACRO ROUTINES                                                                  PAGE   86


  LOC  OBJECT CODE    ADDR1 ADDR2  STMT   SOURCE STATEMENT                                          FDOS CL3-10 03/29/70

                                   3642+********************************************************************
                                   3643+* ATTACH MACRO SVC38 ROUTINE                                       *
                                   3644+********************************************************************
002C68                             3645+         DC    0H'0' ALIGN ON A HALF WORD BOUNDARY
002C68                             3646+SVC38    EQU   *
002C68 9530 048F      0048F        3647+         CLI   PIK+1,X'30' DID A MAIN TASK ISSUE ATTACH
002C6C 4720 00D6            000D6  3648+         BH    ERR21 IF NOT-ILLEGAL SVC

                                   3650+* SAVE REGS 0 & 1 BECAUSE THEY WILL BE USED BY VLDADR AND TRT      *
002C70 1830                        3651+         LR    R3,R0 SAVE SUBS SAVE AREA ADDRESS
002C72 1841                        3652+         LR    R4,R1 SAVE OTHER PARAMETERS POINTER

                                   3654+* TEST TO SEE IF A PIB ENTRY IS AVAILABLE TO ATTACH THIS SUBTASK   *
                                   3655+* 'TIDTRT' IS X'000000000000000708090A0B0C0D0E0F'                  *
002C74 1B22                        3656+         SR    R2,R2 CLEAR TID REGISTER FOR TRT
002C76 DD08 D22F D228 0322F 03228  3657+         TRT   TIDTRT+7(9),TIDTRT IF AVAIL, PIB IS NOW IN R2
002C7C 4770 CC98            02C98  3658+         BNE   SVC38A GO TO FOUND AVAIL PIB ROUTINE

                                   3660+* NO PIB WAS AVAILABLE - RELAY FACT BACK TO MAIN TASK              *
002C80 4110 D224            03224  3661+         LA    R1,SPVECB GET ADDR OF PIB AVAIL ECB
002C84 9400 1002      00002        3662+         NI    2(R1),X'00' UNPOST SPVECB
002C88 582A 0004            00004  3663+         L     R2,4(RA) GET ADDR OF MAINTASK SAVEAREA
002C8C 5012 0030            00030  3664+         ST    R1,48(R2) SPVR ECB ADDR TO MAINTASK R1
002C90 9280 2030      00030        3665+         MVI   48(R2),X'80' MAKE MAINTASKS R1 NEGATIVE
002C94 47F0 01AC            001AC  3666+         B     EXT03 GO TO TASK SELECTION

                                   3668+* SAVE THE 'TID' TASK IDENTIFIER IN R0 TEMORARILY                  *
002C98                             3669+SVC38A   EQU   *
002C98 5010 BB44            01B44  3670+         ST    R1,TADDSV SAVE TID POINTER             3-3
002C9C 8920 0004            00004  3671+         SLL   R2,4 CREATE TID-PIB DISPL OF SUBTASK
002CA0 4220 D21B            0321B  3672+         STC   R2,TIDSAV+1 SAVE THE TID

                                   3674+* VALIDATE THE ADDRESS OF THE SUBTASKS SAVEAREA                    *
002CA4 4230 D21C            0321C  3675+         STC   R3,APSAVE GET LO BYTE OF SAVE ADDRESS
002CA8 9107 D21C      0321C        3676+         TM    APSAVE,X'07' IS IT ON A DOUBLE WORD BOUNDARY
002CAC 4770 00D6            000D6  3677+         BNZ   ERR21 IF NOT-ILLEGAL SVC
002CB0 1813                        3678+         LR    R1,R3 GET LO LIMIT ADDR
002CB2 4121 007F            0007F  3679+         LA    R2,127(R1) GET HI LIMIT ADDR
002CB6 4570 B6A0            016A0  3680+         BAL   R7,VLDADR1 VALIDATE THE ADDRESS

                                   3682+* VALIDATE ADDRESS OF SUBTASKS ENTRY POINT                         *
002CBA 5814 0000            00000  3683+         L     R1,0(R4) GET LO LIMIT ADDR
002CBE 1821                        3684+         LR    R2,R1 GET HI LIMIT ADDR
002CC0 4570 B6A0            016A0  3685+         BAL   R7,VLDADR1 VALIDATE THE ADDRESS

                                   3687+* VALIDATE THE ADDRESS OF THE SUBTASKS ECB IF ANY                  *
002CC4 5814 0004            00004  3688+         L     R1,4(R4) GET LO LIMIT
002CC8 1211                        3689+         LTR   R1,R1 IS IT ZERO
002CCA 4780 CCDA            02CDA  3690+         BZ    SVC38B IF SO-THERE IS NO PARAMETER
002CCE 4121 0003            00003  3691+         LA    R2,3(R1) GET HI LIMIT
002CD2 4570 B6A0            016A0  3692+         BAL   R7,VLDADR1 VALIDATE THE ADDRESS
       ASYNCHRONOUS PROCESSING MACRO ROUTINES                                                                  PAGE   87


  LOC  OBJECT CODE    ADDR1 ADDR2  STMT   SOURCE STATEMENT                                          FDOS CL3-10 03/29/70

002CD6 943F 1002      00002        3693+         NI    2(R1),X'3F' UNPOST THE ECB
002CDA                             3694+SVC38B   EQU   *

                                   3696+* VALIDATE THE ADDRESS OF THE AB SAVE AREA IF ANY                  *
002CDA 5814 0008            00008  3697+         L     R1,8(R4) GET LO LIMIT
002CDE 1211                        3698+         LTR   R1,R1 IS IT ZERO
002CE0 4780 CCEC            02CEC  3699+         BZ    SVC38C IF SO-THERE IS NO PARAMETER
002CE4 4121 0047            00047  3700+         LA    R2,71(R1) GET HI LIMIT ADDR
002CE8 4570 B6A0            016A0  3701+         BAL   R7,VLDADR1 VALIDATE THE ADDRESS

                                   3703+* LOAD UP THE REGISTERS FOR FURTHER PROCESSING                     *
002CEC                             3704+SVC38C   EQU   *
002CEC 5810 BB44            01B44  3705+         L     R1,TADDSV 3-3
002CF0 9200 1000      00000        3706+         MVI   0(R1),X'00' REMOVE ID FROM TID AVAIL FLD 3-3
002CF4 4810 044A            0044A  3707+         LH    R1,PIBPT POINT TO PIB TBL
002CF8 4A10 D21A            0321A  3708+         AH    R1,TIDSAV POINT TO ST PIB ENTRY
002CFC 1851                        3709+         LR    R5,R1 POINT TO ST  PIB ENTRY
002CFE 5B50 0484            00484  3710+         S     R5,PIBDIFF POINT TO ST PIB EXTENSION
002D02 182A                        3711+         LR    R2,RA POINT TO MT PIB ENTRY
002D04 5B20 0484            00484  3712+         S     R2,PIBDIFF POINT TO MT PIB EXTENSION
002D08 586A 0004            00004  3713+         L     R6,4(RA) POINT R6 TO MAINTASK SAVE AREA

                                   3715+* COPY MAIN TASK PIB TO SUBTASK PIB                                *
002D0C D20F 1000 A000 00000 00000  3716+         MVC   0(16,R1),0(RA) COPY PIB TO SUBTASK PIB
002D12 94BF 100C      0000C        3717+         NI    12(R1),X'BF' TURN OFF APPENDAGE FLAG      3-6

                                   3719+* COPY MAIN TASK PIB EXT TO SUBTASK PIB EXT                        *
002D16 D20F 5000 2000 00000 00000  3720+         MVC   0(16,R5),0(R2) COPY PIB EXT TO SUBTASK PIB EXT

                                   3722+* COPY MAIN TASK SAVE AREA TO SUBTASK SAVE AREA                    *
002D1C 4570 0178            00178  3723+         BAL   R7,SVEREG SAVE USER'S REGISTERS
002D20 D26F 3008 6008 00008 00008  3724+         MVC   8(112,R3),8(R6) COPY FL PT SAVEAREA

                                   3726+* PUT ENTRY POINT PARAMETER IN SUBTASKS PSW                        *
002D26 D202 300D 4001 0000D 00001  3727+         MVC   13(3,R3),1(R4) ENTRY POINT TO S-T PSW

                                   3729+* PUT SUB-TASKS SAVE AREA ADDRESS IN SUBTASKS PIB ENTRY            *
002D2C 5031 0004            00004  3730+         ST    R3,4(R1) S-T SAVE ADDR TO ST PIB
002D30 9219 1004      00004        3731+         MVI   4(R1),X'19' RESTORE NOP INSTRUCTION

                                   3733+* PUT SUBTASK ECB ADDRESS PARAMETER IN SUBTASKS PIB EXTENSION      *
002D34 D203 5008 4004 00008 00004  3734+         MVC   8(4,R5),4(R4) ECB ADDR TO PIB EXT

                                   3736+* SET SUBTASKS PIB FLAG READY TO RUN                               *
002D3A 9283 1000      00000        3737+         MVI   0(R1),X'83' SET S-T PIB READY TO RUN

                                   3739+* PUT MAIN TASKS PIB DISPLACEMENT IN SUBTASKS PIB EXTENSION        *
002D3E D201 500C 041E 0000C 0041E  3740+         MVC   12(2,R5),PID M-T PIB DISPL TO S-T PIB EXT

                                   3742+* PUT SUBTASKS PIB DISPLACEMENT IN SUBTASKS SAVEAREA               *
002D44 D200 3078 D21B 00078 0321B  3743+         MVC   120(1,R3),TIDSAV+1 S-T TID TO S-T SAVEAREA
       ASYNCHRONOUS PROCESSING MACRO ROUTINES                                                                  PAGE   88


  LOC  OBJECT CODE    ADDR1 ADDR2  STMT   SOURCE STATEMENT                                          FDOS CL3-10 03/29/70

                                   3745+* PUT MAINTASKS SAVEAREA ADDRESS IN IN R1 OF SUBTASK               *
002D4A 5063 0030            00030  3746+         ST    R6,48(R3) M-T SAVE ADDR TO SUBS R1

                                   3748+* ENSURE MAINTASKS  R1 DOES NOT HAVE HI BIT ON-IE UNSUCCESSFUL     *
002D4E 947F 6030      00030        3749+         NI    48(R6),X'7F' ENSURE M-T R1 BIT 0 OFF

                                   3751+* PUT ADDRESS OF BYTE BEYOND SUBTASKS SAVE AREA IN MAINS R0        *
002D52 4103 0080            00080  3752+         LA    R0,128(R3) POINT TO BYTE BEYOND S-T SAVE
002D56 5006 002C            0002C  3753+         ST    R0,44(R6) STORE ST SAVE END+1 IN MAINS R0

                                   3755+* MOVE TID OF SUBTASK BEING ATTACHED INTO MVCFLD TO GIVE IT CORRECT*
                                   3756+* PRIORITY DURING TASK SELECTION. THIS WILL BE ACCOMPLISHED BY     *
                                   3757+* MOVING ONE BYTE AT A TIME,FROM LEFT TO RIGHT, ONE BYTE STARTING  *
                                   3758+* AT THE RIGHT END OF MVCFLD. WHEN THE ATTACHING TASK IS REACHED,  *
                                   3759+* THE TID WILL BE PLACED IN THE NEXT BYTE TO THE LEFT OF IT.       *
002D5A 4810 041E            0041E  3760+         LH    R1,PID GET PIB DISPL OF ATTACHING M-T
002D5E 4120 BA2F            01A2F  3761+         LA    R2,MVCFLD+15 POINT TO LAST BYTE OF MVCFLD
002D62 1B33                        3762+         SR    R3,R3 CLEAR CHARACTER REGISTER
002D64                             3763+SVC38D   EQU   *
002D64 0620                        3764+         BCTR  R2,0 DUNK MVCFLD POINTER
002D66 4332 0000            00000  3765+         IC    R3,0(R2) PICK UP MVCFLD CHARACTER
002D6A D200 2001 2000 00001 00000  3766+         MVC   1(1,R2),0(R2) MOVE CHAR RIGHT ONE BYTE
002D70 1913                        3767+         CR    R1,R3 IS IT THE ONE BEING SOUGHT
002D72 4770 CD64            02D64  3768+         BNE   SVC38D GO BACK UP TO NEXT CHARACTER
002D76                             3769+SVC38E   EQU   *
002D76 D200 2000 D21B 00000 0321B  3770+         MVC   0(1,R2),TIDSAV+1 INSERT TID FOR CORRECT PRIORITY

                                   3772+* ESTABLISH ABSOLUTE PRIORITY OF PIBS BY INSERTING NUMBERS 1 THRU  *
                                   3773+* N IN THE PIB EXTENTIONS. THE LOWER THE NUMBER THE HIER PRIORITY. *
002D7C 4570 CFA6            02FA6  3774+         BAL   R7,TKPRTY ESTABLISH ABSOLUTE PRIORITYS

                                   3776+* IF ABSAVE PARAMETER WAS PASSED SETUP AB EXIT FOR SUBTASK         *
002D80 5814 0008            00008  3777+         L     R1,8(R4) PICKUP ABSAVE ADDRESS
002D84 1211                        3778+         LTR   R1,R1 IS IT ZERO
002D86 4780 CDAE            02DAE  3779+         BZ    SVC38H NO STXIT DESIRED
002D8A 5820 0488            00488  3780+         L     R2,ABPTR POINT TO AB OPTION TABLE
002D8E 1832                        3781+         LR    R3,R2 WITH TWO REGISTERS
002D90 4840 041E            0041E  3782+         LH    R4,PID GET MAIN TASKS PIB DISPL
002D94 8840 0001            00001  3783+         SRL   R4,1 HALVE TO GET ABTAB DISPL
002D98 1A24                        3784+         AR    R2,R4 POINT TO M-T AB ENTRY
002D9A 4840 D21A            0321A  3785+         LH    R4,TIDSAV GET SUBTASKS PIB DISPL
002D9E 8840 0001            00001  3786+         SRL   R4,1 HALVE TO GET ABTAB DISPL
002DA2 1A34                        3787+         AR    R3,R4 POINT TO S-T AB ENTRY
002DA4 D203 3000 2000 00000 00000  3788+         MVC   0(4,R3),0(R2) MAINTASK ROUTINE ADDR TO SUBS
002DAA 5013 0004            00004  3789+         ST    R1,4(R3) SUBS SVAREA ADDRESS TO TABLE
002DAE                             3790+SVC38H   EQU   *
002DAE 9602 A00F      0000F        3791+         OI    15(RA),X'02' 3-3
002DB2 47F0 01AC            001AC  3792+         B     EXT03 GO TO TASK SELECTION
       ASYNCHRONOUS PROCESSING MACRO ROUTINES                                                                  PAGE   89


  LOC  OBJECT CODE    ADDR1 ADDR2  STMT   SOURCE STATEMENT                                          FDOS CL3-10 03/29/70

                                   3794+********************************************************************
                                   3795+* DETACH MACRO ROUTINE                                             *
                                   3796+********************************************************************
002DB6                             3797+SVC39    EQU   * DETACH MACRO ROUTINE
002DB6 1211                        3798+         LTR   R1,R1 WAS SAVE= PARAMETER PASSED
002DB8 4780 CE02            02E02  3799+         BZ    SVC39A IF NOT MAKE SURE THIS IS S-T
002DBC 9530 048F      0048F        3800+         CLI   PIK+1,X'30' IS THIS A MAIN TASK
002DC0 4720 CE0A            02E0A  3801+         BH    SVC39M IGNORE PARAMETER FROM SUBTASK
002DC4 4121 007F            0007F  3802+         LA    R2,127(R1) LOAD HI LIMIT ADDRESS
002DC8 4570 B6A0            016A0  3803+         BAL   R7,VLDADR1 VALIDATE S-T SAVE AREA ADDRESS 3-3
002DCC D200 D21B 1078 0321B 00078  3804+         MVC   TIDSAV+1(1),120(R1) SAVE TID
002DD2 9200 1078      00078        3805+         MVI   120(R1),X'00' CLEAR S-T ID IN ITS SAVEAREA
002DD6 910F D21B      0321B        3806+         TM    TIDSAV+1,X'0F' ANY LO 4 BITS OF TID ON
002DDA 4770 00D6            000D6  3807+         BNE   ERR21 LOW 4 BITS MUST BE ZERO
002DDE 9570 D21B      0321B        3808+         CLI   TIDSAV+1,X'70' IS TID AT LEAST X'70'
002DE2 4740 00D6            000D6  3809+         BL    ERR21 TID MUST RANGE 70 THRU F0
002DE6 4860 D21A            0321A  3810+         LH    R6,TIDSAV PICKUP TID OF SUBTASK
002DEA 4840 044A            0044A  3811+         LH    R4,PIBPT POINT TO PIBTAB BEGIN
002DEE 1A46                        3812+         AR    R4,R6 BUMP TO PIB FOR DETACHING SUBTSK
002DF0 4850 046C            0046C  3813+         LH    R5,PIB2PTR POINT TO PIBTAB EXTENSION BEGIN
002DF4 1A56                        3814+         AR    R5,R6 BUMP TO PIB EXT FOR SUBTASK
002DF6 9104 400F      0000F        3815+         TM    15(R4),X'04' IS SUBTSK ALREADY CANCELING
002DFA 4710 00D6            000D6  3816+         BO    ERR21 IF SO-MAIN TASK ILLEGAL SVC
002DFE 47F0 CE32            02E32  3817+         B     SVC39B GO PROCESS LIKE S-T ISSUED DETACH
002E02                             3818+SVC39A   EQU   *
002E02 9540 048F      0048F        3819+         CLI   PIK+1,X'40' IS THIS A MIAN TASK
002E06 4740 00D6            000D6  3820+         BL    ERR21 A MAIN TASK MUST PASS PARAMETER
002E0A 184A                        3821+SVC39M   LR    R4,RA POINT TO PIB OF DETACHING S-T
002E0C 4400 0906            00906  3822+         EX    R0,COMPCLC DOES SUBTASK OWN THE LTA     3-9
002E10 4770 CE1C            02E1C  3823+         BNE   SVC39M1 NO, BRANCH                   3-9
002E14 5850 D628            03628  3824+         L     R5,LTB-1 GET SAVEAREA FROM AR PIB     3-9
002E18 47F0 CE20            02E20  3825+         B     SVC39M2 3-9
002E1C                             3826+SVC39M1  EQU   * 3-9
002E1C 5854 0004            00004  3827+         L     R5,4(R4) GET S-T SAVE AREA ADDRESS    3-8
002E20                             3828+SVC39M2  EQU   * 3-9
002E20 9200 5078      00078        3829+         MVI   120(R5),X'00' CLEAR S-T ID IN ITS SAVEAREA 3-8
002E24 4850 048E            0048E  3830+         LH    R5,PIK GET TID OF DETACHING S-T
002E28 4A50 046C            0046C  3831+         AH    R5,PIB2PTR POINT TO PIB EXT OF S-T
002E2C D200 D21B 048F 0321B 0048F  3832+         MVC   TIDSAV+1(1),PIK+1 SAVE TID
002E32                             3833+SVC39B   EQU   *
002E32 9101 400F      0000F        3834+         TM    15(R4),X'01' IS THIS TASK IN AB ROUTINE        3-6
002E36 4710 D266            03266  3835+         BO    CNCEL IF SO-RESTORE CANCEL CODE FIRST   3-6
002E3A 5820 0490            00490  3836+         L     R2,TKIDPTR ADDR OF TASK REQ I/O TABLE
002E3E 4830 044E            0044E  3837+         LH    R3,LTHIDQ GET BYTE LENGTH OF TABLE
002E42 1A23                        3838+         AR    R2,R3 POINT TO BYTE BEYOND TABLE
002E44 D200 CE4D D21B 02E4D 0321B  3839+         MVC   SVC39H+1(1),TIDSAV+1 PUT TASK ID IN CLI INSTR
002E4A                             3840+SVC39G   EQU   *
002E4A 0620                        3841+         BCTR  R2,0 BACKUP TABLE POINTER ONE BYTE
002E4C 9500 2000      00000        3842+SVC39H   CLI   0(R2),X'00' DOES PENDING I/O BELONG TO TASK
002E50 4770 CE7E            02E7E  3843+         BNE   SVC39P IF NOT-GO SEE IF DONE WITH TABLE
002E54 9530 048F      0048F        3844+SVC39H1  CLI   PIK+1,X'30' DID M-T ISSUE THIS SVC39     3-3
       ASYNCHRONOUS PROCESSING MACRO ROUTINES                                                                  PAGE   90


  LOC  OBJECT CODE    ADDR1 ADDR2  STMT   SOURCE STATEMENT                                          FDOS CL3-10 03/29/70

002E58 4720 00E6            000E6  3845+         BH    ERR10 IF NOT-GO NORMAL EOJ THE SUBTASK
002E5C 50A0 D21C            0321C  3846+         ST    RA,APSAVE SAVE RA-PIB POINTER TO M-T
002E60 18A4                        3847+         LR    RA,R4 POINT RA TO SUBTASK PIB
002E62 9250 00FF      000FF        3848+         MVI   ERRSET0D,X'50' SET NORMAL EOJ CANCEL CODE
002E66 92FF BA31      01A31        3849+         MVI   WHLMSW,X'FF' 3-10
002E6A 4580 00F2            000F2  3850+         BAL   R8,ERRGO SETUP SUBTASK TO CANCEL
002E6E 9200 BA31      01A31        3851+         MVI   WHLMSW,X'00' 3-10
000000                             3852+         USING PIBADR,RA 3-10
002E72 947F A001      00001        3853+         NI    PIBCNCL,255-CNCL80 TURN OFF CANCEL IN LTA BIT  3-10
                                   3854+         DROP  RA 3-10
002E76 58A0 D21C            0321C  3855+         L     RA,APSAVE RESTORE M-T PIB POINTER
002E7A 47F0 01AC            001AC  3856+         B     EXT03 GO TO TASK SELECTION
002E7E                             3857+SVC39P   EQU   *
002E7E 4630 CE4A            02E4A  3858+         BCT   R3,SVC39G LOOP THRU I/O REQ TABLE
002E82 D500 C16F D21B 0216F 0321B  3859+         CLC   LTABSYD1(1),TIDSAV+1 HAS FETCH BEEN STARTED       3-3
002E88 4770 CEAA            02EAA  3860+         BNE   SVC39P1 NO BRANCH                    3-3
002E8C 9589 4000      00000        3861+         CLI   0(R4),FLG87*(1-1)+X'89'*1 FETCH COMPLETED   3-10
002E90 4780 CE54            02E54  3862+         BE    SVC39H1 NO BRANCH                   3-10
002E94 50A0 D21C            0321C  3863+         ST    RA,APSAVE SAVE PIB ADDRESS             3-9
002E98 18A4                        3864+         LR    RA,R4 PIB OF TASK TO BE DETACHED   3-9
002E9A 92FF BA31      01A31        3865+         MVI   WHLMSW,X'FF' 3-9
002E9E 4580 C17E            0217E  3866+         BAL   R8,SVC11A FREE THE LTA                 3-9
002EA2 9200 BA31      01A31        3867+         MVI   WHLMSW,X'00' 3-9
002EA6 58A0 D21C            0321C  3868+         L     RA,APSAVE RESTORE PIB ADDRESS          3-9
002EAA 9280 4000      00000        3869+SVC39P1  MVI   0(R4),X'80' INACTIVATE SUPTAST PIB       3-3
002EAE 5815 0008            00008  3870+         L     R1,8(R5) PICKUP ECB ADDRESS IF ANY
002EB2 D707 5006 5006 00006 00006  3871+         XC    6(8,R5),6(R5) ZERO PRIORITY,ECBADR,MT PID IN PIB EXT
002EB8 1211                        3872+         LTR   R1,R1 DID S-T HAVE AN ECB
002EBA 4780 CEC6            02EC6  3873+         BZ    SVC39C IF NOT-DONT BOTHER POSTING
002EBE 9680 1002      00002        3874+         OI    2(R1),X'80' POST S-T TERMINATION IN ECB
002EC2 4570 D032            03032  3875+         BAL   R7,UNWAIT READY ANY WAITING TASKS
002EC6                             3876+SVC39C   EQU   *
002EC6 4120 BA22            01A22  3877+         LA    R2,MVCFLD+2 START PTR AT X'40' IN MVCFLD
002ECA                             3878+SVC39D   EQU   *
002ECA 4122 0001            00001  3879+         LA    R2,1(R2) BUMP TO NEXT BYTE IN MVCFLD
002ECE D500 2000 D21B 00000 0321B  3880+         CLC   0(1,R2),TIDSAV+1 IS THS THE TASK TO BE REMOVED
002ED4 4770 CECA            02ECA  3881+         BNE   SVC39D IF NOT CONTINUE SEARCH
002ED8 9550 2001      00001        3882+         CLI   1(R2),X'50' 3-3
002EDC 4720 CF08            02F08  3883+         BH    SVC39E 3-3
002EE0 0620                        3884+         BCTR  R2,0 3-3
002EE2 9550 2000      00000        3885+         CLI   0(R2),X'50' 3-3
002EE6 4720 CF04            02F04  3886+         BH    SVC39E1 3-3
002EEA 1B77                        3887+         SR    R7,R7 3-3
002EEC 4870 041E            0041E  3888+         LH    R7,PID 3-3
002EF0 4177 D5E0            035E0  3889+         LA    R7,PIBTAB(R7) 3-3
002EF4 94FD 700F      0000F        3890+         NI    15(R7),X'FD' 3-3
002EF8 9580 7000      00000        3891+         CLI   0(R7),X'80' IS M-T DETACHED                 3-3
002EFC 4770 CF04            02F04  3892+         BNE   *+8 NO...                           3-3
002F00 9283 7000      00000        3893+         MVI   0(R7),X'83' YES ATTACH IT AGAIN            3-3
002F04 4A20 CF1E            02F1E  3894+SVC39E1  AH    R2,H01 3-3
002F08                             3895+SVC39E   EQU   *
       ASYNCHRONOUS PROCESSING MACRO ROUTINES                                                                  PAGE   91


  LOC  OBJECT CODE    ADDR1 ADDR2  STMT   SOURCE STATEMENT                                          FDOS CL3-10 03/29/70

002F08 D200 2000 2001 00000 00001  3896+         MVC   0(1,R2),1(R2) BACK REST OF MVCFLD UP ONE BYTE
002F0E 9500 2000      00000        3897+         CLI   0(R2),X'00' DONE MOVING
002F12 4780 CF20            02F20  3898+         BE    SVC39F YES-BRANCH
002F16 4122 0001            00001  3899+         LA    R2,1(R2) BUMP TO NEXT MVCFLD BYTE
002F1A 47F0 CF08            02F08  3900+         B     SVC39E GO BACK UP FIELD MORE
002F1E 0001                        3901+H01      DC    X'0001' 3-3
002F20                             3902+SVC39F   EQU   *
002F20 4570 CFA6            02FA6  3903+         BAL   R7,TKPRTY GO ADJUST TASKS PRIORITYS

                                   3905+* MAKE PIB ENTRY AVAILABLE BY INSERTING ID IN TIDTRT FIELD         *
002F24 4830 D21A            0321A  3906+         LH    R3,TIDSAV PICKUP TID
002F28 8830 0004            00004  3907+         SRL   R3,4 SHIFT ID TO RIGHT 4 BITS
002F2C 4233 D228            03228  3908+         STC   R3,TIDTRT(R3) MAKE PIB AVAILABLE AGAIN

                                   3910+* THIS WILL CLEAR PC TABLE ENTRY FOR SUBTASK                       *
002F30 4820 0454            00454  3911+         LH    R2,PCPTR POINT TO PC TABLE
002F34 4830 D21A            0321A  3912+         LH    R3,TIDSAV PICKUP TID
002F38 8830 0001            00001  3913+         SRL   R3,1 DIVIDE BY 2-8 BYTES PER ENTRY
002F3C 1A23                        3914+         AR    R2,R3 POINT TO CORRECT ENTRY
002F3E D707 2000 2000 00000 00000  3915+         XC    0(8,R2),0(R2) ZERO ENTRY IN PC TABLE

                                   3917+* THIS WILL CLEAR AB TABLE ENTRY FOR SUBTASK                       *
002F44 5820 0488            00488  3918+         L     R2,ABPTR POINT TO AB TABLE
002F48 1A23                        3919+         AR    R2,R3 POINT TO CORRECT ENTRY
002F4A D707 2000 2000 00000 00000  3920+         XC    0(8,R2),0(R2) ZERO ENTRY IN AB TABLE

                                   3922+* THIS ROUTINE FREES ANY HELD TRACKS BY THIS SUBTASK               *
002F50 9680 CC47      02C47        3923+         OI    ALC,X'80' TELL SVC36 TO RETURN TO ME
002F54 5820 0480            00480  3924+         L     R2,THTABAD POINT TO TRACK HOLD TABLE
002F58 4130 000C            0000C  3925+         LA    R3,12 GET A CONSTANT TWELVE
002F5C 1B23                        3926+         SR    R2,R3 BACKUP TRK HLD PNTR 12 BYTES
002F5E 4130 0008            00008  3927+         LA    R3,THETNUM LOAD # ENTRIES IN TABLE FOR BCT
002F62                             3928+SVC39J   EQU   *
002F62 4122 000C            0000C  3929+         LA    R2,12(R2) BUMP TO NEXT TABLE ENTRY
002F66 D500 200A D21B 0000A 0321B  3930+         CLC   10(1,R2),TIDSAV+1 IS TRACK HELD BY THIS TASK
002F6C 4770 CF8E            02F8E  3931+         BNE   SVC39K IF NOT-SEE IF TABLE LONGER
002F70 94F0 200B      0000B        3932+         NI    11(R2),X'F0' CLEAR TABLE COUNTER
002F74 5812 0000            00000  3933+         L     R1,0(R2) POINT R1 TO CCB
002F78 D205 CC54 2004 02C54 00004  3934+         MVC   ALC4(6),4(R2) SET UP SEEK BUFFER       3-5
002F7E 9224 0023      00023        3935+         MVI   SVOLDP+3,X'24' INITIALIZE FOR TRACK FREE
002F82 9023 D21C            0321C  3936+         STM   R2,R3,APSAVE SAVE REGS R2 AND R3
002F86 4590 CA3C            02A3C  3937+         BAL   R9,SVC36 GO FREE THE TRACK
002F8A 9823 D21C            0321C  3938+         LM    R2,R3,APSAVE RESTORE REGS R2 AND R3
002F8E                             3939+SVC39K   EQU   *
002F8E 4630 CF62            02F62  3940+         BCT   R3,SVC39J LOOP THRU WHOLE TABLE
002F92 947F CC47      02C47        3941+         NI    ALC,X'7F' TURN OFF SVC36 RETURN SWITCH
002F96                             3942+SVC39L   EQU   *
002F96 9680 D226      03226        3943+         OI    SPVECB+2,X'80' POST PIB AVAILABLE ECB
002F9A 4110 D224            03224  3944+         LA    R1,SPVECB POINT TO ECB MEANING PIB AVAILABL
002F9E 4570 D032            03032  3945+         BAL   R7,UNWAIT TAKE WAITER FROM WAIT STATE
002FA2 47F0 01AC            001AC  3946+         B     EXT03 GO TO TASK SELECTION
       ASYNCHRONOUS PROCESSING MACRO ROUTINES                                                                  PAGE   92


  LOC  OBJECT CODE    ADDR1 ADDR2  STMT   SOURCE STATEMENT                                          FDOS CL3-10 03/29/70

                                   3948+********************************************************************
                                   3949+* THIS SUBROUTINE INSERTS THE ABSOLUTE PRIORITY OF ALL ACTIVE TASKS*
                                   3950+* IN THE EXTENSION TO THEIR PIB TABLE ENTRIES.
                                   3951+********************************************************************
002FA6                             3952+TKPRTY   EQU   *
002FA6 4160 0003            00003  3953+         LA    R6,3 INITIALIZE COUNTER TO 3
002FAA 4120 BA22            01A22  3954+         LA    R2,MVCFLD+2 START PTR AT X'40'
002FAE 1B33                        3955+         SR    R3,R3 CLEAR INDEX REGISTER
002FB0                             3956+TKPRT1   EQU   *
002FB0 4122 0001            00001  3957+         LA    R2,1(R2) BUMP TO NEXT MVCFLD BYTE
002FB4 9500 2000      00000        3958+         CLI   0(R2),X'00' FINISHED WITH TABLE
002FB8 0787                        3959+         BCR   E,R7 IF SO-EXIT
002FBA 4166 0001            00001  3960+         LA    R6,1(R6) ADD 1 TO PRIORITY COUNTER
002FBE 4332 0000            00000  3961+         IC    R3,0(R2) GET DISPLACEMENT INTO PIB EXT
002FC2 4880 046C            0046C  3962+         LH    R8,PIB2PTR POINT TO PIB EXTENSION TABLE
002FC6 1A83                        3963+         AR    R8,R3 INDEX TO CORRECT ENTRY
002FC8 4068 0006            00006  3964+         STH   R6,6(R8) PRIORITY NUMBER TO ENTRY
002FCC 47F0 CFB0            02FB0  3965+         B     TKPRT1
       ASYNCHRONOUS PROCESSING MACRO ROUTINES                                                                  PAGE   93


  LOC  OBJECT CODE    ADDR1 ADDR2  STMT   SOURCE STATEMENT                                          FDOS CL3-10 03/29/70

                                   3967+********************************************************************
                                   3968+* POST MACRO ROUTINE                                               *
                                   3969+********************************************************************

                                   3971+* VALIDATE THE ADDRESS OF THE ECB ADDRESS PASSED                   *
002FD0                             3972+SVC40    EQU   *
002FD0 4121 0003            00003  3973+         LA    R2,3(R1) LOAD HI LIMIT REGISTER
002FD4 4570 B6A0            016A0  3974+         BAL   R7,VLDADR1 VALIDATE THE ADDRESS
002FD8 9680 1002      00002        3975+         OI    2(R1),X'80' POST ECB
002FDC 1200                        3976+         LTR   R0,R0 WAS SAVE= PARAMETER PASSED
002FDE 4770 CFEA            02FEA  3977+         BNE   SVC40A IF NOT ZERO-GO FIND WAITER
002FE2 4570 D032            03032  3978+         BAL   R7,UNWAIT REMOVE WAITERS FROM WAIT STATE
002FE6 47F0 01AC            001AC  3979+         B     EXT03 GO TO TASK SELECTION
002FEA                             3980+SVC40A   EQU   *
002FEA 1831                        3981+         LR    R3,R1 SAVE ECB ADDRESS
002FEC 1810                        3982+         LR    R1,R0 LOAD LO LIMIT REG
002FEE 4111 0000            00000  3983+         LA    R1,0(R1) CLEAR HI BYTE IN REGISTER
002FF2 4140 000F            0000F  3984+         LA    R4,15 LOAD BCT REGISTER
002FF6 4850 044A            0044A  3985+         LH    R5,PIBPT POINT TO PIB TABLE
002FFA                             3986+SVC40B   EQU   *
002FFA 4155 0010            00010  3987+         LA    R5,16(R5) BUMP TO NEXT PIB ENTRY
002FFE 9580 5000      00000        3988+         CLI   0(R5),X'80' IS THE PIB ACTIVE?           3-9
003002 4780 D022            03022  3989+         BE    SVC40E NO, BRANCH AROUND COMPARE    3-9
003006 5865 0004            00004  3990+         L     R6,4(R5) GET SAVEAREA ADDRESS
00300A D502 5005 0469 00005 00469  3991+         CLC   5(3,R5),LTAREA ARE WE IN TRANSIENT          3-6
003010 4770 D018            03018  3992+         BNE   SVC40D IF SO-DONT GET IT FROM AR PIB
003014 5860 D628            03628  3993+         L     R6,PIBAR+8 GET SAVE AREA FROM AR PIB
003018 4166 0000            00000  3994+SVC40D   LA    R6,0(R6) ZERO HI BYTE OF REGISTER
00301C 1916                        3995+         CR    R1,R6 IS THIS THE TASK
00301E 4780 D02A            0302A  3996+         BE    SVC40C GO REMOVE FROM WAIT STATE
003022                             3997+SVC40E   EQU   * 3-9
003022 4640 CFFA            02FFA  3998+         BCT   R4,SVC40B LOOP THRU PIB TABLE
003026 47F0 01AC            001AC  3999+         B     EXT03 GO TO TASK SELECTION
00302A                             4000+SVC40C   EQU   *
00302A 9601 5000      00000        4001+         OI    0(R5),X'01' REMOVE FROM WAIT STATE
00302E 47F0 01AC            001AC  4002+         B     EXT03 GO TO TASK SELECTION
       ASYNCHRONOUS PROCESSING MACRO ROUTINES                                                                  PAGE   94


  LOC  OBJECT CODE    ADDR1 ADDR2  STMT   SOURCE STATEMENT                                          FDOS CL3-10 03/29/70

                                   4004+********************************************************************
                                   4005+********************************************************************
                                   4006+* THIS SUBROUTINE REMOVES ANY TASK THAT IS WAITING FOR THE ECB     *
                                   4007+* WHOSE ADDRESS IS IN R1 TO BE POSTED FROM THE WAIT STATE          *
                                   4008+********************************************************************
                                   4009+********************************************************************
003032                             4010+UNWAIT   EQU   * REMOVE WAITING TASKS SUBROUTINE
003032 4160 BA22            01A22  4011+         LA    R6,MVCFLD+2 POINT TO 40 IN MVCFLD
003036 4840 044A            0044A  4012+         LH    R4,PIBPT POINT TO PIB TABLE
00303A                             4013+UNW001   EQU   *
00303A 4166 0001            00001  4014+         LA    R6,1(R6) BUMP TO NEXT MVCFLD BYTE
00303E 9500 6000      00000        4015+         CLI   0(R6),X'00' END OF MVCFLD
003042 0787                        4016+         BCR   E,R7 IF SO-EXIT
003044 1B55                        4017+         SR    R5,R5 CLEAR INDEX REGISTER
003046 4356 0000            00000  4018+         IC    R5,0(R6) GET PIB DISPLACEMENT
00304A 1A54                        4019+         AR    R5,R4 POINT TO PIB ENTRY
00304C 9580 5000      00000        4020+         CLI   0(R5),X'80' IS THIS TASK ACTIVE
003050 4780 D03A            0303A  4021+         BE    UNW001 IF NOT-GO TO NEXT PIB
003054 9101 5000      00000        4022+         TM    0(R5),X'01' IS PIB IN WAIT STATE
003058 4710 D03A            0303A  4023+         BO    UNW001 IF NOT-BUMP TO NEXT PIB
00305C 5885 0004            00004  4024+         L     R8,4(R5) GET ADDRESS OF SAVE AREA
003060 D502 5005 0469 00005 00469  4025+         CLC   5(3,R5),LTAREA OS USERS SAVADDR ON HIS PIB
003066 4770 D06E            0306E  4026+         BNE   UNW006 IF SO-DONT GET IT FROM AR PIB
00306A 5880 D628            03628  4027+         L     R8,PIBAR+8 GET USER SAVADDR FROM AR PIB
00306E 5010 D21C            0321C  4028+UNW006   ST    R1,APSAVE STORE ECB ADDRESS           3-10
003072 9507 800B      0000B        4029+         CLI   11(R8),7 IS THIS AN SVC 7 WAIT       3-10
003076 4770 D08C            0308C  4030+         BNE   UNW002 IF NOT-GO CHECK FOR SVC 29 WAITM
00307A D502 D21D 8031 0321D 00031  4031+UNW005   CLC   APSAVE+1(3),49(R8) COMPARE ECB ADDRESS         3-10
003080 4770 D03A            0303A  4032+         BNE   UNW001 IF NOT-GO TO NEXT PIB
003084 9601 5000      00000        4033+         OI    0(R5),X'01' REMOVE TASK FROM WAIT STATE
003088 47F0 D03A            0303A  4034+         B     UNW001 BUMP TO NEXT ENTRY
00308C                             4035+UNW002   EQU   *
00308C 952A 800B      0000B        4036+         CLI   11(R8),42 IS THIS SVC 42-ENQ WAIT FOR RES
003090 4780 D07A            0307A  4037+         BE    UNW005 GO CHECK FOR CORRECT ECB
003094 951D 800B      0000B        4038+         CLI   11(R8),29 IS THIS SVC 29 WAITM
003098 4770 D03A            0303A  4039+         BNE   UNW001 IF NOT-BUMP TO NEXT ENTRY
00309C 5885 0004            00004  4040+         L     R8,4(R5) GET ADDRESS OF SAVE AREA
0030A0 5888 0030            00030  4041+         L     R8,48(R8) GET ADDR OF LIST OF ECB ADDRS
0030A4                             4042+UNW003   EQU   *
0030A4 9500 8000      00000        4043+         CLI   0(R8),X'00' IS THIS END OF LIST
0030A8 4770 D03A            0303A  4044+         BNE   UNW001 IF SO-BUMP TO NEXT PIB
0030AC D502 D21D 8001 0321D 00001  4045+         CLC   APSAVE+1(3),1(R8) IS ECB ADDR IN LIST ENTRY   3-10
0030B2 4770 D0BE            030BE  4046+         BNE   UNW004 GO BUMP TO NEXT LIST ENTRY
0030B6 9601 5000      00000        4047+         OI    0(R5),X'01' REMOVE TASK FROM WAIT STATE
0030BA 47F0 D03A            0303A  4048+         B     UNW001 GO BUMP TO NEXT PIB ENTRY
0030BE                             4049+UNW004   EQU   *
0030BE 4188 0004            00004  4050+         LA    R8,4(R8) BUMP TO NEXT LIST ENTRY
0030C2 47F0 D0A4            030A4  4051+         B     UNW003 GO TEST NEXT ENTRY
       ASYNCHRONOUS PROCESSING MACRO ROUTINES                                                                  PAGE   95


  LOC  OBJECT CODE    ADDR1 ADDR2  STMT   SOURCE STATEMENT                                          FDOS CL3-10 03/29/70

                                   4053+********************************************************************
                                   4054+* ENQ MACRO ROUTINE                                                *
                                   4055+********************************************************************

                                   4057+* VALIDATE THE ADDRESS OF THE RCB                                  *
0030C6                             4058+SVC42    EQU   *
0030C6 1810                        4059+         LR    R1,R0 LOAD LO LIMIT REG
0030C8 4121 0007            00007  4060+         LA    R2,7(R1) LOAD HI LIMIT REG
0030CC 4570 B6A0            016A0  4061+         BAL   R7,VLDADR1 VALIDATE THE ADDRESS OF RCB
0030D0 1B44                        4062+         SR    R4,R4 CLEAR ECB ADDRESS REGISTER
0030D2 4830 046C            0046C  4063+         LH    R3,PIB2PTR POINT TO 2ND HALF PIB TABLE
0030D6 4A30 048E            0048E  4064+         AH    R3,PIK POINT TO CORRECT ENTRY
0030DA 9540 048F      0048F        4065+         CLI   PIK+1,X'40' IS THIS A MAIN TASK
0030DE 4740 D0EC            030EC  4066+         BL    SVC42A IF SO-NO ECB REQUIRED

                                   4068+* A SUBTASK MUST HAVE AN ECB TO ENQ                                *
0030E2 5843 0008            00008  4069+         L     R4,8(R3) PICKUP ECB ADDRESS
0030E6 1244                        4070+         LTR   R4,R4 DOES IT HAVE AN ECB ADDRESS
0030E8 4780 00D6            000D6  4071+         BZ    ERR21 IF NOT-ILLEGAL SVC

                                   4073+* TEST TO SEE IF RESOURCE IS AVAILABLE                             *
0030EC                             4074+SVC42A   EQU   *
0030EC 9300 1000      00000        4075+         TS    0(R1) IS THE RESOURCE AVAILABLE
0030F0 4770 D0FC            030FC  4076+         BNZ   SVC42B IF NOT-GO DETERMINE OWNER
0030F4 5041 0004            00004  4077+         ST    R4,4(R1) PUT ECB ADR IN RCB AS OWNER ID
0030F8 47F0 025A            0025A  4078+         B     EXT01 GO TO INTERRUPTED TASK

                                   4080+* THE RESOURCE WAS UNAVAILABLE                                     *
0030FC                             4081+SVC42B   EQU   *
0030FC 5821 0004            00004  4082+         L     R2,4(R1) GET OWNER ECBADR FROM ECB
003100 4122 0000            00000  4083+         LA    R2,0(R2) WIPE OUT HI BYTE
003104 1222                        4084+         LTR   R2,R2 TEST FOR MAINTASK OWNERSHIP           3-10
003106 4780 D112            03112  4085+         BZ    SVC42C BRANCH IF YES                        3-10
00310A 9180 2002      00002        4086+         TM    2(R2),X'80' HAS OWNER TERMINATED
00310E 4710 00D6            000D6  4087+         BO    ERR21 IF SO ILLEGAL SVC
003112 1924                        4088+SVC42C   CR    R2,R4 IS OWNER ENQUING                      3-10
003114 4780 00D6            000D6  4089+         BE    ERR21 IF SO-ILLEGAL NESTED ENQ
003118 9680 1004      00004        4090+         OI    4(R1),X'80' SET RESOURCE-WANTED BIT IN RCB
00311C 5A30 0484            00484  4091+         A     R3,PIBDIFF POINT TO ENTRY IN PIB TABLE
003120 94FE 3000      00000        4092+         NI    0(R3),X'FE' PUT ENQING TASK IN WAIT STATE
003124 5843 0004            00004  4093+         L     R4,4(R3) GET TASKS SAVE ADDRESS
003128 5024 0030            00030  4094+         ST    R2,48(R4) OWNER ECBADR TO ENQ TSKS R1
00312C 47F0 C1C8            021C8  4095+         B     RESVC SETUP TO REDRIVE THE ENQ SVC
       ASYNCHRONOUS PROCESSING MACRO ROUTINES                                                                  PAGE   96


  LOC  OBJECT CODE    ADDR1 ADDR2  STMT   SOURCE STATEMENT                                          FDOS CL3-10 03/29/70

                                   4097+********************************************************************
                                   4098+* DEQ MACRO ROUTINE                                                *
                                   4099+********************************************************************

                                   4101+* VALIDATE THE ADDRESS OF THE PASSED RCB                           *
003130                             4102+SVC41    EQU   *
003130 1810                        4103+         LR    R1,R0 LOAD LO LIMIT REG
003132 4121 0007            00007  4104+         LA    R2,7(R1) LOAD HI LIMIT REG
003136 4570 B6A0            016A0  4105+         BAL   R7,VLDADR1 VALIDATE RCB ADDRESS
00313A 4830 046C            0046C  4106+         LH    R3,PIB2PTR POINT TO 2ND HALF PIB TBL
00313E 4A30 048E            0048E  4107+         AH    R3,PIK POINT TO PIB EXT ENTRY
003142 4820 044A            0044A  4108+         LH    R2,PIBPT POINT TO 1ST HALF PIB TBL
003146 4A20 048E            0048E  4109+         AH    R2,PIK POINT TO PIB ENTRY
00314A 5843 0008            00008  4110+         L     R4,8(R3) ECB ADDR FROM PIB EXTENSION
00314E 4144 0000            00000  4111+         LA    R4,0(R4) CLEAR HI BYTE OF REGISTER
003152 5851 0004            00004  4112+         L     R5,4(R1) ECB ADDR FROM RCB
003156 4155 0000            00000  4113+         LA    R5,0(R5) CLEAR HI BYTE
00315A 9540 048F      0048F        4114+         CLI   PIK+1,X'40' IS THIS A MAINTASK
00315E 4740 D168            03168  4115+         BL    SVC41A1 IF SO- NO ECB REQUIRED
003162 1244                        4116+         LTR   R4,R4 DOES SUBTASK HAVE ECB
003164 4780 D16E            0316E  4117+         BZ    SVC41A2 IF NOT- CAN NOT DEQ THE RCB
003168                             4118+SVC41A1  EQU   *
003168 1945                        4119+         CR    R4,R5 IS OWNER DEQING
00316A 4780 D17A            0317A  4120+         BE    SVC41A IF SO-OK-BRANCH
00316E                             4121+SVC41A2  EQU   *
00316E 9101 200F      0000F        4122+         TM    15(R2),X'01' IS DEQ IN AB ROUTINE
003172 4710 025A            0025A  4123+         BO    EXT01 IF SO-JUST EXIT FROM HERE
003176 47F0 00D6            000D6  4124+         B     ERR21 OWNER IS NOT EEQING IN MAINLINE
00317A                             4125+SVC41A   EQU   *
00317A 9200 1000      00000        4126+         MVI   0(R1),X'00' RESET TS BYTE IN RCB
00317E 9180 1004      00004        4127+         TM    4(R1),X'80' ANYONE WIATING FOR RESOURCE
003182 4780 025A            0025A  4128+         BZ    EXT01 RETURN TO INPTD TASK
003186 1B22                        4129+         SR    R2,R2 CLEAR INDEX REG
003188 4130 BA22            01A22  4130+         LA    R3,MVCFLD+2 POINT TO 40 2N MVCFLD
00318C                             4131+SVC41B   EQU   *
00318C 4133 0001            00001  4132+         LA    R3,1(R3) POINT TO NEXT MVCFLD BYTE
003190 9500 3000      00000        4133+         CLI   0(R3),X'00' END OF MVCFLD
003194 4780 D1F4            031F4  4134+         BE    SVC41C GO CHECK WERE THERE WANTERS
003198 4323 0000            00000  4135+         IC    R2,0(R3) PICK UP INDEX
00319C 4840 044A            0044A  4136+         LH    R4,PIBPT POINT TO PIBTBL
0031A0 1A42                        4137+         AR    R4,R2 BUMP TO CORRECT ENTRY
0031A2 1854                        4138+         LR    R5,R4 POINT TO PIBTAB AGAIN
0031A4 5B50 0484            00484  4139+         S     R5,PIBDIFF POINT TO 2ND HALF PIBTBL
0031A8 D501 041E 500C 0041E 0000C  4140+         CLC   PID(2),12(R5) PIB BELONG TO THIS PARTITION
0031AE 4770 D18C            0318C  4141+         BNE   SVC41B IF-NOT BUMP TO NEXT ENTRY
0031B2 9530 3000      00000        4142+         CLI   0(R3),X'30' MAINTASK                    3-11
0031B6 4720 D1D4            031D4  4143+         BH    SVC41B2 NO                          3-11
0031BA D500 3000 045B 00000 0045B  4144+         CLC   0(1,R3),PWTIMS+1 TIMER FOR THIS TASK         3-11
0031C0 4770 D1CC            031CC  4145+         BNE   SVC41B1 NO                          3-11
0031C4 4850 0456            00456  4146+         LH    R5,ITPTR POINT TO IT TAB             3-11
0031C8 4570 D204            03204  4147+         BAL   R7,SVC41D TEST IF AKT                 3-11
       ASYNCHRONOUS PROCESSING MACRO ROUTINES                                                                  PAGE   97


  LOC  OBJECT CODE    ADDR1 ADDR2  STMT   SOURCE STATEMENT                                          FDOS CL3-10 03/29/70

0031CC                             4148+SVC41B1  EQU   * 3-11
0031CC 4850 0458            00458  4149+         LH    R5,PCPTR+4 POINT TO OC TAB             3-11
0031D0 4570 D204            03204  4150+         BAL   R7,SVC41D TEST IF AKT                 3-11
0031D4                             4151+SVC41B2  EQU   * 3-11
0031D4 4850 0454            00454  4152+         LH    R5,PCPTR POINT TO PC TAB             3-11
0031D8 4570 D204            03204  4153+         BAL   R7,SVC41D TEST IF AKT                 3-12
0031DC 5864 0004            00004  4154+         L     R6,4(R4) POINT TO PIBS SAVE AREA
0031E0                             4155+SVC41B3  EQU   * 3-11
0031E0 5916 002C            0002C  4156+         C     R1,44(R6) TSKS R0 POINT TO RCB
0031E4 4770 D18C            0318C  4157+         BNE   SVC41B IF NOT-BUMP TO NEXT PB
0031E8 9601 4000      00000        4158+         OI    0(R4),X'01' REMOVE TASK FROM WAIT STATE
0031EC 9640 1004      00004        4159+         OI    4(R1),X'40' INDICATE FOUND WANTER
0031F0 47F0 D18C            0318C  4160+         B     SVC41B CONTINUE BUMP TO NEXT PIB
0031F4                             4161+SVC41C   EQU   *
0031F4 9140 1004      00004        4162+         TM    4(R1),X'40' WAS WANTER FOUND
0031F8 9200 1004      00004        4163+         MVI   4(R1),X'00' CLE AR WANT BYTE
0031FC 4710 01AC            001AC  4164+         BO    EXT03 TASK SELECT IF WANTER FOUND
003200 47F0 00D0            000D0  4165+         B     ERR1E UNKNOWN ENQ REQUESTOR
003204                             4166+SVC41D   EQU   * 3-11
003204 8820 0001            00001  4167+         SRL   R2,1 3-11
003208 1A52                        4168+         AR    R5,R2 POINT TO CORRECT TAB        3-11
00320A 9856 5000            00000  4169+         LM    R5,R6,0(R5) EXIT + SAVAREA              3-11
00320E 1255                        4170+         LTR   R5,R5 AKTIV                       3-11
003210 47D0 D1E0            031E0  4171+         BNP   SVC41B3 YES                         3-11
003214 4323 0000            00000  4172+         IC    R2,0(R3) RESTORE PIK                 3-11
003218 07F7                        4173+         BR    R7 RETURN                      3-11
00321A 0000                        4174+TIDSAV   DC    H'0' SAVEAREA FOR TASKS PIB DISPL
00321C 0000000000000000            4175+APSAVE   DC    2F'0' REGISTER SAVEAREA
003224 00000000                    4176+SPVECB   DC    F'0' PIB AVAILABLE ECB
003228 0000000000000007            4177+TIDTRT   DC    X'0000000000000007' THIS FIELD INDICATES WHICH PIB
003230 08090A0B0C0D0E0F            4178+         DC    X'08090A0B0C0D0E0F' ENTRIES ARE AVAILABLE FOR SUBS
       STXIT AB ROUTINE                                                                                        PAGE   98


  LOC  OBJECT CODE    ADDR1 ADDR2  STMT   SOURCE STATEMENT                                          FDOS CL3-10 03/29/70

                                   4180+********************************************************************
                                   4181+* ABNORMAL TERMINATION STXIT ROUTINE                               *
                                   4182+********************************************************************
003238 1831                        4183+SVC37    LR    R3,R1 SAVE SAVEAREA ADDRESS        3-8
00323A 1200                        4184+         LTR   R0,R0 TEST FOR ANY PARAMETERS
00323C 4780 D250            03250  4185+         BZ    SVC37A IF NONE-SKIP VALIDATION

                                   4187+* VALIDATE PARAMETER ADDRESSES                                     *
003240 4121 0047            00047  4188+         LA    R2,71(R1) LOAD HI LIMIT REGISTER
003244 4570 B6A0            016A0  4189+         BAL   R7,VLDADR1 VALIDATE SAVEAREA ADDRESS
003248 1810                        4190+         LR    R1,R0 LOAD LO LIMIT REGISTER
00324A 1820                        4191+         LR    R2,R0 LOAD HI LIMIT REGISTER
00324C 4570 B6A0            016A0  4192+         BAL   R7,VLDADR1 VALIDATE ENTRY POINT ADDRESS

                                   4194+* STORE PARAMETERS IN AB TABLE                                     *
003250                             4195+SVC37A   EQU   *
003250 4840 048E            0048E  4196+         LH    R4,PIK GET PIB DISPLACEMENT OF TASK
003254 8840 0001            00001  4197+         SRL   R4,1 DIVIDE BY 2 - 8 BYTES/ENTRY
003258 5A40 0488            00488  4198+         A     R4,ABPTR POINT TO AB TABLE ENTRY
00325C 5004 0000            00000  4199+         ST    R0,0(R4) STORE ENTRY POINT IN TABLE
003260 5034 0004            00004  4200+         ST    R3,4(R4) STORE SAVEAREA ADDR IN TABLE
003264 07F9                        4201+         BR    R9 RETURN TO STXITING PROGRAM
       DOS SUPERVISOR - TASK TERMINATION HANDLING                                                              PAGE   99


  LOC  OBJECT CODE    ADDR1 ADDR2  STMT   SOURCE STATEMENT                                          FDOS CL3-10 03/29/70

003266                             4203+CNCEL    EQU   *
003266 9680 A000      00000        4204+         OI    0(RA),X'80' RE-SET REGS SAVED BIT IN FLGS
00326A 9101 A00F      0000F        4205+         TM    15(RA),X'01' WAS THIS TASK IN ITS AB ROUTINE
00326E 4710 D3C0            033C0  4206+         BO    CNCEL1 IF SO-DISALLOW ANY MORE AB EXITS
                                   4207+* IF THIS IS A MAIN TASK, SETUP ANY SUBTASKS TO CANCEL
003272 9530 048F      0048F        4208+         CLI   PIK+1,X'30' IS THIS A MAINTASK
003276 4720 D2DA            032DA  4209+         BH    CNCEL2 IF NOT-PROCEED IN MAINLINE
00327A                             4210+CNCELL   EQU   * ENTER HERE FROM DUMP              3-6
00327A 9102 A00F      0000F        4211+         TM    15(RA),X'02' DID MT QUIT WITH SUBS ATTACHED
00327E 4710 D286            03286  4212+         BO    CNCEL0 3-3
003282 47F0 D29E            0329E  4213+         B     ML001 3-3
003286                             4214+CNCEL0   EQU   *
003286 435A 0001            00001  4215+         IC    R5,1(RA) SAVE MAINTASKS CANCEL CODE
00328A 4160 005D            0005D  4216+         LA    R6,X'5D' CANCEL CODE X'1D' TO SUBRTN
00328E 4580 D408            03408  4217+         BAL   R8,RDYCNL CCODES TO ALL PARTITIONS TASKS
003292 425A 0001            00001  4218+         STC   R5,1(RA) RESTORE MAINTASKS CANCEL CODE
003296 9102 A00F      0000F        4219+         TM    15(RA),X'02' WERE ANY SUBS ATTACHED
00329A 4710 D2B2            032B2  4220+         BO    INTERRCC IF SO-INTERROGATE CANCEL CODE
00329E                             4221+ML001    EQU   * 3-3
00329E 9500 A001      00001        4222+         CLI   1(RA),X'00' IS THIS A DUMP MACRO IN MAINTASK CC=X'00'
0032A2 4780 C104            02104  4223+         BE    SVC02J YES-RETURN TO GIVE NORMAL DUMP
0032A6 9550 A001      00001        4224+         CLI   1(RA),X'50' IS IT NORMAL EOJ                   3-5
0032AA 4780 02DE            002DE  4225+         BE    CNCL IF SO CALL TERM                         3-5
0032AE 47F0 D2F8            032F8  4226+         B     CNCEL2A 3-3
0032B2                             4227+INTERRCC EQU   *
0032B2 9280 A000      00000        4228+         MVI   0(RA),X'80' DETACH M-T TEMP                 3-3
0032B6 9500 A001      00001        4229+         CLI   1(RA),X'00' IS THIS A DUMP MACRO IN MAINTASK CC=X'00'
0032BA 4780 D2CA            032CA  4230+         BE    RDYDUMP YES-READY CANCEL CODE TO DUMP
0032BE 9563 A001      00001        4231+         CLI   1(RA),X'63' IS THIS A CANCEL MACRO CC=X'23'
0032C2 4780 D2D2            032D2  4232+         BE    RDYCANDP YES-READY CANCEL CODE FOR CANCEL DUMP
0032C6 47F0 01AC            001AC  4233+         B     EXT03 GO CANCEL SUBTASKS
0032CA                             4234+RDYDUMP  EQU   *
0032CA 9258 A001      00001        4235+         MVI   1(RA),X'58' SET MAINTASK CANCEL CODE TO HEX18
0032CE 47F0 01AC            001AC  4236+         B     EXT03 GO CANCEL SUBTASKS
0032D2                             4237+RDYCANDP EQU   *
0032D2 9257 A001      00001        4238+         MVI   1(RA),X'57' SET MAINTASK CANCEL CODE TO HEX17
0032D6 47F0 01AC            001AC  4239+         B     EXT03 GO CANCEL SUBTASKS
                                   4240+* CONTINUATION OF MAIN LINE
0032DA                             4241+CNCEL2   EQU   * 3-4
0032DA 9550 A001      00001        4242+         CLI   1(RA),X'50' IS THIS NORMAL EOJ  CC=X'10'
0032DE 4780 02DE            002DE  4243+         BE    CNCL IF SO-GO CALL TERMINATOR
0032E2 4820 048E            0048E  4244+         LH    R2,PIK GET TASKS ID
0032E6 4A20 046C            0046C  4245+         AH    R2,PIB2PTR POINT TO PIB EXTENSION
0032EA 5822 0008            00008  4246+         L     R2,8(R2) GET ADDRESS OF ECB(IF ANY)
0032EE 1222                        4247+         LTR   R2,R2 IS THERE AN ECB
0032F0 4780 D2F8            032F8  4248+         BZ    CNCEL2A IF NONE-SKIP POST AB BIT
0032F4 9640 2002      00002        4249+         OI    2(R2),X'40' SET ABNORMAL BIT IN ECB
0032F8                             4250+CNCEL2A  EQU   *
0032F8 9530 048F      0048F        4251+         CLI   PIK+1,X'30' IS THIS A M-T                3-3
0032FC 4720 D308            03308  4252+         BH    CNCEL2AA NO  BRANCH                  3-3
003300 9102 A00F      0000F        4253+         TM    15(RA),X'02' HAVE S-T BEEN DETACHED       3-3
       DOS SUPERVISOR - TASK TERMINATION HANDLING                                                              PAGE  100


  LOC  OBJECT CODE    ADDR1 ADDR2  STMT   SOURCE STATEMENT                                          FDOS CL3-10 03/29/70

003304 4710 01AC            001AC  4254+         BO    EXT03 3-3
003308                             4255+CNCEL2AA EQU   *
003308 4400 0906            00906  4256+         EX    0,COMPCLC DOES THIS TASK OWN LTA
00330C 4770 D318            03318  4257+         BNE   CNCEL3 IF NOT-SEE IF USER SAID CANCEL
003310 5840 D628            03628  4258+         L     R4,PIBAR+8 POINT R4 TO USERS SAVE AREA
003314 47F0 D324            03324  4259+         B     CNCEL4 GO SEE IF USER HAS AB EXIT
003318                             4260+CNCEL3   EQU   *
003318 9563 A001      00001        4261+         CLI   1(RA),X'63' DID USER ISSUE CANCEL MACRO
00331C 4780 02DE            002DE  4262+         BE    CNCL IF SO-DONT GO TO HIS AB EXIT
003320 584A 0004            00004  4263+         L     R4,4(RA) POINT R4 TO USERS SAVE AREA
003324                             4264+CNCEL4   EQU   *
003324 4820 048E            0048E  4265+         LH    R2,PIK GET PIB DISPLAC OF TASK
003328 8820 0001            00001  4266+         SRL   R2,1 HALVE FOR 8 BYTES PER ENTRY
00332C 5A20 0488            00488  4267+         A     R2,ABPTR POINT TO TASKS AB ENTRY
003330 5832 0000            00000  4268+         L     R3,0(R2) GET AB EXIT ADDRESS
003334 1233                        4269+         LTR   R3,R3 IS THERE A USER EXIT
003336 4780 02DE            002DE  4270+         BZ    CNCL IF NOT-GO CALL TERMINATOR
                                   4271+* MOVE PSW-REGS 0-F FROM USER TO AB SAVE AREA
00333A 5852 0004            00004  4272+         L     R5,4(R2) POINT R5 TO AB SAVE AREA
00333E D207 5000 4008 00000 00008  4273+         MVC   0(8,R5),8(R4) PSW FROM USER TO AB SAVE AREA
003344 D223 5008 402C 00008 0002C  4274+         MVC   8(36,R5),44(R4) REGS 0-8 FROM USER TO AB SAVE
00334A D21B 502C 4010 0002C 00010  4275+         MVC   44(28,R5),16(R4) REGS 9-F FROM USER TO AB SAVE
                                   4276+* PUT USERS AB ROUTINE ADDR IN THE PSW IN HIS SAVE AREA
003350 D202 400D 2001 0000D 00001  4277+         MVC   13(3,R4),1(R2) AB EXIT ADDRESS TO USERS PSW
003356 D703 2000 2000 00000 00000  4278+         XC    0(4,R2),0(R2) CLEAR EXIT ADDR FROM TABLE
                                   4279+* PASS CANCEL CODE TO USER IN HIS R0
00335C D703 402C 402C 0002C 0002C  4280+         XC    44(4,R4),44(R4) CLEAR USERS R0
003362 D200 402F A001 0002F 00001  4281+         MVC   47(1,R4),1(RA) CANCEL CODE TO R0
003368 943F 402F      0002F        4282+         NI    47(R4),X'3F' CLEAR CANCEL BIT
                                   4283+* PASS AB SAVE ADDR TO USER IN HIS R1
00336C D203 4030 2004 00030 00004  4284+         MVC   48(4,R4),4(R2) AB SAVE ADDR TO R1
                                   4285+* SAVE CANCEL CODE IN 1ST BYTE OF AB SAVE ADDR IN TBL SO IT CAN BE
                                   4286+* USED TO CANCEL TASK WHEN IT RETURNS FROM AB RUUTINE
003372 D200 2004 A001 00004 00001  4287+         MVC   4(1,R2),1(RA) CANCEL CODE TO TABLE SAVE ADDR
003378 9200 A001      00001        4288+         MVI   1(RA),X'00' ZERO CANCEL CODE IN PIB
                                   4289+* SET AB ROUTINE IN PROGRESS BIT ON IN PIB FOR THIS TASK
00337C 9601 A00F      0000F        4290+         OI    15(RA),X'01' SET AB IN PROGRESS BIT IN PIB
                                   4291+* CLEAR TASKS PC TABLE ENTRY
003380 4860 048E            0048E  4292+         LH    R6,PIK GET TASKS PIB DISPLACEMENT
003384 8860 0001            00001  4293+         SRL   R6,1 HALVE FOR 8 BYTES PER ENTRY
003388 4A60 0454            00454  4294+         AH    R6,PCPTR POINT TO TASKS ENTRY IN PC TBL
00338C D707 6000 6000 00000 00000  4295+         XC    0(8,R6),0(R6) ZERO ENTRY IN TABLE
                                   4296+* CLEAR TASKS OC TABLE ENTRY
003392 9530 048F      0048F        4297+         CLI   PIK+1,X'30' IS THIS A MAIN TASK
003396 4720 D3AC            033AC  4298+         BH    CNCEL5 IF NOT-DONT CLEAR TABLE ENTRY
00339A 4860 048E            0048E  4299+         LH    R6,PIK GET TASKS PIB DISPLACEMENT
00339E 8860 0001            00001  4300+         SRL   R6,1 HALVE FOR 8 BYTES PER ENTRY
0033A2 4A60 0458            00458  4301+         AH    R6,PCPTR+4 POINT TO TASKS OC TABLE ENTRY     3-7
0033A6 D707 6000 6000 00000 00000  4302+         XC    0(8,R6),0(R6) ZERO TABLE ENTRY
0033AC                             4303+CNCEL5   EQU   *
0033AC D501 C48A 048E 0248A 0048E  4304+         CLC   TWTIMS(2),PIK DOES THIS TASK OWN TIMER
       DOS SUPERVISOR - TASK TERMINATION HANDLING                                                              PAGE  101


  LOC  OBJECT CODE    ADDR1 ADDR2  STMT   SOURCE STATEMENT                                          FDOS CL3-10 03/29/70

0033B2 4770 D3BC            033BC  4305+         BNE   CNCEL6 IF NOT-DONT ZERO ENTRY
0033B6 D707 BAAC BAAC 01AAC 01AAC  4306+         XC    ITTAB(8),ITTAB CLEAR IT TABLE
0033BC                             4307+CNCEL6   EQU   *
0033BC 47F0 01AC            001AC  4308+         B     EXT03 GO TO TASK SEL                          3-3

                                   4310+* ROUTINE FOR CONTINUING AFTER RETURN FROM USERS AB ROUTINE
0033C0                             4311+CNCEL1   EQU   *
0033C0 94FE A00F      0000F        4312+         NI    15(RA),X'FE' TURN OFF AB IN PROGRESS BIT
0033C4 4820 048E            0048E  4313+         LH    R2,PIK GET ID OF TASK
0033C8 8820 0001            00001  4314+         SRL   R2,1 HALVE FOR 8 BYTE ENTRIES
0033CC 5A20 0488            00488  4315+         A     R2,ABPTR POINT TO AB TABLE ENTRY
0033D0 D200 A001 2004 00001 00004  4316+         MVC   1(1,RA),4(R2) CANCEL CODE TO PIB
0033D6 9640 A001      00001        4317+         OI    1(RA),X'40' TURN ON CANCEL BIT
0033DA 5832 0004            00004  4318+         L     R3,4(R2) GET ABSAVE ADDRESS
0033DE 4400 0906            00906  4319+         EX    0,COMPCLC DOES THIS TASK OWN LTA
0033E2 4770 D3EE            033EE  4320+         BNE   CNCEL1A GET USER SAVE FROM TASK PIB
0033E6 5840 D628            03628  4321+         L     R4,PIBAR+8 POINT R4 TO USERS SAVE AREA
0033EA 47F0 D3F2            033F2  4322+         B     CNCEL1B CONTINUE
0033EE                             4323+CNCEL1A  EQU   *
0033EE 584A 0004            00004  4324+         L     R4,4(RA) POINT R4 TO USERS SAVE AREA
0033F2                             4325+CNCEL1B  EQU   *
0033F2 D207 4008 3000 00008 00000  4326+         MVC   8(8,R4),0(R3) PSW FROM AB TO USER SAVE
0033F8 D21B 4010 302C 00010 0002C  4327+         MVC   16(28,R4),44(R3) REGS 9-F FROM AB TO USER SAVE
0033FE D223 402C 3008 0002C 00008  4328+         MVC   44(36,R4),8(R3) REGS 0-8 FROM AB TO USER SAVE
003404 47F0 02DE            002DE  4329+         B     CNCL GO CALL TERMINATOR
       DOS SUPERVISOR - TASK TERMINATION HANDLING                                                              PAGE  102


  LOC  OBJECT CODE    ADDR1 ADDR2  STMT   SOURCE STATEMENT                                          FDOS CL3-10 03/29/70

                                   4331+********************************************************************
                                   4332+* SUBROUTINE TO INSERT CANCEL CODE WHICH MUST BE IN R6 INTO ALL    *
                                   4333+* PIBS BELONGING TO PARTITION OF INTERRUPTED TASK-RETURNS BY R8    *
                                   4334+********************************************************************

003408                             4336+RDYCNL   EQU   *
003408 5080 D21C            0321C  4337+         ST    R8,APSAVE SAVE REGISTER 8
00340C 50A0 D220            03220  4338+         ST    RA,APSAVE+4 SAVE REGISTER 10
003410 4120 BA22            01A22  4339+         LA    R2,MVCFLD+2 START AT ATTN IN MVCFLD
003414                             4340+RDYCN1   EQU   *
003414 4122 0001            00001  4341+         LA    R2,1(R2) BUMP TO NEXT MVCFLD BYTE
003418 D500 2000 041F 00000 0041F  4342+         CLC   0(1,R2),PID+1 IS THIS MAIN TASK IN MVCFLD
00341E 4770 D414            03414  4343+         BNE   RDYCN1 CONTINUE SEARCH
003422 4260 00FF            000FF  4344+         STC   R6,ERRSET0D CANCEL CODE TO MVI INSTRUCTION
003426                             4345+RDYCN2   EQU   *
003426 1BAA                        4346+         SR    RA,RA CLEAR MVCFLD CHARACTER REGISTER
003428 43A2 0000            00000  4347+         IC    RA,0(R2) GET MVCFLD CHARACTER
00342C 4AA0 044A            0044A  4348+         AH    RA,PIBPT POINT TO TASKS PIB
003430 9104 A00F      0000F        4349+         TM    15(RA),CNCLD IS CANCEL ALREADY IN PROGRESS?    3-7
003434 4780 D440            03440  4350+         BZ    RDYCN3 NO...                            3-7
003438 9101 A00F      0000F        4351+         TM    15(RA),X'01' IS TASK IN ITS AB ROUTINE        3-7
00343C 4780 D46E            0346E  4352+         BZ    RDYCN4 NO...                            3-7
003440 9101 A000      00000        4353+RDYCN3   TM    0(RA),X'01' SVC 7 BOUND                      3-7
003444 4710 D452            03452  4354+         BO    RDYCN2A NO                                3-7
003448 D502 A005 0469 00005 00469  4355+         CLC   5(3,RA),LTAREA ARE WE IN TRANS        3-3
00344E 4780 D482            03482  4356+         BE    RDYCN4X 3-3
003452 9601 A000      00000        4357+RDYCN2A  OI    0(RA),X'01' SET TASK PIB READY TO RUN   3-3
003456 94F7 A000      00000        4358+         NI    0(RA),X'F7' .      TURN OFF QTAM WAIT BIT            3-6
00345A 434A 0000            00000  4359+RDYCN4Z  IC    R4,0(RA) SAVE TASKS PIBFLG              3-3
00345E 92FF BA31      01A31        4360+         MVI   WHLMSW,X'FF' 3-3
003462 4580 00F2            000F2  4361+         BAL   R8,ERRGO GO READY TASK TO CANCEL
003466 9200 BA31      01A31        4362+         MVI   WHLMSW,X'00' 3-3
00346A 424A 0000            00000  4363+         STC   R4,0(RA) RESTORE TASKS PIBFLAG
00346E                             4364+RDYCN4   EQU   *
00346E 0620                        4365+         BCTR  R2,0 BACKUP MVCFLD POINTER 1 BYTE
003470 9560 2000      00000        4366+         CLI   0(R2),X'60' STILL IN THE SAME PARTITION
003474 4720 D426            03426  4367+         BH    RDYCN2 3-3
003478 5880 D21C            0321C  4368+         L     R8,APSAVE RESTORE REGISTER 8
00347C 58A0 D220            03220  4369+         L     RA,APSAVE+4 RESTORE REGISTER 10
003480 07F8                        4370+         BR    R8 EXIT FROM SUBROUTINE
003482 92FF BA30      01A30        4371+RDYCN4X  MVI   SVANCL,X'FF' 3-7
003486 47F0 D45A            0345A  4372+         B     RDYCN4Z 3-3
       DOS SUPERVISOR - TASK TERMINATION HANDLING                                                              PAGE  103


  LOC  OBJECT CODE    ADDR1 ADDR2  STMT   SOURCE STATEMENT                                          FDOS CL3-10 03/29/70

                                   4374+********************************************************************
                                   4375+* ROUTINE TO HANDLE CANCEL ALL MACRO-SVC 6 WITH R0 NON-ZERO
                                   4376+********************************************************************

00348A                             4378+SVC06    EQU   *
00348A 1200                        4379+         LTR   R0,R0 R0=0 FOR SIMPLE CANCEL
00348C 4770 D4B0            034B0  4380+         BNZ   CANALL NO, MUST BE CANCEL ALL       3-4
003490 9530 048F      0048F        4381+         CLI   PIK+1,X'30' IS IT A MAIN TASK            3-9
003494 4720 D4A8            034A8  4382+         BH    SIMCAN NO                           3-9
003498 9102 A00F      0000F        4383+         TM    15(RA),X'02' ARE SUBS ATTACHED            3-9
00349C 47E0 D4A8            034A8  4384+         BNO   SIMCAN NO                           3-9
0034A0 4400 0906            00906  4385+         EX    0,COMPCLC DOES IT OWN THE LTA          3-9
0034A4 4780 D4B0            034B0  4386+         BE    CANALL YES                          3-9
0034A8 92FF BA30      01A30        4387+SIMCAN   MVI   SVANCL,X'FF' SET CANCEL SWITCH            3-9
0034AC 47F0 00DA            000DA  4388+         B     ERR23 BRANCH FOR SIMPLE CANCEL     3-4
0034B0                             4389+CANALL   EQU   * 3-4
0034B0 9530 048F      0048F        4390+         CLI   PIK+1,X'30' IS IT A MAIN TASK            3-3
0034B4 47D0 00DA            000DA  4391+         BNH   ERR23 YES BRANCH                   3-3
0034B8 4820 048E            0048E  4392+         LH    R2,PIK GET TASKS PIB DISPLACEMENT
0034BC 8820 0001            00001  4393+         SRL   R2,1 HALVE FOR 8 BYTE ENTRIES
0034C0 5A20 0488            00488  4394+         A     R2,ABPTR POINT TO AB ENTRY FOR THIS TASK
0034C4 D703 2000 2000 00000 00000  4395+         XC    0(4,R2),0(R2) ZERO THIS TASKS AB ENTRY
0034CA 1B55                        4396+         SR    R5,R5 R5=0 INDICATES CANCEL ALL
0034CC 4160 005C            0005C  4397+         LA    R6,X'5C' CANCEL CODE X'1C' TO R6
0034D0 4180 00DA            000DA  4398+         LA    R8,ERR23 LOAD RETURN ADDRESS
0034D4 47F0 D408            03408  4399+         B     RDYCNL READY ALL TASKS TO CANCEL


                                   4401          ALLOC F1=510K,                 SIZE OF F1  (MAX IS 510K)      X
                                                       F2=510K                  SIZE OF F2  (MAX IS 510K)
                                   4402+* 360N-CL-453 ALLOC     CHANGE LEVEL 3-11                          3-11


                                   4404          IOTAB BGPGR=32,                MAX BG SYSXXX ASSGN'S          X
                                                       F1PGR=32,                MAX F1 SYSXXX ASSGN'S          X
                                                       F2PGR=32,                MAX F2 SYSXXX ASSGN'S          X
                                                       IODEV=48,                NUMBER OF DEVICES SUPPORTED    X
                                                       JIB=128,                 NUM OF JOB INFORMATION BLOCKS  X
                                                       CHANQ=32                 NUM OF CHANNEL QUEUE ENTRIES
                                   4405+*360N-CL-453 IOTAB    CHANGE LEVEL 3-11                            3-11
       DOS SUPERVISOR - INPUT/OUTPUT TABLES                                                                    PAGE  104


  LOC  OBJECT CODE    ADDR1 ADDR2  STMT   SOURCE STATEMENT                                          FDOS CL3-10 03/29/70

                                   4407+* I/O TABLE EXPANSIONS
                                   4408+* PROGRAM TABLES
0034D8                             4409+         DS    0F .                                                 3-9
0034D8 5F88                        4410+BGSAVADR DC    Y(BGSAVE) .         ADDR OF BG SAVE AREA             3-9
0034DA FFFF                        4411+F1CLB    DC    X'FFFF' .           NULL F1 SYSCLB LUB               3-9
0034DC FFFF                        4412+F2CLB    DC    X'FFFF' .           NULL F2 SYSCLB LUB               3-9
0034DE FFFF                        4413+BGCLB    DC    X'FFFF' .           NULL BG SYSCLB LUB               3-9
0034E0                             4414+CLBLUBS  EQU   BGCLB+2 .           END OF SYSCLB LUBS               3-9
0034E0                             4415+         DS    0F

                                   4417+*  CONTINUATION OF ALL BOUND PIB                                    3-3
0034E0 0000                        4418+         DC    H'0' RESERVED                         3-3
0034E2 0000                        4419+         DC    H'0' RESERVED                         3-3
0034E4 0000                        4420+         DC    H'0' RESERVED                         3-3
0034E6 0010                        4421+         DC    H'16' PRIORITY OF ALL BOUND PIB        3-3
0034E8 00000000                    4422+         DC    F'0' RESERVED                         3-3
0034EC 0000                        4423+         DC    H'0' ALL BOUND PIB DISPLACEMENT       3-3
0034EE 0000                        4424+         DC    H'0' RESERVED                         3-3

0034E0                             4426+PIB2AD   EQU   *-16 START OF SECOND HALF OF PIB TAB

                                   4428+*  CONTINUATION OF BACKGROUND PIB
0034F0 03F0                        4429+         DC    Y(COMREG) BG COMMUNICATIONS REGION ADDR.
0034F2 0000                        4430+         DC    Y(0) BG SYSTEM LUB INDEX
0034F4 0000                        4431+         DC    H'0' RESERVED                         3-3
0034F6 0006                        4432+         DC    H'6' PRIORITY OF BG PIB               3-3
0034F8 00000000                    4433+         DC    F'0' BG ECB ADDRESS-ZERO              3-3
0034FC 0010                        4434+         DC    X'0010' BG PIB DISPLACEMENT              3-3
0034FE 0000                        4435+         DC    H'0' RESERVED                         3-3

                                   4437+*  CONTINUATION OF FOREGROUND 2 PIB
003500 4098                        4438+F2ADDR   DC    Y(F2COMR) F2 COMMUNICATIONS REGION ADDR.   3-7
003502 002B                        4439+         DC    Y(11+32) .     F2 SYSTEM LUB INDEX              3-9
003504 0000                        4440+         DC    H'0' RESERVED                         3-3
003506 0005                        4441+         DC    H'5' PRIORITY OF F2 PIB               3-3
003508 00000000                    4442+         DC    F'0' F2 ECB ADDRESS-ZERO              3-3
00350C 0020                        4443+         DC    X'0020' F2 PIB DISPLACEMENT              3-3
00350E 0000                        4444+         DC    H'0' RESERVED                         3-3

                                   4446+*  CONTINUATION OF FOREGROUND 1 PIB
003510 4128                        4447+F1ADDR   DC    Y(F1COMR) F1 COMMUNICATIONS REGION ADDR.   3-7
003512 0056                        4448+         DC    Y(11*2+32+32) F1 SYSTEM LUB INDEX             3-9
003514 0000                        4449+         DC    H'0' RESERVED                         3-3
003516 0004                        4450+         DC    H'4' PRIORITY OF F1 PIB               3-3
003518 00000000                    4451+         DC    F'0' F1 ECB ADDRESS-ZERO              3-3
00351C 0030                        4452+         DC    X'0030' F1 PIB DISPLACEMENT              3-3
00351E 0000                        4453+         DC    H'0' RESERVED                         3-3

                                   4455+*  CONTINUATION OF ATTENTION ROUTINE PIB
003520 03F0                        4456+         DC    Y(COMREG) COMMUNICATIONS REGION ADDRESS
003522 0000                        4457+         DC    H'0'
       DOS SUPERVISOR - INPUT/OUTPUT TABLES                                                                    PAGE  105


  LOC  OBJECT CODE    ADDR1 ADDR2  STMT   SOURCE STATEMENT                                          FDOS CL3-10 03/29/70

003524 0000                        4458+         DC    H'0' RESERVED                         3-3
003526 0003                        4459+         DC    H'3' PRIORITY OF ATTN PIB             3-3
003528 00000000                    4460+         DC    F'0' ECB ADDRESS-ZERO                 3-3
00352C 0040                        4461+         DC    X'0040' ATTN PIB DISPLACEMENT            3-3
00352E 0000                        4462+         DC    H'0' RESERVED                         3-3

                                   4464+*  CONTINUATION OF QUIESCE I/O PIB                                  3-3
003530 0000                        4465+         DC    H'0' RESERVED                         3-3
003532 0000                        4466+         DC    H'0' RESERVED                         3-3
003534 0000                        4467+         DC    H'0' RESERVED                         3-3
003536 0002                        4468+         DC    H'2' PRIORITY OF QUIESCE PIB          3-3
003538 00000000                    4469+         DC    F'0' ECB ADDRESS-ZERO                 3-3
00353C 0050                        4470+         DC    X'0050' QUIESCE PIB DISPLACEMENT         3-3
00353E 0000                        4471+         DC    H'0' RESERVED                         3-3

                                   4473+*  CONTINUATION OF SUPERVISOR PIB                                   3-3
003540 0000                        4474+         DC    H'0' RESERVED                         3-3
003542 0000                        4475+         DC    H'0' RESERVED                         3-3
003544 0000                        4476+         DC    H'0' RESERVED                         3-3
003546 0001                        4477+         DC    H'1' PRIORITY OF SUPERVISOR PIB       3-3
003548 00000000                    4478+         DC    F'0' ECB ADDRESS-ZERO                 3-3
00354C 0060                        4479+         DC    X'0060' SUPERVISOR PIB DISPLACEMENT      3-3
00354E 0000                        4480+         DC    H'0' 3-3

                                   4482+*  CONTINUATION OF SUBTASK PIB FOR ASYNCHRONOUS PROCESSING          3-3
003550 0000                        4483+         DC    H'0' COMMUNICATIONS REGION ADDRESS    3-3
003552 0000                        4484+         DC    H'0' SYSTEM LUB INDEX                 3-3
003554 0000                        4485+         DC    H'0' RESERVED                         3-3
003556 0000                        4486+         DC    H'0' PRIORITY OF SUBTASK              3-3
003558 00000000                    4487+         DC    F'0' ECB ADDRESS OF SUBTASK           3-3
00355C 0000                        4488+         DC    H'0' PIB DISPL OF MAIN TASK           3-3
00355E 0000                        4489+         DC    H'0' RESERVED                         3-3

                                   4491+*  CONTINUATION OF SUBTASK PIB FOR ASYNCHRONOUS PROCESSING          3-3
003560 0000                        4492+         DC    H'0' COMMUNICATIONS REGION ADDRESS    3-3
003562 0000                        4493+         DC    H'0' SYSTEM LUB INDEX                 3-3
003564 0000                        4494+         DC    H'0' RESERVED                         3-3
003566 0000                        4495+         DC    H'0' PRIORITY OF SUBTASK              3-3
003568 00000000                    4496+         DC    F'0' ECB ADDRESS OF SUBTASK           3-3
00356C 0000                        4497+         DC    H'0' PIB DISPL OF MAIN TASK           3-3
00356E 0000                        4498+         DC    H'0' RESERVED                         3-3
                                   4499+*  CONTINUATION OF SUBTASK PIB FOR ASYNCHRONOUS PROCESSING          3-3
003570 0000                        4500+         DC    H'0' COMMUNICATIONS REGION ADDRESS    3-3
003572 0000                        4501+         DC    H'0' SYSTEM LUB INDEX                 3-3
003574 0000                        4502+         DC    H'0' RESERVED                         3-3
003576 0000                        4503+         DC    H'0' PRIORITY OF SUBTASK              3-3
003578 00000000                    4504+         DC    F'0' ECB ADDRESS OF SUBTASK           3-3
00357C 0000                        4505+         DC    H'0' PIB DISPL OF MAIN TASK           3-3
00357E 0000                        4506+         DC    H'0' RESERVED                         3-3

                                   4508+*  CONTINUATION OF SUBTASK PIB FOR ASYNCHRONOUS PROCESSING          3-3
       DOS SUPERVISOR - INPUT/OUTPUT TABLES                                                                    PAGE  106


  LOC  OBJECT CODE    ADDR1 ADDR2  STMT   SOURCE STATEMENT                                          FDOS CL3-10 03/29/70

003580 0000                        4509+         DC    H'0' COMMUNICATIONS REGION ADDRESS    3-3
003582 0000                        4510+         DC    H'0' SYSTEM LUB INDEX                 3-3
003584 0000                        4511+         DC    H'0' RESERVED                         3-3
003586 0000                        4512+         DC    H'0' PRIORITY OF SUBTASK              3-3
003588 00000000                    4513+         DC    F'0' ECB ADDRESS OF SUBTASK           3-3
00358C 0000                        4514+         DC    H'0' PIB DISPL OF MAIN TASK           3-3
00358E 0000                        4515+         DC    H'0' RESERVED                         3-3

                                   4517+*  CONTINUATION OF SUBTASK PIB FOR ASYNCHRONOUS PROCESSING          3-3
003590 0000                        4518+         DC    H'0' COMMUNICATIONS REGION ADDRESS    3-3
003592 0000                        4519+         DC    H'0' SYSTEM LUB INDEX                 3-3
003594 0000                        4520+         DC    H'0' RESERVED                         3-3
003596 0000                        4521+         DC    H'0' PRIORITY OF SUBTASK              3-3
003598 00000000                    4522+         DC    F'0' ECB ADDRESS OF SUBTASK           3-3
00359C 0000                        4523+         DC    H'0' PIB DISPL OF MAIN TASK           3-3
00359E 0000                        4524+         DC    H'0' RESERVED                         3-3

                                   4526+*  CONTINUATION OF SUBTASK PIB FOR ASYNCHRONOUS PROCESSING          3-3
0035A0 0000                        4527+         DC    H'0' COMMUNICATIONS REGION ADDRESS    3-3
0035A2 0000                        4528+         DC    H'0' SYSTEM LUB INDEX                 3-3
0035A4 0000                        4529+         DC    H'0' RESERVED                         3-3
0035A6 0000                        4530+         DC    H'0' PRIORITY OF SUBTASK              3-3
0035A8 00000000                    4531+         DC    F'0' ECB ADDRESS OF SUBTASK           3-3
0035AC 0000                        4532+         DC    H'0' PIB DISPL OF MAIN TASK           3-3
0035AE 0000                        4533+         DC    H'0' RESERVED                         3-3

                                   4535+*  CONTINUATION OF SUBTASK PIB FOR ASYNCHRONOUS PROCESSING          3-3
0035B0 0000                        4536+         DC    H'0' COMMUNICATIONS REGION ADDRESS    3-3
0035B2 0000                        4537+         DC    H'0' SYSTEM LUB INDEX                 3-3
0035B4 0000                        4538+         DC    H'0' RESERVED                         3-3
0035B6 0000                        4539+         DC    H'0' PRIORITY OF SUBTASK              3-3
0035B8 00000000                    4540+         DC    F'0' ECB ADDRESS OF SUBTASK           3-3
0035BC 0000                        4541+         DC    H'0' PIB DISPL OF MAIN TASK           3-3
0035BE 0000                        4542+         DC    H'0' RESERVED                         3-3

                                   4544+*  CONTINUATION OF SUBTASK PIB FOR ASYNCHRONOUS PROCESSING          3-3
0035C0 0000                        4545+         DC    H'0' COMMUNICATIONS REGION ADDRESS    3-3
0035C2 0000                        4546+         DC    H'0' SYSTEM LUB INDEX                 3-3
0035C4 0000                        4547+         DC    H'0' RESERVED                         3-3
0035C6 0000                        4548+         DC    H'0' PRIORITY OF SUBTASK              3-3
0035C8 00000000                    4549+         DC    F'0' ECB ADDRESS OF SUBTASK           3-3
0035CC 0000                        4550+         DC    H'0' PIB DISPL OF MAIN TASK           3-3
0035CE 0000                        4551+         DC    H'0' RESERVED                         3-3

                                   4553+*  CONTINUATION OF SUBTASK PIB FOR ASYNCHRONOUS PROCESSING          3-3
0035D0 0000                        4554+         DC    H'0' COMMUNICATIONS REGION ADDRESS    3-3
0035D2 0000                        4555+         DC    H'0' SYSTEM LUB INDEX             3-9
0035D4 0000                        4556+         DC    H'0' RESERVED                         3-3
0035D6 0000                        4557+         DC    H'0' PRIORITY OF SUBTASK              3-3
0035D8 00000000                    4558+         DC    F'0' ECB ADDRESS OF SUBTASK           3-3
0035DC 0000                        4559+         DC    H'0' PIB DISPL OF MAIN TASK           3-3
       DOS SUPERVISOR - INPUT/OUTPUT TABLES                                                                    PAGE  107


  LOC  OBJECT CODE    ADDR1 ADDR2  STMT   SOURCE STATEMENT                                          FDOS CL3-10 03/29/70

0035DE 0000                        4560+         DC    H'0' RESERVED                         3-3
0035E0                             4561+         DS    0F
0035E0                             4562+PIBTAB   EQU   *
                                   4563+*
                                   4564+*  ALL BOUND PIB                                                    3-3
0035E0 8500                        4565+         DC    X'8500'
0035E2 E2D7                        4566+         DC    C'SP'
0035E4 47F0 02EA            002EA  4567+         B     ALLBND
0035E8 00000000                    4568+         DC    F'0'
0035EC 000000FF                    4569+         DC    X'000000FF'

                                   4571+* BACKGROUND PIB
0035F0 03                          4572+PIBBG    DC    X'03' FLAG
0035F1 00                          4573+         DC    X'00' CANCEL CODE
0035F2 C2C7                        4574+         DC    C'BG' SYSLOG ID
0035F4 19                          4575+         DC    X'19' NOP INSTRUCTION
0035F5 005F88                      4576+         DC    AL3(BGSAVE) PTER TO ORIGIN OF AREA
0035F8 0A                          4577+         DC    AL1(10) NO. OF CORE BLOCKS
0035F9 006000                      4578+         DC    AL3(EOSSP) PTR TO PP AREA
0035FC 04                          4579+         DC    X'04' PUB ASSIGN FLAG MASK
0035FD 0B                          4580+         DC    AL1(11) .        USER LUB INDEX                   3-9
0035FE 20                          4581+         DC    AL1(32) NUMBER OF LUBS
0035FF 80                          4582+BGPIBF2  DC    X'80' MORE FLAGS

                                   4584+* FOREGROUND 2 PIB
003600 80                          4585+PIBF2    DC    X'80' FLAG
003601 00                          4586+         DC    X'00' CANCEL CODE
003602 C6F2                        4587+         DC    C'F2' SYSLOG ID
003604 19                          4588+         DC    X'19' NOP INSTRUCTION
003605 007000                      4589+         DC    X'007000' POINTER TO SAVE AREA
003608 FF                          4590+         DC    AL1(255) NUMBER OF CORE BLOCKS
003609 007000                      4591+         DC    X'007000' POINTER TO ORIGIN OF AREA
00360C 01                          4592+         DC    X'01' PUB ASSIGN FLAG MASK
00360D 36                          4593+         DC    AL1(11*2+32) . USER LUB INDEX                   3-9
00360E 20                          4594+         DC    AL1(32) NUMBER OF LUBS
00360F 00                          4595+         DC    X'00' MORE FLAGS

                                   4597+* FOREGROUND 1 PIB
003610 80                          4598+PIBF1    DC    X'80' FLAG
003611 00                          4599+         DC    X'00' CANCEL CODE
003612 C6F1                        4600+         DC    C'F1' SYSLOG ID
003614 19                          4601+         DC    X'19' NOP INSTRUCTION
003615 007800                      4602+         DC    X'007800' POINTER TO SAVE AREA
003618 FF                          4603+         DC    AL1(255) NUMBER OF CORE BLOCKS
003619 007800                      4604+         DC    X'007800' POINTER TO ORIGIN OF AREA
00361C 02                          4605+         DC    X'02' PUB ASSIGN FLAG MASK
00361D 61                          4606+         DC    AL1(11*3+32+32) USER LUB INDEX                3-9
00361E 20                          4607+         DC    AL1(32) NUMBER OF LUBS
00361F 00                          4608+         DC    X'00' MORE FLAGS

                                   4610+* ATTENTION ROUTINE PIB
       DOS SUPERVISOR - INPUT/OUTPUT TABLES                                                                    PAGE  108


  LOC  OBJECT CODE    ADDR1 ADDR2  STMT   SOURCE STATEMENT                                          FDOS CL3-10 03/29/70

003620 80                          4611+PIBAR    DC    X'80' FLAG
003621 00                          4612+         DC    X'00' CANCEL CODE
003622 C1D9                        4613+         DC    C'AR' SYSLOG ID
003624 47F0 B6F0            016F0  4614+         B     ATNRTN BRANCH INSTRUCTION
003628 00                          4615+         DC    X'00' FLAGS
003629 001B90                      4616+LTB      DC    AL3(LTSVPT) LOGICAL TRANSIENT BUCKET
00362C 07                          4617+         DC    X'07'
00362D 00                          4618+         DC    X'00'
00362E 5568                        4619+LTADD    DC    Y(LTA)

                                   4621+* QUIESCE I/O PIB
003630 84                          4622+PIBQUIS  DC    X'84' FLAG
003631 00                          4623+         DC    X'00'
003632 6150                        4624+         DC    C'/&&' 3-10
003634 47F0 B64E            0164E  4625+         B     QUISIO BRANCH INSTRUCTION
003638 00                          4626+DEVZON   DC    X'0' SCRATCH BYTE
003639 0004080C101418              4627+CHNIDX   DC    X'0004080C101418' CHAN PUB TBL INDEX VALUES

                                   4629+* SUPERVISOR PIB
003640 84                          4630+PIBSUPVR DC    X'84' FLAG
003641 00                          4631+         DC    X'00' CANCEL CODE
003642 E2D7                        4632+         DC    C'SP' SYSLOG ID
003644 47F0 0292            00292  4633+         B     SUPEXT BRANCH INSTRUCTION
003648 0000                        4634+PUBRES   DC    H'0' RES BKT ADDR
00364A 0016                        4635+ENTLEN   DC    Y(L'ERQENT) LENGTH OF ERROR QUE ENTRY
00364C 1F050000                    4636+CLRCOM   DC    X'1F050000' CLEAR CCB COM & STATUS BYTES

                                   4638+*  SUBTASK PIB FOR ASYNCHRONOUS PROCESSING                          3-3
003650 80                          4639+         DC    X'80' PIB FLAGS                        3-3
003651 00                          4640+         DC    X'00' CANCEL CODE                      3-3
003652 4040                        4641+         DC    C'  ' SYSLOG IDENTIFICATION            3-3
003654 00                          4642+         DC    X'00' NOP INSTRUCTION                  3-3
003655 000000                      4643+         DC    X'000000' POINTER TO SAVE AREA             3-3
003658 00                          4644+         DC    X'00' NUMBER OF CORE BLOCKS            3-3
003659 000000                      4645+         DC    X'000000' ORIGIN OF MAIN TASK              3-3
00365C 00                          4646+         DC    X'00' PUB ASSIGN FLAG MASK             3-3
00365D 00                          4647+         DC    X'00' USER LUB INDEX                   3-3
00365E 00                          4648+         DC    X'00' NUMBER OF LUBS                   3-3
00365F 00                          4649+         DC    X'00' MORE PIB FLAGS                   3-3

                                   4651+*  SUBTASK PIB FOR ASYNCHRONOUS PROCESSING                          3-3
003660 80                          4652+         DC    X'80' PIB FLAGS                        3-3
003661 00                          4653+         DC    X'00' CANCEL CODE                      3-3
003662 4040                        4654+         DC    C'  ' SYSLOG IDENTIFICATION            3-3
003664 00                          4655+         DC    X'00' NOP INSTRUCTION                  3-3
003665 000000                      4656+         DC    X'000000' POINTER TO SAVE AREA             3-3
003668 00                          4657+         DC    X'00' NUMBER OF CORE BLOCKS            3-3
003669 000000                      4658+         DC    X'000000' ORIGIN OF MAIN TASK              3-3
00366C 00                          4659+         DC    X'00' PUB ASSIGN FLAG MASK             3-3
00366D 00                          4660+         DC    X'00' USER LUB INDEX                   3-3
00366E 00                          4661+         DC    X'00' NUMBER OF LUBS                   3-3
       DOS SUPERVISOR - INPUT/OUTPUT TABLES                                                                    PAGE  109


  LOC  OBJECT CODE    ADDR1 ADDR2  STMT   SOURCE STATEMENT                                          FDOS CL3-10 03/29/70

00366F 00                          4662+         DC    X'00' MORE PIB FLAGS                   3-3

                                   4664+*  SUBTASK PIB FOR ASYNCHRONOUS PROCESSING                          3-3
003670 80                          4665+         DC    X'80' PIB FLAGS                        3-3
003671 00                          4666+         DC    X'00' CANCEL CODE                      3-3
003672 4040                        4667+         DC    C'  ' SYSLOG IDENTIFICATION            3-3
003674 00                          4668+         DC    X'00' NOP INSTRUCTION                  3-3
003675 000000                      4669+         DC    X'000000' POINTER TO SAVE AREA             3-3
003678 00                          4670+         DC    X'00' NUMBER OF CORE BLOCKS            3-3
003679 000000                      4671+         DC    X'000000' ORIGIN OF MAIN TASK              3-3
00367C 00                          4672+         DC    X'00' PUB ASSIGN FLAG MASK             3-3
00367D 00                          4673+         DC    X'00' USER LUB INDEX                   3-3
00367E 00                          4674+         DC    X'00' NUMBER OF LUBS                   3-3
00367F 00                          4675+         DC    X'00' MORE PIB FLAGS                   3-3

                                   4677+*  SUBTASK PIB FOR ASYNCHRONOUS PROCESSING                          3-3
003680 80                          4678+         DC    X'80' PIB FLAGS                        3-3
003681 00                          4679+         DC    X'00' CANCEL CODE                      3-3
003682 4040                        4680+         DC    C'  ' SYSLOG IDENTIFICATION            3-3
003684 00                          4681+         DC    X'00' NOP INSTRUCTION                  3-3
003685 000000                      4682+         DC    X'000000' POINTER TO SAVE AREA             3-3
003688 00                          4683+         DC    X'00' NUMBER OF CORE BLOCKS            3-3
003689 000000                      4684+         DC    X'000000' ORIGIN OF MAIN TASK              3-3
00368C 00                          4685+         DC    X'00' PUB ASSIGN FLAG MASK             3-3
00368D 00                          4686+         DC    X'00' USER LUB INDEX                   3-3
00368E 00                          4687+         DC    X'00' NUMBER OF LUBS                   3-3
00368F 00                          4688+         DC    X'00' MORE PIB FLAGS                   3-3

                                   4690+*  SUBTASK PIB FOR ASYNCHRONOUS PROCESSING                          3-3
003690 80                          4691+         DC    X'80' PIB FLAGS                        3-3
003691 00                          4692+         DC    X'00' CANCEL CODE                      3-3
003692 4040                        4693+         DC    C'  ' SYSLOG IDENTIFICATION            3-3
003694 00                          4694+         DC    X'00' NOP INSTRUCTION                  3-3
003695 000000                      4695+         DC    X'000000' POINTER TO SAVE AREA             3-3
003698 00                          4696+         DC    X'00' NUMBER OF CORE BLOCKS            3-3
003699 000000                      4697+         DC    X'000000' ORIGIN OF MAIN TASK              3-3
00369C 00                          4698+         DC    X'00' PUB ASSIGN FLAG MASK             3-3
00369D 00                          4699+         DC    X'00' USER LUB INDEX                   3-3
00369E 00                          4700+         DC    X'00' NUMBER OF LUBS                   3-3
00369F 00                          4701+         DC    X'00' MORE PIB FLAGS                   3-3

                                   4703+*  SUBTASK PIB FOR ASYNCHRONOUS PROCESSING                          3-3
0036A0 80                          4704+         DC    X'80' PIB FLAGS                        3-3
0036A1 00                          4705+         DC    X'00' CANCEL CODE                      3-3
0036A2 4040                        4706+         DC    C'  ' SYSLOG IDENTIFICATION                          3-7
0036A4 00                          4707+         DC    X'00' NOP INSTRUCTION                  3-3
0036A5 000000                      4708+         DC    X'000000' POINTER TO SAVE AREA             3-3
0036A8 00                          4709+         DC    X'00' NUMBER OF CORE BLOCKS            3-3
0036A9 000000                      4710+         DC    X'000000' ORIGIN OF MAIN TASK              3-3
0036AC 00                          4711+         DC    X'00' PUB ASSIGN FLAG MASK             3-3
0036AD 00                          4712+         DC    X'00' USER LUB INDEX                   3-3
       DOS SUPERVISOR - INPUT/OUTPUT TABLES                                                                    PAGE  110


  LOC  OBJECT CODE    ADDR1 ADDR2  STMT   SOURCE STATEMENT                                          FDOS CL3-10 03/29/70

0036AE 00                          4713+         DC    X'00' NUMBER OF LUBS                   3-3
0036AF 00                          4714+         DC    X'00' MORE PIB FLAGS                   3-3

                                   4716+*  SUBTASK PIB FOR ASYNCHRONOUS PROCESSING                          3-3
0036B0 80                          4717+         DC    X'80' PIB FLAGS                        3-3
0036B1 00                          4718+         DC    X'00' CANCEL CODE                      3-3
0036B2 4040                        4719+         DC    C'  ' SYSLOG IDENTIFICATION            3-3
0036B4 00                          4720+         DC    X'00' NOP INSTRUCTION                  3-3
0036B5 000000                      4721+         DC    X'000000' POINTER TO SAVE AREA             3-3
0036B8 00                          4722+         DC    X'00' NUMBER OF CORE BLOCKS            3-3
0036B9 000000                      4723+         DC    X'000000' ORIGIN OF MAIN TASK              3-3
0036BC 00                          4724+         DC    X'00' PUB ASSIGN FLAG MASK             3-3
0036BD 00                          4725+         DC    X'00' USER LUB INDEX                   3-3
0036BE 00                          4726+         DC    X'00' NUMBER OF LUBS                   3-3
0036BF 00                          4727+         DC    X'00' MORE PIB FLAGS                   3-3

                                   4729+*  SUBTASK PIB FOR ASYNCHRONOUS PROCESSING                          3-3
0036C0 80                          4730+         DC    X'80' PIB FLAGS                        3-3
0036C1 00                          4731+         DC    X'00' CANCEL CODE                      3-3
0036C2 4040                        4732+         DC    C'  ' SYSLOG IDENTIFICATION            3-3
0036C4 00                          4733+         DC    X'00' NOP INSTRUCTION                  3-3
0036C5 000000                      4734+         DC    X'000000' POINTER TO SAVE AREA             3-3
0036C8 00                          4735+         DC    X'00' NUMBER OF CORE BLOCKS            3-3
0036C9 000000                      4736+         DC    X'000000' ORIGIN OF MAIN TASK              3-3
0036CC 00                          4737+         DC    X'00' PUB ASSIGN FLAG MASK             3-3
0036CD 00                          4738+         DC    X'00' USER LUB INDEX                   3-3
0036CE 00                          4739+         DC    X'00' NUMBER OF LUBS                   3-3
0036CF 00                          4740+         DC    X'00' MORE PIB FLAGS                   3-3

                                   4742+*  SUBTASK PIB FOR ASYNCHRONOUS PROCESSING                          3-3
0036D0 80                          4743+         DC    X'80' PIB FLAGS                        3-3
0036D1 00                          4744+         DC    X'00' CANCEL CODE                      3-3
0036D2 4040                        4745+         DC    C'  ' SYSLOG IDENTIFICATION            3-3
0036D4 00                          4746+         DC    X'00' NOP INSTRUCTION                  3-3
0036D5 000000                      4747+         DC    X'000000' POINTER TO SAVE AREA             3-3
0036D8 00                          4748+         DC    X'00' NUMBER OF CORE BLOCKS            3-3
0036D9 000000                      4749+         DC    X'000000' ORIGIN OF MAIN TASK              3-3
0036DC 00                          4750+         DC    X'00' PUB ASSIGN FLAG MASK             3-3
0036DD 00                          4751+         DC    X'00' USER LUB INDEX                   3-3
0036DE 00                          4752+         DC    X'00' NUMBER OF LUBS                   3-3
0036DF 00                          4753+         DC    X'00' MORE PIB FLAGS                   3-3
0036E0                             4754+         DS    0H
0036E0                             4755+CHNPUBTB DS    0XL4 CHANN PUB PTER TBL ENTRY
0036E0 3A08                        4756+CHNPUBST DC    Y(PUBEND) 1ST ENTRY, PT TO LAST PUB START
0036E2 3A08                        4757+CHNPUB1  DC    Y(PUBEND) 1ST ENTRY, PT TO 1ST PUB ON CHN
0036E4 3A083A083A083A08            4758+         DC    12Y(PUBEND) REST OF TBL
0036FC 0000000000000000            4759+SPARMBG  DC    XL9'00' BG SYSPARM FIELD             3-9
003705 0000000000000000            4760+SPARMF2  DC    XL9'00' F2 SYSPARM FIELD             3-9
00370E 0000000000000000            4761+SPARMF1  DC    XL9'00' F1 SYSPARM FIELD             3-9
                                   4762+*
                                   4763+*      SVC INTERRUPT TABLE
       DOS SUPERVISOR - INPUT/OUTPUT TABLES                                                                    PAGE  111


  LOC  OBJECT CODE    ADDR1 ADDR2  STMT   SOURCE STATEMENT                                          FDOS CL3-10 03/29/70

003718                             4764+         DS    0Y
003716                             4765+SVCTAB   EQU   *-2
003718 2066                        4766+SVC0001  DC    Y(SVC01)
00371A 20CE                        4767+SVC0002  DC    Y(SVC02)
00371C 2242                        4768+SVC0003  DC    Y(SVC03)
00371E 2306                        4769+SVC0004  DC    Y(SVC04)
003720 22DE                        4770+SVC0005  DC    Y(SVC05)
003722 348A                        4771+SVC0006  DC    Y(SVC06) CANCEL MACRO                     3-3
003724 2324                        4772+SVC0007  DC    Y(SVC07)
003726 237C                        4773+SVC0008  DC    Y(SVC08)
003728 235C                        4774+SVC0009  DC    Y(SVC09)
00372A 248C                        4775+SVC010   DC    Y(SVC10)
00372C 2176                        4776+SVC011   DC    Y(SVC11)
00372E 239C                        4777+SVC012   DC    Y(SVC12)
003730 23B4                        4778+SVC013   DC    Y(SVC13)
003732 00E6                        4779+SVC014   DC    Y(ERR10)
003734 08E2                        4780+SVC015   DC    Y(SVC15)
003736 26B4                        4781+SVC016   DC    Y(SXTRT1) STXIT PC
003738 2674                        4782+SVC017   DC    Y(EXTRT1) EXIT  PC
00373A 26AA                        4783+SVC018   DC    Y(SVC18) STXIT IT
00373C 2670                        4784+SVC019   DC    Y(SVC19) EXIT IT
00373E 26B4                        4785+SVC020   DC    Y(SXTRT1) STXIT OC
003740 2674                        4786+SVC021   DC    Y(EXTRT1) EXIT  OC
003742 23CC                        4787+SVC022   DC    Y(SVC22)
003744 23EE                        4788+SVC023   DC    Y(SVC23)
003746 240A                        4789+SVC024   DC    Y(SVC24)
003748 08FA                        4790+SVC025   DC    Y(SVC25) HALT I/O
00374A 249E                        4791+SVC026   DC    Y(SVC26)
00374C 08FA                        4792+SVC027   DC    Y(SVC27)
00374E 00D6                        4793+SVC028   DC    Y(ERR21)
003750 24B8                        4794+SVC029   DC    Y(SVC29)
003752 00D600D600D6                4795+         DC    3Y(ERR21) QTAM SVC'S 30,31,32
003758 025A                        4796+         DC    Y(EXT01) COMRG SVC 33
00375A 025A                        4797+         DC    Y(EXT01) GETIME SVC 34
00375C 28F0                        4798+SVC035   DC    Y(SVC35) TRACK HOLD SVC                    3-3
00375E 2A3C                        4799+SVC036   DC    Y(SVC36) TRACK FREE SVC                   3-3
003760 3238                        4800+SVC037   DC    Y(SVC37) AB STXIT ROUTINE                  3-3
003762 2C68                        4801+SVC038   DC    Y(SVC38) ATTACH A SUBTASK                  3-3
003764 2DB6                        4802+SVC039   DC    Y(SVC39) DETACH A SUBTASK                 3-3
003766 2FD0                        4803+SVC040   DC    Y(SVC40) POST AN ECB                      3-3
003768 3130                        4804+SVC041   DC    Y(SVC41) DEQ A RESOURCE                   3-3
00376A 30C6                        4805+SVC042   DC    Y(SVC42) ENQ A RESOURCE                   3-3
00376C 00D600D6                    4806+         DC    2Y(ERR21) SVC'S 43-44                              3-3
003770 00D6                        4807+         DC    Y(ERR21) 3-3
003772 24E6                        4808+SVC046   DC    Y(SVC46) OLTEP SVC                        3-9
003774 00D6                        4809+SVC047   DC    Y(ERR21) 3-7
003776 00D600D600D6                4810+         DC    3Y(ERR21) ERROR SVC'S                  3-9
00377C 2700                        4811+SVC051   DC    Y(SVC51) OLTEP PHASE LENGTH SVC       3-9
00377E 272A                        4812+SVC052   DC    Y(SVC52) FORCE DEQUE SVC             3-10
003780                             4813+SVCTABND DS    0C
003780                             4814+         DS    0F 3-8
       DOS SUPERVISOR - INPUT/OUTPUT TABLES                                                                    PAGE  112


  LOC  OBJECT CODE    ADDR1 ADDR2  STMT   SOURCE STATEMENT                                          FDOS CL3-10 03/29/70

000030                             4815+TOTDVC   EQU   48 TOTAL DEVICES GENERATED
000008                             4816+TOTTAP   EQU   8 TOTAL TAPES GENERATED
003780                             4817+CHANQ    DS    0CL4 ORIGIN OF THE CNQUE CCB LIST
000020                             4818+TOTCHQ   EQU   32 TOTAL CHNL QUE ENTRIES
003780 01                          4819+         DC    AL1(TOTCHQ-31) CCB QUE CHAIN POINTER
003781 000000                      4820+         DC    3X'00' CCB QUE POINTER
003784 02                          4821+         DC    AL1(TOTCHQ-30) CCB QUE CHAIN POINTER
003785 000000                      4822+         DC    3X'00' CCB QUE POINTER
003788 03                          4823+         DC    AL1(TOTCHQ-29) CCB QUE CHAIN POINTER
003789 000000                      4824+         DC    3X'00' CCB QUE POINTER
00378C 04                          4825+         DC    AL1(TOTCHQ-28) CCB QUE CHAIN POINTER
00378D 000000                      4826+         DC    3X'00' CCB QUE POINTER
003790 05                          4827+         DC    AL1(TOTCHQ-27) CCB QUE CHAIN POINTER
003791 000000                      4828+         DC    3X'00' CCB QUE POINTER
003794 06                          4829+         DC    AL1(TOTCHQ-26) CCB QUE CHAIN POINTER
003795 000000                      4830+         DC    3X'00' CCB QUE POINTER
003798 07                          4831+         DC    AL1(TOTCHQ-25) CCB QUE CHAIN POINTER
003799 000000                      4832+         DC    3X'00' CCB QUE POINTER
00379C 08                          4833+         DC    AL1(TOTCHQ-24) CCB QUE CHAIN POINTER
00379D 000000                      4834+         DC    3X'00' CCB QUE POINTER
0037A0 09                          4835+         DC    AL1(TOTCHQ-23) CCB QUE CHAIN POINTER
0037A1 000000                      4836+         DC    3X'00' CCB QUE POINTER
0037A4 0A                          4837+         DC    AL1(TOTCHQ-22) CCB QUE CHAIN POINTER
0037A5 000000                      4838+         DC    3X'00' CCB QUE POINTER
0037A8 0B                          4839+         DC    AL1(TOTCHQ-21) CCB QUE CHAIN POINTER
0037A9 000000                      4840+         DC    3X'00' CCB QUE POINTER
0037AC 0C                          4841+         DC    AL1(TOTCHQ-20) CCB QUE CHAIN POINTER
0037AD 000000                      4842+         DC    3X'00' CCB QUE POINTER
0037B0 0D                          4843+         DC    AL1(TOTCHQ-19) CCB QUE CHAIN POINTER
0037B1 000000                      4844+         DC    3X'00' CCB QUE POINTER
0037B4 0E                          4845+         DC    AL1(TOTCHQ-18) CCB QUE CHAIN POINTER
0037B5 000000                      4846+         DC    3X'00' CCB QUE POINTER
0037B8 0F                          4847+         DC    AL1(TOTCHQ-17) CCB QUE CHAIN POINTER
0037B9 000000                      4848+         DC    3X'00' CCB QUE POINTER
0037BC 10                          4849+         DC    AL1(TOTCHQ-16) CCB QUE CHAIN POINTER
0037BD 000000                      4850+         DC    3X'00' CCB QUE POINTER
0037C0 11                          4851+         DC    AL1(TOTCHQ-15) CCB QUE CHAIN POINTER
0037C1 000000                      4852+         DC    3X'00' CCB QUE POINTER
0037C4 12                          4853+         DC    AL1(TOTCHQ-14) CCB QUE CHAIN POINTER
0037C5 000000                      4854+         DC    3X'00' CCB QUE POINTER
0037C8 13                          4855+         DC    AL1(TOTCHQ-13) CCB QUE CHAIN POINTER
0037C9 000000                      4856+         DC    3X'00' CCB QUE POINTER
0037CC 14                          4857+         DC    AL1(TOTCHQ-12) CCB QUE CHAIN POINTER
0037CD 000000                      4858+         DC    3X'00' CCB QUE POINTER
0037D0 15                          4859+         DC    AL1(TOTCHQ-11) CCB QUE CHAIN POINTER
0037D1 000000                      4860+         DC    3X'00' CCB QUE POINTER
0037D4 16                          4861+         DC    AL1(TOTCHQ-10) CCB QUE CHAIN POINTER
0037D5 000000                      4862+         DC    3X'00' CCB QUE POINTER
0037D8 17                          4863+         DC    AL1(TOTCHQ-9) CCB QUE CHAIN POINTER
0037D9 000000                      4864+         DC    3X'00' CCB QUE POINTER
0037DC 18                          4865+         DC    AL1(TOTCHQ-8) CCB QUE CHAIN POINTER
       DOS SUPERVISOR - INPUT/OUTPUT TABLES                                                                    PAGE  113


  LOC  OBJECT CODE    ADDR1 ADDR2  STMT   SOURCE STATEMENT                                          FDOS CL3-10 03/29/70

0037DD 000000                      4866+         DC    3X'00' CCB QUE POINTER
0037E0 19                          4867+         DC    AL1(TOTCHQ-7) CCB QUE CHAIN POINTER
0037E1 000000                      4868+         DC    3X'00' CCB QUE POINTER
0037E4 1A                          4869+         DC    AL1(TOTCHQ-6) CCB QUE CHAIN POINTER
0037E5 000000                      4870+         DC    3X'00' CCB QUE POINTER
0037E8 1B                          4871+         DC    AL1(TOTCHQ-5) CCB QUE CHAIN POINTER
0037E9 000000                      4872+         DC    3X'00' CCB QUE POINTER
0037EC 1C                          4873+         DC    AL1(TOTCHQ-4) CCB QUE CHAIN POINTER
0037ED 000000                      4874+         DC    3X'00' CCB QUE POINTER
0037F0 1D                          4875+         DC    AL1(TOTCHQ-3) CCB QUE CHAIN POINTER
0037F1 000000                      4876+         DC    3X'00' CCB QUE POINTER
0037F4 1E                          4877+         DC    AL1(TOTCHQ-2) CCB QUE CHAIN POINTER
0037F5 000000                      4878+         DC    3X'00' CCB QUE POINTER
0037F8 1F                          4879+         DC    AL1(TOTCHQ-1) CCB QUE CHAIN POINTER
0037F9 000000                      4880+         DC    3X'00' CCB QUE POINTER
0037FC FF000000                    4881+         DC    X'FF000000' LAST CCB QUE ENTRY
003800 0000000000000000            4882+LUBIDTAB DC    32X'00' *****
003820                             4883+ORGLUB   DS    0C
00044E                             4884+         ORG   LTHIDQ
00044E 0020                        4885+         DC    AL2(32)
003820                             4886+         ORG   ORGLUB
003820 FFFFFFFFFFFFFFFF            4887+REQIDTAB DC    32X'FF' *****
003840 FFFFFFFFFFFFFFFF            4888+LUBDSPTB DC    32X'FF'
003860 FFFFFFFFFFFFFFFF            4889+TSKIDTAB DC    32X'FF' TASK I/O IDENTIFIER TABLE        3-3
003880                             4890+         DS    0H
003880 00                          4891+         DC    X'0'
003881                             4892+FOCL     DS    0CL7 FOCL-USED TO MAP PUBS
003881 FFFFFFFFFFFFFF              4893+         DC    7X'FF'
003888                             4894+PUBTAB   DS    0CL8 TABLE OF UNASSIGNED PUBS
003888 FF00000000000000            4895+         DC    48X'FF00000000000000'
003A08 FF                          4896+STOPPR   DC    X'FF' PUB STOP BYTE
003A08                             4897+PUBEND   EQU   PUBTAB+L'PUBTAB*TOTDVC ADDR OF END OF PUB TABLE
00388F                             4898+JCLBGN   EQU   PUBTAB+7 ADDR OF FIRST JOB CTL PUB FLAG
003A09 00                          4899+FAVP     DC    X'00' FIRST AVAIL PTR FOR JIBS
003A0A                             4900+JIBTAB   DS    0CL4 ORIGIN OF JIB TABLES
000080                             4901+TOTJIB   EQU   128 TOTAL NO. OF JIBS
003A0A 000000                      4902+         DC    3X'00'
003A0D 01                          4903+         DC    AL1(TOTJIB-127)
003A0E 000000                      4904+         DC    3X'00'
003A11 02                          4905+         DC    AL1(TOTJIB-126)
003A12 000000                      4906+         DC    3X'00'
003A15 03                          4907+         DC    AL1(TOTJIB-125)
003A16 000000                      4908+         DC    3X'00'
003A19 04                          4909+         DC    AL1(TOTJIB-124)
003A1A 000000                      4910+         DC    3X'00'
003A1D 05                          4911+         DC    AL1(TOTJIB-123)
003A1E 000000                      4912+         DC    3X'00'
003A21 06                          4913+         DC    AL1(TOTJIB-122)
003A22 000000                      4914+         DC    3X'00'
003A25 07                          4915+         DC    AL1(TOTJIB-121)
003A26 000000                      4916+         DC    3X'00'
       DOS SUPERVISOR - INPUT/OUTPUT TABLES                                                                    PAGE  114


  LOC  OBJECT CODE    ADDR1 ADDR2  STMT   SOURCE STATEMENT                                          FDOS CL3-10 03/29/70

003A29 08                          4917+         DC    AL1(TOTJIB-120)
003A2A 000000                      4918+         DC    3X'00'
003A2D 09                          4919+         DC    AL1(TOTJIB-119)
003A2E 000000                      4920+         DC    3X'00'
003A31 0A                          4921+         DC    AL1(TOTJIB-118)
003A32 000000                      4922+         DC    3X'00'
003A35 0B                          4923+         DC    AL1(TOTJIB-117)
003A36 000000                      4924+         DC    3X'00'
003A39 0C                          4925+         DC    AL1(TOTJIB-116)
003A3A 000000                      4926+         DC    3X'00'
003A3D 0D                          4927+         DC    AL1(TOTJIB-115)
003A3E 000000                      4928+         DC    3X'00'
003A41 0E                          4929+         DC    AL1(TOTJIB-114)
003A42 000000                      4930+         DC    3X'00'
003A45 0F                          4931+         DC    AL1(TOTJIB-113)
003A46 000000                      4932+         DC    3X'00'
003A49 10                          4933+         DC    AL1(TOTJIB-112)
003A4A 000000                      4934+         DC    3X'00'
003A4D 11                          4935+         DC    AL1(TOTJIB-111)
003A4E 000000                      4936+         DC    3X'00'
003A51 12                          4937+         DC    AL1(TOTJIB-110)
003A52 000000                      4938+         DC    3X'00'
003A55 13                          4939+         DC    AL1(TOTJIB-109)
003A56 000000                      4940+         DC    3X'00'
003A59 14                          4941+         DC    AL1(TOTJIB-108)
003A5A 000000                      4942+         DC    3X'00'
003A5D 15                          4943+         DC    AL1(TOTJIB-107)
003A5E 000000                      4944+         DC    3X'00'
003A61 16                          4945+         DC    AL1(TOTJIB-106)
003A62 000000                      4946+         DC    3X'00'
003A65 17                          4947+         DC    AL1(TOTJIB-105)
003A66 000000                      4948+         DC    3X'00'
003A69 18                          4949+         DC    AL1(TOTJIB-104)
003A6A 000000                      4950+         DC    3X'00'
003A6D 19                          4951+         DC    AL1(TOTJIB-103)
003A6E 000000                      4952+         DC    3X'00'
003A71 1A                          4953+         DC    AL1(TOTJIB-102)
003A72 000000                      4954+         DC    3X'00'
003A75 1B                          4955+         DC    AL1(TOTJIB-101)
003A76 000000                      4956+         DC    3X'00'
003A79 1C                          4957+         DC    AL1(TOTJIB-100)
003A7A 000000                      4958+         DC    3X'00'
003A7D 1D                          4959+         DC    AL1(TOTJIB-99)
003A7E 000000                      4960+         DC    3X'00'
003A81 1E                          4961+         DC    AL1(TOTJIB-98)
003A82 000000                      4962+         DC    3X'00'
003A85 1F                          4963+         DC    AL1(TOTJIB-97)
003A86 000000                      4964+         DC    3X'00'
003A89 20                          4965+         DC    AL1(TOTJIB-96)
003A8A 000000                      4966+         DC    3X'00'
003A8D 21                          4967+         DC    AL1(TOTJIB-95)
       DOS SUPERVISOR - INPUT/OUTPUT TABLES                                                                    PAGE  115


  LOC  OBJECT CODE    ADDR1 ADDR2  STMT   SOURCE STATEMENT                                          FDOS CL3-10 03/29/70

003A8E 000000                      4968+         DC    3X'00'
003A91 22                          4969+         DC    AL1(TOTJIB-94)
003A92 000000                      4970+         DC    3X'00'
003A95 23                          4971+         DC    AL1(TOTJIB-93)
003A96 000000                      4972+         DC    3X'00'
003A99 24                          4973+         DC    AL1(TOTJIB-92)
003A9A 000000                      4974+         DC    3X'00'
003A9D 25                          4975+         DC    AL1(TOTJIB-91)
003A9E 000000                      4976+         DC    3X'00'
003AA1 26                          4977+         DC    AL1(TOTJIB-90)
003AA2 000000                      4978+         DC    3X'00'
003AA5 27                          4979+         DC    AL1(TOTJIB-89)
003AA6 000000                      4980+         DC    3X'00'
003AA9 28                          4981+         DC    AL1(TOTJIB-88)
003AAA 000000                      4982+         DC    3X'00'
003AAD 29                          4983+         DC    AL1(TOTJIB-87)
003AAE 000000                      4984+         DC    3X'00'
003AB1 2A                          4985+         DC    AL1(TOTJIB-86)
003AB2 000000                      4986+         DC    3X'00'
003AB5 2B                          4987+         DC    AL1(TOTJIB-85)
003AB6 000000                      4988+         DC    3X'00'
003AB9 2C                          4989+         DC    AL1(TOTJIB-84)
003ABA 000000                      4990+         DC    3X'00'
003ABD 2D                          4991+         DC    AL1(TOTJIB-83)
003ABE 000000                      4992+         DC    3X'00'
003AC1 2E                          4993+         DC    AL1(TOTJIB-82)
003AC2 000000                      4994+         DC    3X'00'
003AC5 2F                          4995+         DC    AL1(TOTJIB-81)
003AC6 000000                      4996+         DC    3X'00'
003AC9 30                          4997+         DC    AL1(TOTJIB-80)
003ACA 000000                      4998+         DC    3X'00'
003ACD 31                          4999+         DC    AL1(TOTJIB-79)
003ACE 000000                      5000+         DC    3X'00'
003AD1 32                          5001+         DC    AL1(TOTJIB-78)
003AD2 000000                      5002+         DC    3X'00'
003AD5 33                          5003+         DC    AL1(TOTJIB-77)
003AD6 000000                      5004+         DC    3X'00'
003AD9 34                          5005+         DC    AL1(TOTJIB-76)
003ADA 000000                      5006+         DC    3X'00'
003ADD 35                          5007+         DC    AL1(TOTJIB-75)
003ADE 000000                      5008+         DC    3X'00'
003AE1 36                          5009+         DC    AL1(TOTJIB-74)
003AE2 000000                      5010+         DC    3X'00'
003AE5 37                          5011+         DC    AL1(TOTJIB-73)
003AE6 000000                      5012+         DC    3X'00'
003AE9 38                          5013+         DC    AL1(TOTJIB-72)
003AEA 000000                      5014+         DC    3X'00'
003AED 39                          5015+         DC    AL1(TOTJIB-71)
003AEE 000000                      5016+         DC    3X'00'
003AF1 3A                          5017+         DC    AL1(TOTJIB-70)
003AF2 000000                      5018+         DC    3X'00'
       DOS SUPERVISOR - INPUT/OUTPUT TABLES                                                                    PAGE  116


  LOC  OBJECT CODE    ADDR1 ADDR2  STMT   SOURCE STATEMENT                                          FDOS CL3-10 03/29/70

003AF5 3B                          5019+         DC    AL1(TOTJIB-69)
003AF6 000000                      5020+         DC    3X'00'
003AF9 3C                          5021+         DC    AL1(TOTJIB-68)
003AFA 000000                      5022+         DC    3X'00'
003AFD 3D                          5023+         DC    AL1(TOTJIB-67)
003AFE 000000                      5024+         DC    3X'00'
003B01 3E                          5025+         DC    AL1(TOTJIB-66)
003B02 000000                      5026+         DC    3X'00'
003B05 3F                          5027+         DC    AL1(TOTJIB-65)
003B06 000000                      5028+         DC    3X'00'
003B09 40                          5029+         DC    AL1(TOTJIB-64)
003B0A 000000                      5030+         DC    3X'00'
003B0D 41                          5031+         DC    AL1(TOTJIB-63)
003B0E 000000                      5032+         DC    3X'00'
003B11 42                          5033+         DC    AL1(TOTJIB-62)
003B12 000000                      5034+         DC    3X'00'
003B15 43                          5035+         DC    AL1(TOTJIB-61)
003B16 000000                      5036+         DC    3X'00'
003B19 44                          5037+         DC    AL1(TOTJIB-60)
003B1A 000000                      5038+         DC    3X'00'
003B1D 45                          5039+         DC    AL1(TOTJIB-59)
003B1E 000000                      5040+         DC    3X'00'
003B21 46                          5041+         DC    AL1(TOTJIB-58)
003B22 000000                      5042+         DC    3X'00'
003B25 47                          5043+         DC    AL1(TOTJIB-57)
003B26 000000                      5044+         DC    3X'00'
003B29 48                          5045+         DC    AL1(TOTJIB-56)
003B2A 000000                      5046+         DC    3X'00'
003B2D 49                          5047+         DC    AL1(TOTJIB-55)
003B2E 000000                      5048+         DC    3X'00'
003B31 4A                          5049+         DC    AL1(TOTJIB-54)
003B32 000000                      5050+         DC    3X'00'
003B35 4B                          5051+         DC    AL1(TOTJIB-53)
003B36 000000                      5052+         DC    3X'00'
003B39 4C                          5053+         DC    AL1(TOTJIB-52)
003B3A 000000                      5054+         DC    3X'00'
003B3D 4D                          5055+         DC    AL1(TOTJIB-51)
003B3E 000000                      5056+         DC    3X'00'
003B41 4E                          5057+         DC    AL1(TOTJIB-50)
003B42 000000                      5058+         DC    3X'00'
003B45 4F                          5059+         DC    AL1(TOTJIB-49)
003B46 000000                      5060+         DC    3X'00'
003B49 50                          5061+         DC    AL1(TOTJIB-48)
003B4A 000000                      5062+         DC    3X'00'
003B4D 51                          5063+         DC    AL1(TOTJIB-47)
003B4E 000000                      5064+         DC    3X'00'
003B51 52                          5065+         DC    AL1(TOTJIB-46)
003B52 000000                      5066+         DC    3X'00'
003B55 53                          5067+         DC    AL1(TOTJIB-45)
003B56 000000                      5068+         DC    3X'00'
003B59 54                          5069+         DC    AL1(TOTJIB-44)
       DOS SUPERVISOR - INPUT/OUTPUT TABLES                                                                    PAGE  117


  LOC  OBJECT CODE    ADDR1 ADDR2  STMT   SOURCE STATEMENT                                          FDOS CL3-10 03/29/70

003B5A 000000                      5070+         DC    3X'00'
003B5D 55                          5071+         DC    AL1(TOTJIB-43)
003B5E 000000                      5072+         DC    3X'00'
003B61 56                          5073+         DC    AL1(TOTJIB-42)
003B62 000000                      5074+         DC    3X'00'
003B65 57                          5075+         DC    AL1(TOTJIB-41)
003B66 000000                      5076+         DC    3X'00'
003B69 58                          5077+         DC    AL1(TOTJIB-40)
003B6A 000000                      5078+         DC    3X'00'
003B6D 59                          5079+         DC    AL1(TOTJIB-39)
003B6E 000000                      5080+         DC    3X'00'
003B71 5A                          5081+         DC    AL1(TOTJIB-38)
003B72 000000                      5082+         DC    3X'00'
003B75 5B                          5083+         DC    AL1(TOTJIB-37)
003B76 000000                      5084+         DC    3X'00'
003B79 5C                          5085+         DC    AL1(TOTJIB-36)
003B7A 000000                      5086+         DC    3X'00'
003B7D 5D                          5087+         DC    AL1(TOTJIB-35)
003B7E 000000                      5088+         DC    3X'00'
003B81 5E                          5089+         DC    AL1(TOTJIB-34)
003B82 000000                      5090+         DC    3X'00'
003B85 5F                          5091+         DC    AL1(TOTJIB-33)
003B86 000000                      5092+         DC    3X'00'
003B89 60                          5093+         DC    AL1(TOTJIB-32)
003B8A 000000                      5094+         DC    3X'00'
003B8D 61                          5095+         DC    AL1(TOTJIB-31)
003B8E 000000                      5096+         DC    3X'00'
003B91 62                          5097+         DC    AL1(TOTJIB-30)
003B92 000000                      5098+         DC    3X'00'
003B95 63                          5099+         DC    AL1(TOTJIB-29)
003B96 000000                      5100+         DC    3X'00'
003B99 64                          5101+         DC    AL1(TOTJIB-28)
003B9A 000000                      5102+         DC    3X'00'
003B9D 65                          5103+         DC    AL1(TOTJIB-27)
003B9E 000000                      5104+         DC    3X'00'
003BA1 66                          5105+         DC    AL1(TOTJIB-26)
003BA2 000000                      5106+         DC    3X'00'
003BA5 67                          5107+         DC    AL1(TOTJIB-25)
003BA6 000000                      5108+         DC    3X'00'
003BA9 68                          5109+         DC    AL1(TOTJIB-24)
003BAA 000000                      5110+         DC    3X'00'
003BAD 69                          5111+         DC    AL1(TOTJIB-23)
003BAE 000000                      5112+         DC    3X'00'
003BB1 6A                          5113+         DC    AL1(TOTJIB-22)
003BB2 000000                      5114+         DC    3X'00'
003BB5 6B                          5115+         DC    AL1(TOTJIB-21)
003BB6 000000                      5116+         DC    3X'00'
003BB9 6C                          5117+         DC    AL1(TOTJIB-20)
003BBA 000000                      5118+         DC    3X'00'
003BBD 6D                          5119+         DC    AL1(TOTJIB-19)
003BBE 000000                      5120+         DC    3X'00'
       DOS SUPERVISOR - INPUT/OUTPUT TABLES                                                                    PAGE  118


  LOC  OBJECT CODE    ADDR1 ADDR2  STMT   SOURCE STATEMENT                                          FDOS CL3-10 03/29/70

003BC1 6E                          5121+         DC    AL1(TOTJIB-18)
003BC2 000000                      5122+         DC    3X'00'
003BC5 6F                          5123+         DC    AL1(TOTJIB-17)
003BC6 000000                      5124+         DC    3X'00'
003BC9 70                          5125+         DC    AL1(TOTJIB-16)
003BCA 000000                      5126+         DC    3X'00'
003BCD 71                          5127+         DC    AL1(TOTJIB-15)
003BCE 000000                      5128+         DC    3X'00'
003BD1 72                          5129+         DC    AL1(TOTJIB-14)
003BD2 000000                      5130+         DC    3X'00'
003BD5 73                          5131+         DC    AL1(TOTJIB-13)
003BD6 000000                      5132+         DC    3X'00'
003BD9 74                          5133+         DC    AL1(TOTJIB-12)
003BDA 000000                      5134+         DC    3X'00'
003BDD 75                          5135+         DC    AL1(TOTJIB-11)
003BDE 000000                      5136+         DC    3X'00'
003BE1 76                          5137+         DC    AL1(TOTJIB-10)
003BE2 000000                      5138+         DC    3X'00'
003BE5 77                          5139+         DC    AL1(TOTJIB-9)
003BE6 000000                      5140+         DC    3X'00'
003BE9 78                          5141+         DC    AL1(TOTJIB-8)
003BEA 000000                      5142+         DC    3X'00'
003BED 79                          5143+         DC    AL1(TOTJIB-7)
003BEE 000000                      5144+         DC    3X'00'
003BF1 7A                          5145+         DC    AL1(TOTJIB-6)
003BF2 000000                      5146+         DC    3X'00'
003BF5 7B                          5147+         DC    AL1(TOTJIB-5)
003BF6 000000                      5148+         DC    3X'00'
003BF9 7C                          5149+         DC    AL1(TOTJIB-4)
003BFA 000000                      5150+         DC    3X'00'
003BFD 7D                          5151+         DC    AL1(TOTJIB-3)
003BFE 000000                      5152+         DC    3X'00'
003C01 7E                          5153+         DC    AL1(TOTJIB-2)
003C02 000000                      5154+         DC    3X'00'
003C05 7F                          5155+         DC    AL1(TOTJIB-1)
003C06 000000FF                    5156+         DC    X'000000FF' LAST JIB
003C0A 0008                        5157+         DC    AL2(8) NUMBER OF TEBS OR TEBVS      3-7
003C0C                             5158+TEBTAB   DS    0CL6 ORIGIN OF TEB TABLES
003C0C FF0000000000FF00            5159+         DC    8X'FF0000000000'
                                   5160+***            EQU MAP OF IO TABLES                                 ***
                                   5161+*360N-CL-453 LUBGEN   CHANGE LEVEL  3-11                           3-11
003C3C                             5162+FICL     DS    0CL4 FIRST IN CLASS LIST
003C3C 00                          5163+         DC    AL1(0)
003C3D 0B                          5164+         DC    AL1(11)
003C3E 36                          5165+         DC    AL1(54)
003C3F 61                          5166+         DC    AL1(97)
003C40                             5167+NICL     DS    0CL4 NUMBER IN CLASS LIST
003C40 0B                          5168+         DC    AL1(11)
003C41 20                          5169+         DC    AL1(32)
003C42 20                          5170+         DC    AL1(32)
003C43 20                          5171+         DC    AL1(32)
       DOS SUPERVISOR - INPUT/OUTPUT TABLES                                                                    PAGE  119


  LOC  OBJECT CODE    ADDR1 ADDR2  STMT   SOURCE STATEMENT                                          FDOS CL3-10 03/29/70

003C44                             5172+LUBTAB   DS    0CL2 ORIGIN OF LUB TABLE
003C44 FFFFFFFFFFFFFFFF            5173+SYSLUB   DC    11X'FFFF' NULL SYSTEM LUBS
003C5A FFFFFFFFFFFFFFFF            5174+PGRLUB   DC    32X'FFFF' NULL BG PROGRAMMER LUBS
003C9A FFFFFFFFFFFFFFFF            5175+F2LUB    DC    43X'FFFF' NULL FOREGROUND TWO LUBS
003CF0 FFFFFFFFFFFFFFFF            5176+F1LUB    DC    43X'FFFF' NULL FOREGROUND ONE LUBS
000008                             5177+THETNUM  EQU   8 3-3
003D46 0700                        5178+         CNOP  0,4 3-11
003D48 0000                        5179+         DC    H'0' 3-11
003D4A 0008                        5180+         DC    H'8' NUMBER OF TRACK HOLD ENTRIES      3-3
003D4C                             5181+TKHDTAB  DS    0CL12 TRACK HOLD TABLE                  3-3
003D4C 01                          5182+         DC    AL1(THETNUM-7) TRACK HOLD POINTER FOR DEVICE     3-3
003D4D 0000000000000000            5183+         DC    11X'00' TRACK HOLD ENTRY                  3-3
003D58 02                          5184+         DC    AL1(THETNUM-6) TRACK HOLD POINTER FOR DEVICE     3-3
003D59 0000000000000000            5185+         DC    11X'00' TRACK HOLD ENTRY                  3-3
003D64 03                          5186+         DC    AL1(THETNUM-5) TRACK HOLD POINTER FOR DEVICE     3-3
003D65 0000000000000000            5187+         DC    11X'00' TRACK HOLD ENTRY                  3-3
003D70 04                          5188+         DC    AL1(THETNUM-4) TRACK HOLD POINTER FOR DEVICE     3-3
003D71 0000000000000000            5189+         DC    11X'00' TRACK HOLD ENTRY                  3-3
003D7C 05                          5190+         DC    AL1(THETNUM-3) TRACK HOLD POINTER FOR DEVICE     3-3
003D7D 0000000000000000            5191+         DC    11X'00' TRACK HOLD ENTRY                  3-3
003D88 06                          5192+         DC    AL1(THETNUM-2) TRACK HOLD POINTER FOR DEVICE     3-3
003D89 0000000000000000            5193+         DC    11X'00' TRACK HOLD ENTRY                  3-3
003D94 07                          5194+         DC    AL1(THETNUM-1) TRACK HOLD POINTER FOR DEVICE     3-3
003D95 0000000000000000            5195+         DC    11X'00' TRACK HOLD ENTRY                  3-3
003DA0 FF                          5196+         DC    X'FF' LAST TRACK HOLD                   3-3
003DA1 0000000000000000            5197+         DC    11X'00' TABLE ENTRY                       3-3
003DAC                             5198+IOTEND   DS    0C END OF NULL I/O TABLES
                                   5199+*      SYSTEM CLASS LOGICAL UNIT NAMES
000000                             5200+SYSRDR   EQU   X'0000'
000001                             5201+SYSIPT   EQU   X'0001'
000002                             5202+SYSPCH   EQU   X'0002'
000003                             5203+SYSLST   EQU   X'0003'
000004                             5204+SYSLOG   EQU   X'0004'
000005                             5205+SYSLNK   EQU   X'0005'
000006                             5206+SYSRES   EQU   X'0006'
000007                             5207+SYSSLB   EQU   X'0007'
000008                             5208+SYSRLB   EQU   X'0008'
000009                             5209+SYSUSE   EQU   X'0009'
00000A                             5210+SYSREC   EQU   X'000A' 3-5
00000B                             5211+SYSCLB   EQU   X'000B' .           PRIVATE CORE IMAGE LIBRARY       3-9


                                   5213 * BG PARTITION UNIT RECORD DEVICES
                                   5214          DVCGEN CHUN=X'00C',DVCTYP=2501
                                   5215+*360N-CL-453 DVCGEN    CHANGE LEVEL 3-11                           3-11
003881                             5216+         ORG   FOCL+0 ORG TO FOCL BYTE FOR CHANNEL
003881 00                          5217+         DC    AL1(TOTDVC-48) FOCL ENTRY FOR CHANNEL
0036E0                             5218+         ORG   CHNPUBTB+L'CHNPUBTB*0
0036E0 3888                        5219+         DC    Y(PUBEND-L'PUBTAB*48)
0036E2 3888                        5220+         DC    Y(PUBEND-L'PUBTAB*48)
003888                             5221+         ORG   PUBEND-L'PUBTAB*48 RESET ORIGIN TO PUB TABLE
       DOS SUPERVISOR - INPUT/OUTPUT TABLES                                                                    PAGE  120


  LOC  OBJECT CODE    ADDR1 ADDR2  STMT   SOURCE STATEMENT                                          FDOS CL3-10 03/29/70

                                   5222+         DC    X'000C' "HAN AND UNIT BYTES OF PUB, IF ERROR IN ASSEM  XX
003888 000C                            +               'CUU' IS IN ERROR.
00388A FF                          5223+         DC    X'FF' CHNL QUE POINTER
00388B 00                          5224+         DC    X'00' PUB ERROR BYTE
                                   5225+         DC    AL1(T2501) DEVICE TYPE BYTE,IF THIS ASSEMBLES IN ERROR, X
00388C 10                              +               'DVCTYP' IS INVALID.
0000F8                             5226+MRD00C   EQU   X'F8' MODE FLAGS
00388D 00                          5227+         DC    X'00' 3-4
                                   5228+         DC    AL1(M2501+64*0) CHANNEL SCHEDULER FLAGS, IF ASSEMBLES INX
00388E 00                              +                ERROR, 'DVCTYP' IS INCORRECT.
00388F F8                          5229+         DC    AL1(MRD00C) JOB CONTROL FLAGS
000000                             5230+P00C     EQU   TOTDVC-48 PUB NUMBERS FOR STD ASSIGNMENTS
                                   5231          DVCGEN CHUN=X'00D',DVCTYP=2540P
                                   5232+*360N-CL-453 DVCGEN    CHANGE LEVEL 3-11                           3-11
                                   5233+         DC    X'000D' "HAN AND UNIT BYTES OF PUB, IF ERROR IN ASSEM  XX
003890 000D                            +               'CUU' IS IN ERROR.
003892 FF                          5234+         DC    X'FF' CHNL QUE POINTER
003893 00                          5235+         DC    X'00' PUB ERROR BYTE
                                   5236+         DC    AL1(T2540P) DEVICE TYPE BYTE,IF THIS ASSEMBLES IN ERROR,X
003894 21                              +                'DVCTYP' IS INVALID.
0000F8                             5237+MRD00D   EQU   X'F8' MODE FLAGS
003895 00                          5238+         DC    X'00' 3-4
                                   5239+         DC    AL1(M2540P+64*0) CHANNEL SCHEDULER FLAGS, IF ASSEMBLES IX
003896 00                              +               N ERROR, 'DVCTYP' IS INCORRECT.
003897 F8                          5240+         DC    AL1(MRD00D) JOB CONTROL FLAGS
000001                             5241+P00D     EQU   TOTDVC-47 PUB NUMBERS FOR STD ASSIGNMENTS
                                   5242          DVCGEN CHUN=X'00E',DVCTYP=1403
                                   5243+*360N-CL-453 DVCGEN    CHANGE LEVEL 3-11                           3-11
                                   5244+         DC    X'000E' "HAN AND UNIT BYTES OF PUB, IF ERROR IN ASSEM  XX
003898 000E                            +               'CUU' IS IN ERROR.
00389A FF                          5245+         DC    X'FF' CHNL QUE POINTER
00389B 00                          5246+         DC    X'00' PUB ERROR BYTE
                                   5247+         DC    AL1(T1403) DEVICE TYPE BYTE,IF THIS ASSEMBLES IN ERROR, X
00389C 40                              +               'DVCTYP' IS INVALID.
0000F8                             5248+MRD00E   EQU   X'F8' MODE FLAGS
00389D 00                          5249+         DC    X'00' 3-4
                                   5250+         DC    AL1(M1403+64*0) CHANNEL SCHEDULER FLAGS, IF ASSEMBLES INX
00389E 00                              +                ERROR, 'DVCTYP' IS INCORRECT.
00389F F8                          5251+         DC    AL1(MRD00E) JOB CONTROL FLAGS
000002                             5252+P00E     EQU   TOTDVC-46 PUB NUMBERS FOR STD ASSIGNMENTS


                                   5254 * F1 PARTITION UNIT RECORD DEVICES
                                   5255          DVCGEN CHUN=X'01C',DVCTYP=2501
                                   5256+*360N-CL-453 DVCGEN    CHANGE LEVEL 3-11                           3-11
                                   5257+         DC    X'001C' "HAN AND UNIT BYTES OF PUB, IF ERROR IN ASSEM  XX
0038A0 001C                            +               'CUU' IS IN ERROR.
0038A2 FF                          5258+         DC    X'FF' CHNL QUE POINTER
0038A3 00                          5259+         DC    X'00' PUB ERROR BYTE
                                   5260+         DC    AL1(T2501) DEVICE TYPE BYTE,IF THIS ASSEMBLES IN ERROR, X
0038A4 10                              +               'DVCTYP' IS INVALID.
       DOS SUPERVISOR - INPUT/OUTPUT TABLES                                                                    PAGE  121


  LOC  OBJECT CODE    ADDR1 ADDR2  STMT   SOURCE STATEMENT                                          FDOS CL3-10 03/29/70

0000F8                             5261+MRD01C   EQU   X'F8' MODE FLAGS
0038A5 00                          5262+         DC    X'00' 3-4
                                   5263+         DC    AL1(M2501+64*0) CHANNEL SCHEDULER FLAGS, IF ASSEMBLES INX
0038A6 00                              +                ERROR, 'DVCTYP' IS INCORRECT.
0038A7 F8                          5264+         DC    AL1(MRD01C) JOB CONTROL FLAGS
000003                             5265+P01C     EQU   TOTDVC-45 PUB NUMBERS FOR STD ASSIGNMENTS
                                   5266          DVCGEN CHUN=X'01D',DVCTYP=2540P
                                   5267+*360N-CL-453 DVCGEN    CHANGE LEVEL 3-11                           3-11
                                   5268+         DC    X'001D' "HAN AND UNIT BYTES OF PUB, IF ERROR IN ASSEM  XX
0038A8 001D                            +               'CUU' IS IN ERROR.
0038AA FF                          5269+         DC    X'FF' CHNL QUE POINTER
0038AB 00                          5270+         DC    X'00' PUB ERROR BYTE
                                   5271+         DC    AL1(T2540P) DEVICE TYPE BYTE,IF THIS ASSEMBLES IN ERROR,X
0038AC 21                              +                'DVCTYP' IS INVALID.
0000F8                             5272+MRD01D   EQU   X'F8' MODE FLAGS
0038AD 00                          5273+         DC    X'00' 3-4
                                   5274+         DC    AL1(M2540P+64*0) CHANNEL SCHEDULER FLAGS, IF ASSEMBLES IX
0038AE 00                              +               N ERROR, 'DVCTYP' IS INCORRECT.
0038AF F8                          5275+         DC    AL1(MRD01D) JOB CONTROL FLAGS
000004                             5276+P01D     EQU   TOTDVC-44 PUB NUMBERS FOR STD ASSIGNMENTS
                                   5277          DVCGEN CHUN=X'01E',DVCTYP=1403
                                   5278+*360N-CL-453 DVCGEN    CHANGE LEVEL 3-11                           3-11
                                   5279+         DC    X'001E' "HAN AND UNIT BYTES OF PUB, IF ERROR IN ASSEM  XX
0038B0 001E                            +               'CUU' IS IN ERROR.
0038B2 FF                          5280+         DC    X'FF' CHNL QUE POINTER
0038B3 00                          5281+         DC    X'00' PUB ERROR BYTE
                                   5282+         DC    AL1(T1403) DEVICE TYPE BYTE,IF THIS ASSEMBLES IN ERROR, X
0038B4 40                              +               'DVCTYP' IS INVALID.
0000F8                             5283+MRD01E   EQU   X'F8' MODE FLAGS
0038B5 00                          5284+         DC    X'00' 3-4
                                   5285+         DC    AL1(M1403+64*0) CHANNEL SCHEDULER FLAGS, IF ASSEMBLES INX
0038B6 00                              +                ERROR, 'DVCTYP' IS INCORRECT.
0038B7 F8                          5286+         DC    AL1(MRD01E) JOB CONTROL FLAGS
000005                             5287+P01E     EQU   TOTDVC-43 PUB NUMBERS FOR STD ASSIGNMENTS


                                   5289 * SYSTEM CONSOLE
                                   5290          DVCGEN CHUN=X'01F',DVCTYP=1050A
                                   5291+*360N-CL-453 DVCGEN    CHANGE LEVEL 3-11                           3-11
                                   5292+         DC    X'001F' "HAN AND UNIT BYTES OF PUB, IF ERROR IN ASSEM  XX
0038B8 001F                            +               'CUU' IS IN ERROR.
0038BA FF                          5293+         DC    X'FF' CHNL QUE POINTER
0038BB 00                          5294+         DC    X'00' PUB ERROR BYTE
                                   5295+         DC    AL1(T1050A) DEVICE TYPE BYTE,IF THIS ASSEMBLES IN ERROR,X
0038BC 00                              +                'DVCTYP' IS INVALID.
0000F8                             5296+MRD01F   EQU   X'F8' MODE FLAGS
0038BD 00                          5297+         DC    X'00' 3-4
                                   5298+         DC    AL1(M1050A+64*0) CHANNEL SCHEDULER FLAGS, IF ASSEMBLES IX
0038BE 00                              +               N ERROR, 'DVCTYP' IS INCORRECT.
0038BF F8                          5299+         DC    AL1(MRD01F) JOB CONTROL FLAGS
000006                             5300+P01F     EQU   TOTDVC-42 PUB NUMBERS FOR STD ASSIGNMENTS
       DOS SUPERVISOR - INPUT/OUTPUT TABLES                                                                    PAGE  122


  LOC  OBJECT CODE    ADDR1 ADDR2  STMT   SOURCE STATEMENT                                          FDOS CL3-10 03/29/70

                                   5302 * F2 PARTITION UNIT RECORD
                                   5303          DVCGEN CHUN=X'02C',DVCTYP=2501
                                   5304+*360N-CL-453 DVCGEN    CHANGE LEVEL 3-11                           3-11
                                   5305+         DC    X'002C' "HAN AND UNIT BYTES OF PUB, IF ERROR IN ASSEM  XX
0038C0 002C                            +               'CUU' IS IN ERROR.
0038C2 FF                          5306+         DC    X'FF' CHNL QUE POINTER
0038C3 00                          5307+         DC    X'00' PUB ERROR BYTE
                                   5308+         DC    AL1(T2501) DEVICE TYPE BYTE,IF THIS ASSEMBLES IN ERROR, X
0038C4 10                              +               'DVCTYP' IS INVALID.
0000F8                             5309+MRD02C   EQU   X'F8' MODE FLAGS
0038C5 00                          5310+         DC    X'00' 3-4
                                   5311+         DC    AL1(M2501+64*0) CHANNEL SCHEDULER FLAGS, IF ASSEMBLES INX
0038C6 00                              +                ERROR, 'DVCTYP' IS INCORRECT.
0038C7 F8                          5312+         DC    AL1(MRD02C) JOB CONTROL FLAGS
000007                             5313+P02C     EQU   TOTDVC-41 PUB NUMBERS FOR STD ASSIGNMENTS
                                   5314          DVCGEN CHUN=X'02D',DVCTYP=2540P
                                   5315+*360N-CL-453 DVCGEN    CHANGE LEVEL 3-11                           3-11
                                   5316+         DC    X'002D' "HAN AND UNIT BYTES OF PUB, IF ERROR IN ASSEM  XX
0038C8 002D                            +               'CUU' IS IN ERROR.
0038CA FF                          5317+         DC    X'FF' CHNL QUE POINTER
0038CB 00                          5318+         DC    X'00' PUB ERROR BYTE
                                   5319+         DC    AL1(T2540P) DEVICE TYPE BYTE,IF THIS ASSEMBLES IN ERROR,X
0038CC 21                              +                'DVCTYP' IS INVALID.
0000F8                             5320+MRD02D   EQU   X'F8' MODE FLAGS
0038CD 00                          5321+         DC    X'00' 3-4
                                   5322+         DC    AL1(M2540P+64*0) CHANNEL SCHEDULER FLAGS, IF ASSEMBLES IX
0038CE 00                              +               N ERROR, 'DVCTYP' IS INCORRECT.
0038CF F8                          5323+         DC    AL1(MRD02D) JOB CONTROL FLAGS
000008                             5324+P02D     EQU   TOTDVC-40 PUB NUMBERS FOR STD ASSIGNMENTS
                                   5325          DVCGEN CHUN=X'02E',DVCTYP=1403
                                   5326+*360N-CL-453 DVCGEN    CHANGE LEVEL 3-11                           3-11
                                   5327+         DC    X'002E' "HAN AND UNIT BYTES OF PUB, IF ERROR IN ASSEM  XX
0038D0 002E                            +               'CUU' IS IN ERROR.
0038D2 FF                          5328+         DC    X'FF' CHNL QUE POINTER
0038D3 00                          5329+         DC    X'00' PUB ERROR BYTE
                                   5330+         DC    AL1(T1403) DEVICE TYPE BYTE,IF THIS ASSEMBLES IN ERROR, X
0038D4 40                              +               'DVCTYP' IS INVALID.
0000F8                             5331+MRD02E   EQU   X'F8' MODE FLAGS
0038D5 00                          5332+         DC    X'00' 3-4
                                   5333+         DC    AL1(M1403+64*0) CHANNEL SCHEDULER FLAGS, IF ASSEMBLES INX
0038D6 00                              +                ERROR, 'DVCTYP' IS INCORRECT.
0038D7 F8                          5334+         DC    AL1(MRD02E) JOB CONTROL FLAGS
000009                             5335+P02E     EQU   TOTDVC-39 PUB NUMBERS FOR STD ASSIGNMENTS


                                   5337 * DISPLAY DEVICES
                                   5338          DVCGEN CHUN=X'0A0',DVCTYP=3277
                                   5339+*360N-CL-453 DVCGEN    CHANGE LEVEL 3-11                           3-11
                                   5340+         DC    X'00A0' "HAN AND UNIT BYTES OF PUB, IF ERROR IN ASSEM  XX
0038D8 00A0                            +               'CUU' IS IN ERROR.
0038DA FF                          5341+         DC    X'FF' CHNL QUE POINTER
       DOS SUPERVISOR - INPUT/OUTPUT TABLES                                                                    PAGE  123


  LOC  OBJECT CODE    ADDR1 ADDR2  STMT   SOURCE STATEMENT                                          FDOS CL3-10 03/29/70

0038DB 00                          5342+         DC    X'00' PUB ERROR BYTE
                                   5343+         DC    AL1(T3277) DEVICE TYPE BYTE,IF THIS ASSEMBLES IN ERROR, X
0038DC B0                              +               'DVCTYP' IS INVALID.
0000F8                             5344+MRD0A0   EQU   X'F8' MODE FLAGS
0038DD 00                          5345+         DC    X'00' 3-4
                                   5346+         DC    AL1(M3277+64*0) CHANNEL SCHEDULER FLAGS, IF ASSEMBLES INX
0038DE 00                              +                ERROR, 'DVCTYP' IS INCORRECT.
0038DF F8                          5347+         DC    AL1(MRD0A0) JOB CONTROL FLAGS
00000A                             5348+P0A0     EQU   TOTDVC-38 PUB NUMBERS FOR STD ASSIGNMENTS
                                   5349          DVCGEN CHUN=X'0A1',DVCTYP=3277
                                   5350+*360N-CL-453 DVCGEN    CHANGE LEVEL 3-11                           3-11
                                   5351+         DC    X'00A1' "HAN AND UNIT BYTES OF PUB, IF ERROR IN ASSEM  XX
0038E0 00A1                            +               'CUU' IS IN ERROR.
0038E2 FF                          5352+         DC    X'FF' CHNL QUE POINTER
0038E3 00                          5353+         DC    X'00' PUB ERROR BYTE
                                   5354+         DC    AL1(T3277) DEVICE TYPE BYTE,IF THIS ASSEMBLES IN ERROR, X
0038E4 B0                              +               'DVCTYP' IS INVALID.
0000F8                             5355+MRD0A1   EQU   X'F8' MODE FLAGS
0038E5 00                          5356+         DC    X'00' 3-4
                                   5357+         DC    AL1(M3277+64*0) CHANNEL SCHEDULER FLAGS, IF ASSEMBLES INX
0038E6 00                              +                ERROR, 'DVCTYP' IS INCORRECT.
0038E7 F8                          5358+         DC    AL1(MRD0A1) JOB CONTROL FLAGS
00000B                             5359+P0A1     EQU   TOTDVC-37 PUB NUMBERS FOR STD ASSIGNMENTS
                                   5360          DVCGEN CHUN=X'0A2',DVCTYP=3277
                                   5361+*360N-CL-453 DVCGEN    CHANGE LEVEL 3-11                           3-11
                                   5362+         DC    X'00A2' "HAN AND UNIT BYTES OF PUB, IF ERROR IN ASSEM  XX
0038E8 00A2                            +               'CUU' IS IN ERROR.
0038EA FF                          5363+         DC    X'FF' CHNL QUE POINTER
0038EB 00                          5364+         DC    X'00' PUB ERROR BYTE
                                   5365+         DC    AL1(T3277) DEVICE TYPE BYTE,IF THIS ASSEMBLES IN ERROR, X
0038EC B0                              +               'DVCTYP' IS INVALID.
0000F8                             5366+MRD0A2   EQU   X'F8' MODE FLAGS
0038ED 00                          5367+         DC    X'00' 3-4
                                   5368+         DC    AL1(M3277+64*0) CHANNEL SCHEDULER FLAGS, IF ASSEMBLES INX
0038EE 00                              +                ERROR, 'DVCTYP' IS INCORRECT.
0038EF F8                          5369+         DC    AL1(MRD0A2) JOB CONTROL FLAGS
00000C                             5370+P0A2     EQU   TOTDVC-36 PUB NUMBERS FOR STD ASSIGNMENTS
                                   5371          DVCGEN CHUN=X'0A3',DVCTYP=3277
                                   5372+*360N-CL-453 DVCGEN    CHANGE LEVEL 3-11                           3-11
                                   5373+         DC    X'00A3' "HAN AND UNIT BYTES OF PUB, IF ERROR IN ASSEM  XX
0038F0 00A3                            +               'CUU' IS IN ERROR.
0038F2 FF                          5374+         DC    X'FF' CHNL QUE POINTER
0038F3 00                          5375+         DC    X'00' PUB ERROR BYTE
                                   5376+         DC    AL1(T3277) DEVICE TYPE BYTE,IF THIS ASSEMBLES IN ERROR, X
0038F4 B0                              +               'DVCTYP' IS INVALID.
0000F8                             5377+MRD0A3   EQU   X'F8' MODE FLAGS
0038F5 00                          5378+         DC    X'00' 3-4
                                   5379+         DC    AL1(M3277+64*0) CHANNEL SCHEDULER FLAGS, IF ASSEMBLES INX
0038F6 00                              +                ERROR, 'DVCTYP' IS INCORRECT.
0038F7 F8                          5380+         DC    AL1(MRD0A3) JOB CONTROL FLAGS
00000D                             5381+P0A3     EQU   TOTDVC-35 PUB NUMBERS FOR STD ASSIGNMENTS
       DOS SUPERVISOR - INPUT/OUTPUT TABLES                                                                    PAGE  124


  LOC  OBJECT CODE    ADDR1 ADDR2  STMT   SOURCE STATEMENT                                          FDOS CL3-10 03/29/70

                                   5382          DVCGEN CHUN=X'0A4',DVCTYP=3277
                                   5383+*360N-CL-453 DVCGEN    CHANGE LEVEL 3-11                           3-11
                                   5384+         DC    X'00A4' "HAN AND UNIT BYTES OF PUB, IF ERROR IN ASSEM  XX
0038F8 00A4                            +               'CUU' IS IN ERROR.
0038FA FF                          5385+         DC    X'FF' CHNL QUE POINTER
0038FB 00                          5386+         DC    X'00' PUB ERROR BYTE
                                   5387+         DC    AL1(T3277) DEVICE TYPE BYTE,IF THIS ASSEMBLES IN ERROR, X
0038FC B0                              +               'DVCTYP' IS INVALID.
0000F8                             5388+MRD0A4   EQU   X'F8' MODE FLAGS
0038FD 00                          5389+         DC    X'00' 3-4
                                   5390+         DC    AL1(M3277+64*0) CHANNEL SCHEDULER FLAGS, IF ASSEMBLES INX
0038FE 00                              +                ERROR, 'DVCTYP' IS INCORRECT.
0038FF F8                          5391+         DC    AL1(MRD0A4) JOB CONTROL FLAGS
00000E                             5392+P0A4     EQU   TOTDVC-34 PUB NUMBERS FOR STD ASSIGNMENTS
                                   5393          DVCGEN CHUN=X'0A5',DVCTYP=3277,MODE=X'01'
                                   5394+*360N-CL-453 DVCGEN    CHANGE LEVEL 3-11                           3-11
                                   5395+         DC    X'00A5' "HAN AND UNIT BYTES OF PUB, IF ERROR IN ASSEM  XX
003900 00A5                            +               'CUU' IS IN ERROR.
003902 FF                          5396+         DC    X'FF' CHNL QUE POINTER
003903 00                          5397+         DC    X'00' PUB ERROR BYTE
                                   5398+         DC    AL1(T3277) DEVICE TYPE BYTE,IF THIS ASSEMBLES IN ERROR, X
003904 B0                              +               'DVCTYP' IS INVALID.
0000F8                             5399+MRD0A5   EQU   X'F8' MODE FLAGS
003905 01                          5400+         DC    X'01' MODE BYTE
                                   5401+         DC    AL1(M3277+64*0) CHANNEL SCHEDULER FLAGS, IF ASSEMBLES INX
003906 00                              +                ERROR, 'DVCTYP' IS INCORRECT.
003907 F8                          5402+         DC    AL1(MRD0A5) JOB CONTROL FLAGS
00000F                             5403+P0A5     EQU   TOTDVC-33 PUB NUMBERS FOR STD ASSIGNMENTS


                                   5405 * DISTRIBUTION SYSTEM DEVICES; GENERATED JUST IN CASE
                                   5406          DVCGEN CHUN=X'130',DVCTYP=2311
                                   5407+*360N-CL-453 DVCGEN    CHANGE LEVEL 3-11                           3-11
003882                             5408+         ORG   FOCL+1 ORG TO FOCL BYTE FOR CHANNEL
003882 10                          5409+         DC    AL1(TOTDVC-32) FOCL ENTRY FOR CHANNEL
0036E4                             5410+         ORG   CHNPUBTB+L'CHNPUBTB*1
0036E4 3908                        5411+         DC    Y(PUBEND-L'PUBTAB*32)
0036E6 3908                        5412+         DC    Y(PUBEND-L'PUBTAB*32)
003908                             5413+         ORG   PUBEND-L'PUBTAB*32 RESET ORIGIN TO PUB TABLE
                                   5414+         DC    X'0130' "HAN AND UNIT BYTES OF PUB, IF ERROR IN ASSEM  XX
003908 0130                            +               'CUU' IS IN ERROR.
00390A FF                          5415+         DC    X'FF' CHNL QUE POINTER
00390B 00                          5416+         DC    X'00' PUB ERROR BYTE
                                   5417+         DC    AL1(T2311) DEVICE TYPE BYTE,IF THIS ASSEMBLES IN ERROR, X
00390C 60                              +               'DVCTYP' IS INVALID.
0000F8                             5418+MRD130   EQU   X'F8' MODE FLAGS
00390D FF                          5419+         DC    X'FF' 3-3
                                   5420+         DC    AL1(M2311+64*0) CHANNEL SCHEDULER FLAGS, IF ASSEMBLES INX
00390E 00                              +                ERROR, 'DVCTYP' IS INCORRECT.
00390F F8                          5421+         DC    AL1(MRD130) JOB CONTROL FLAGS
000010                             5422+P130     EQU   TOTDVC-32 PUB NUMBERS FOR STD ASSIGNMENTS
       DOS SUPERVISOR - INPUT/OUTPUT TABLES                                                                    PAGE  125


  LOC  OBJECT CODE    ADDR1 ADDR2  STMT   SOURCE STATEMENT                                          FDOS CL3-10 03/29/70

                                   5423          DVCGEN CHUN=X'131',DVCTYP=2311
                                   5424+*360N-CL-453 DVCGEN    CHANGE LEVEL 3-11                           3-11
                                   5425+         DC    X'0131' "HAN AND UNIT BYTES OF PUB, IF ERROR IN ASSEM  XX
003910 0131                            +               'CUU' IS IN ERROR.
003912 FF                          5426+         DC    X'FF' CHNL QUE POINTER
003913 00                          5427+         DC    X'00' PUB ERROR BYTE
                                   5428+         DC    AL1(T2311) DEVICE TYPE BYTE,IF THIS ASSEMBLES IN ERROR, X
003914 60                              +               'DVCTYP' IS INVALID.
0000F8                             5429+MRD131   EQU   X'F8' MODE FLAGS
003915 FF                          5430+         DC    X'FF' 3-3
                                   5431+         DC    AL1(M2311+64*0) CHANNEL SCHEDULER FLAGS, IF ASSEMBLES INX
003916 00                              +                ERROR, 'DVCTYP' IS INCORRECT.
003917 F8                          5432+         DC    AL1(MRD131) JOB CONTROL FLAGS
000011                             5433+P131     EQU   TOTDVC-31 PUB NUMBERS FOR STD ASSIGNMENTS
                                   5434          DVCGEN CHUN=X'132',DVCTYP=2311
                                   5435+*360N-CL-453 DVCGEN    CHANGE LEVEL 3-11                           3-11
                                   5436+         DC    X'0132' "HAN AND UNIT BYTES OF PUB, IF ERROR IN ASSEM  XX
003918 0132                            +               'CUU' IS IN ERROR.
00391A FF                          5437+         DC    X'FF' CHNL QUE POINTER
00391B 00                          5438+         DC    X'00' PUB ERROR BYTE
                                   5439+         DC    AL1(T2311) DEVICE TYPE BYTE,IF THIS ASSEMBLES IN ERROR, X
00391C 60                              +               'DVCTYP' IS INVALID.
0000F8                             5440+MRD132   EQU   X'F8' MODE FLAGS
00391D FF                          5441+         DC    X'FF' 3-3
                                   5442+         DC    AL1(M2311+64*0) CHANNEL SCHEDULER FLAGS, IF ASSEMBLES INX
00391E 00                              +                ERROR, 'DVCTYP' IS INCORRECT.
00391F F8                          5443+         DC    AL1(MRD132) JOB CONTROL FLAGS
000012                             5444+P132     EQU   TOTDVC-30 PUB NUMBERS FOR STD ASSIGNMENTS
                                   5445          DVCGEN CHUN=X'133',DVCTYP=2311
                                   5446+*360N-CL-453 DVCGEN    CHANGE LEVEL 3-11                           3-11
                                   5447+         DC    X'0133' "HAN AND UNIT BYTES OF PUB, IF ERROR IN ASSEM  XX
003920 0133                            +               'CUU' IS IN ERROR.
003922 FF                          5448+         DC    X'FF' CHNL QUE POINTER
003923 00                          5449+         DC    X'00' PUB ERROR BYTE
                                   5450+         DC    AL1(T2311) DEVICE TYPE BYTE,IF THIS ASSEMBLES IN ERROR, X
003924 60                              +               'DVCTYP' IS INVALID.
0000F8                             5451+MRD133   EQU   X'F8' MODE FLAGS
003925 FF                          5452+         DC    X'FF' 3-3
                                   5453+         DC    AL1(M2311+64*0) CHANNEL SCHEDULER FLAGS, IF ASSEMBLES INX
003926 00                              +                ERROR, 'DVCTYP' IS INCORRECT.
003927 F8                          5454+         DC    AL1(MRD133) JOB CONTROL FLAGS
000013                             5455+P133     EQU   TOTDVC-29 PUB NUMBERS FOR STD ASSIGNMENTS


                                   5457 * PRODUCTION DISK DEVICES
                                   5458          DVCGEN CHUN=X'190',DVCTYP=2314  DOSRES
                                   5459+*360N-CL-453 DVCGEN    CHANGE LEVEL 3-11                           3-11
                                   5460+         DC    X'0190' "HAN AND UNIT BYTES OF PUB, IF ERROR IN ASSEM  XX
003928 0190                            +               'CUU' IS IN ERROR.
00392A FF                          5461+         DC    X'FF' CHNL QUE POINTER
00392B 00                          5462+         DC    X'00' PUB ERROR BYTE
       DOS SUPERVISOR - INPUT/OUTPUT TABLES                                                                    PAGE  126


  LOC  OBJECT CODE    ADDR1 ADDR2  STMT   SOURCE STATEMENT                                          FDOS CL3-10 03/29/70

                                   5463+         DC    AL1(T2314) DEVICE TYPE BYTE,IF THIS ASSEMBLES IN ERROR, X
00392C 62                              +               'DVCTYP' IS INVALID.
0000F8                             5464+MRD190   EQU   X'F8' MODE FLAGS
00392D FF                          5465+         DC    X'FF' 3-3
                                   5466+         DC    AL1(M2314+64*0) CHANNEL SCHEDULER FLAGS, IF ASSEMBLES INX
00392E 00                              +                ERROR, 'DVCTYP' IS INCORRECT.
00392F F8                          5467+         DC    AL1(MRD190) JOB CONTROL FLAGS
000014                             5468+P190     EQU   TOTDVC-28 PUB NUMBERS FOR STD ASSIGNMENTS
                                   5469          DVCGEN CHUN=X'191',DVCTYP=2314  SPOOL1 - POWER
                                   5470+*360N-CL-453 DVCGEN    CHANGE LEVEL 3-11                           3-11
                                   5471+         DC    X'0191' "HAN AND UNIT BYTES OF PUB, IF ERROR IN ASSEM  XX
003930 0191                            +               'CUU' IS IN ERROR.
003932 FF                          5472+         DC    X'FF' CHNL QUE POINTER
003933 00                          5473+         DC    X'00' PUB ERROR BYTE
                                   5474+         DC    AL1(T2314) DEVICE TYPE BYTE,IF THIS ASSEMBLES IN ERROR, X
003934 62                              +               'DVCTYP' IS INVALID.
0000F8                             5475+MRD191   EQU   X'F8' MODE FLAGS
003935 FF                          5476+         DC    X'FF' 3-3
                                   5477+         DC    AL1(M2314+64*0) CHANNEL SCHEDULER FLAGS, IF ASSEMBLES INX
003936 00                              +                ERROR, 'DVCTYP' IS INCORRECT.
003937 F8                          5478+         DC    AL1(MRD191) JOB CONTROL FLAGS
000015                             5479+P191     EQU   TOTDVC-27 PUB NUMBERS FOR STD ASSIGNMENTS
                                   5480          DVCGEN CHUN=X'192',DVCTYP=2314  WRK14A - BG WORK FILES
                                   5481+*360N-CL-453 DVCGEN    CHANGE LEVEL 3-11                           3-11
                                   5482+         DC    X'0192' "HAN AND UNIT BYTES OF PUB, IF ERROR IN ASSEM  XX
003938 0192                            +               'CUU' IS IN ERROR.
00393A FF                          5483+         DC    X'FF' CHNL QUE POINTER
00393B 00                          5484+         DC    X'00' PUB ERROR BYTE
                                   5485+         DC    AL1(T2314) DEVICE TYPE BYTE,IF THIS ASSEMBLES IN ERROR, X
00393C 62                              +               'DVCTYP' IS INVALID.
0000F8                             5486+MRD192   EQU   X'F8' MODE FLAGS
00393D FF                          5487+         DC    X'FF' 3-3
                                   5488+         DC    AL1(M2314+64*0) CHANNEL SCHEDULER FLAGS, IF ASSEMBLES INX
00393E 00                              +                ERROR, 'DVCTYP' IS INCORRECT.
00393F F8                          5489+         DC    AL1(MRD192) JOB CONTROL FLAGS
000016                             5490+P192     EQU   TOTDVC-26 PUB NUMBERS FOR STD ASSIGNMENTS
                                   5491          DVCGEN CHUN=X'193',DVCTYP=2314  WRK14B - F2 WORK FILES
                                   5492+*360N-CL-453 DVCGEN    CHANGE LEVEL 3-11                           3-11
                                   5493+         DC    X'0193' "HAN AND UNIT BYTES OF PUB, IF ERROR IN ASSEM  XX
003940 0193                            +               'CUU' IS IN ERROR.
003942 FF                          5494+         DC    X'FF' CHNL QUE POINTER
003943 00                          5495+         DC    X'00' PUB ERROR BYTE
                                   5496+         DC    AL1(T2314) DEVICE TYPE BYTE,IF THIS ASSEMBLES IN ERROR, X
003944 62                              +               'DVCTYP' IS INVALID.
0000F8                             5497+MRD193   EQU   X'F8' MODE FLAGS
003945 FF                          5498+         DC    X'FF' 3-3
                                   5499+         DC    AL1(M2314+64*0) CHANNEL SCHEDULER FLAGS, IF ASSEMBLES INX
003946 00                              +                ERROR, 'DVCTYP' IS INCORRECT.
003947 F8                          5500+         DC    AL1(MRD193) JOB CONTROL FLAGS
000017                             5501+P193     EQU   TOTDVC-25 PUB NUMBERS FOR STD ASSIGNMENTS
                                   5502          DVCGEN CHUN=X'194',DVCTYP=2314  OPTIONAL - TBD
       DOS SUPERVISOR - INPUT/OUTPUT TABLES                                                                    PAGE  127


  LOC  OBJECT CODE    ADDR1 ADDR2  STMT   SOURCE STATEMENT                                          FDOS CL3-10 03/29/70

                                   5503+*360N-CL-453 DVCGEN    CHANGE LEVEL 3-11                           3-11
                                   5504+         DC    X'0194' "HAN AND UNIT BYTES OF PUB, IF ERROR IN ASSEM  XX
003948 0194                            +               'CUU' IS IN ERROR.
00394A FF                          5505+         DC    X'FF' CHNL QUE POINTER
00394B 00                          5506+         DC    X'00' PUB ERROR BYTE
                                   5507+         DC    AL1(T2314) DEVICE TYPE BYTE,IF THIS ASSEMBLES IN ERROR, X
00394C 62                              +               'DVCTYP' IS INVALID.
0000F8                             5508+MRD194   EQU   X'F8' MODE FLAGS
00394D FF                          5509+         DC    X'FF' 3-3
                                   5510+         DC    AL1(M2314+64*0) CHANNEL SCHEDULER FLAGS, IF ASSEMBLES INX
00394E 00                              +                ERROR, 'DVCTYP' IS INCORRECT.
00394F F8                          5511+         DC    AL1(MRD194) JOB CONTROL FLAGS
000018                             5512+P194     EQU   TOTDVC-24 PUB NUMBERS FOR STD ASSIGNMENTS
                                   5513          DVCGEN CHUN=X'195',DVCTYP=2314  OPTIONAL - TBD
                                   5514+*360N-CL-453 DVCGEN    CHANGE LEVEL 3-11                           3-11
                                   5515+         DC    X'0195' "HAN AND UNIT BYTES OF PUB, IF ERROR IN ASSEM  XX
003950 0195                            +               'CUU' IS IN ERROR.
003952 FF                          5516+         DC    X'FF' CHNL QUE POINTER
003953 00                          5517+         DC    X'00' PUB ERROR BYTE
                                   5518+         DC    AL1(T2314) DEVICE TYPE BYTE,IF THIS ASSEMBLES IN ERROR, X
003954 62                              +               'DVCTYP' IS INVALID.
0000F8                             5519+MRD195   EQU   X'F8' MODE FLAGS
003955 FF                          5520+         DC    X'FF' 3-3
                                   5521+         DC    AL1(M2314+64*0) CHANNEL SCHEDULER FLAGS, IF ASSEMBLES INX
003956 00                              +                ERROR, 'DVCTYP' IS INCORRECT.
003957 F8                          5522+         DC    AL1(MRD195) JOB CONTROL FLAGS
000019                             5523+P195     EQU   TOTDVC-23 PUB NUMBERS FOR STD ASSIGNMENTS
                                   5524          DVCGEN CHUN=X'196',DVCTYP=2314  OPTIONAL - TBD
                                   5525+*360N-CL-453 DVCGEN    CHANGE LEVEL 3-11                           3-11
                                   5526+         DC    X'0196' "HAN AND UNIT BYTES OF PUB, IF ERROR IN ASSEM  XX
003958 0196                            +               'CUU' IS IN ERROR.
00395A FF                          5527+         DC    X'FF' CHNL QUE POINTER
00395B 00                          5528+         DC    X'00' PUB ERROR BYTE
                                   5529+         DC    AL1(T2314) DEVICE TYPE BYTE,IF THIS ASSEMBLES IN ERROR, X
00395C 62                              +               'DVCTYP' IS INVALID.
0000F8                             5530+MRD196   EQU   X'F8' MODE FLAGS
00395D FF                          5531+         DC    X'FF' 3-3
                                   5532+         DC    AL1(M2314+64*0) CHANNEL SCHEDULER FLAGS, IF ASSEMBLES INX
00395E 00                              +                ERROR, 'DVCTYP' IS INCORRECT.
00395F F8                          5533+         DC    AL1(MRD196) JOB CONTROL FLAGS
00001A                             5534+P196     EQU   TOTDVC-22 PUB NUMBERS FOR STD ASSIGNMENTS
                                   5535          DVCGEN CHUN=X'197',DVCTYP=2314  OPTIONAL - TBD
                                   5536+*360N-CL-453 DVCGEN    CHANGE LEVEL 3-11                           3-11
                                   5537+         DC    X'0197' "HAN AND UNIT BYTES OF PUB, IF ERROR IN ASSEM  XX
003960 0197                            +               'CUU' IS IN ERROR.
003962 FF                          5538+         DC    X'FF' CHNL QUE POINTER
003963 00                          5539+         DC    X'00' PUB ERROR BYTE
                                   5540+         DC    AL1(T2314) DEVICE TYPE BYTE,IF THIS ASSEMBLES IN ERROR, X
003964 62                              +               'DVCTYP' IS INVALID.
0000F8                             5541+MRD197   EQU   X'F8' MODE FLAGS
003965 FF                          5542+         DC    X'FF' 3-3
       DOS SUPERVISOR - INPUT/OUTPUT TABLES                                                                    PAGE  128


  LOC  OBJECT CODE    ADDR1 ADDR2  STMT   SOURCE STATEMENT                                          FDOS CL3-10 03/29/70

                                   5543+         DC    AL1(M2314+64*0) CHANNEL SCHEDULER FLAGS, IF ASSEMBLES INX
003966 00                              +                ERROR, 'DVCTYP' IS INCORRECT.
003967 F8                          5544+         DC    AL1(MRD197) JOB CONTROL FLAGS
00001B                             5545+P197     EQU   TOTDVC-21 PUB NUMBERS FOR STD ASSIGNMENTS


                                   5547 * PRODUCTION TAPE DEVICES
                                   5548          DVCGEN CHUN=X'280',DVCTYP=2400T9
                                   5549+*360N-CL-453 DVCGEN    CHANGE LEVEL 3-11                           3-11
003883                             5550+         ORG   FOCL+2 ORG TO FOCL BYTE FOR CHANNEL
003883 1C                          5551+         DC    AL1(TOTDVC-20) FOCL ENTRY FOR CHANNEL
0036E8                             5552+         ORG   CHNPUBTB+L'CHNPUBTB*2
0036E8 3968                        5553+         DC    Y(PUBEND-L'PUBTAB*20)
0036EA 3968                        5554+         DC    Y(PUBEND-L'PUBTAB*20)
003968                             5555+         ORG   PUBEND-L'PUBTAB*20 RESET ORIGIN TO PUB TABLE
                                   5556+         DC    X'0280' "HAN AND UNIT BYTES OF PUB, IF ERROR IN ASSEM  XX
003968 0280                            +               'CUU' IS IN ERROR.
00396A FF                          5557+         DC    X'FF' CHNL QUE POINTER
00396B 00                          5558+         DC    AL1(TOTTAP-8) TEB POINTER
003C0C                             5559+         ORG   TEBTAB+L'TEBTAB*(TOTTAP-8) RESET TEB FLAG
003C0C 00                          5560+         DC    X'00' RESET TEB FLAG
00396C                             5561+         ORG   PUBEND+4-L'PUBTAB*20 RESET PUB ORG
                                   5562+         DC    AL1(T2400T9) DEVICE TYPE BYTE,IF THIS ASSEMBLES IN ERRORX
00396C 50                              +               , 'DVCTYP' IS INVALID.
0000C0                             5563+MRD280   EQU   X'C0' ROUNDED MODE
00396D C3                          5564+         DC    X'C3' MODE BYTE
                                   5565+         DC    AL1(M2400T9+64*0) CHANNEL SCHEDULER FLAGS, IF ASSEMBLES X
00396E 00                              +               IN ERROR, 'DVCTYP' IS INCORRECT.
00396F C0                          5566+         DC    AL1(MRD280) JOB CONTROL FLAGS
00001C                             5567+P280     EQU   TOTDVC-20 PUB NUMBERS FOR STD ASSIGNMENTS
                                   5568          DVCGEN CHUN=X'281',DVCTYP=2400T9
                                   5569+*360N-CL-453 DVCGEN    CHANGE LEVEL 3-11                           3-11
                                   5570+         DC    X'0281' "HAN AND UNIT BYTES OF PUB, IF ERROR IN ASSEM  XX
003970 0281                            +               'CUU' IS IN ERROR.
003972 FF                          5571+         DC    X'FF' CHNL QUE POINTER
003973 01                          5572+         DC    AL1(TOTTAP-7) TEB POINTER
003C12                             5573+         ORG   TEBTAB+L'TEBTAB*(TOTTAP-7) RESET TEB FLAG
003C12 00                          5574+         DC    X'00' RESET TEB FLAG
003974                             5575+         ORG   PUBEND+4-L'PUBTAB*19 RESET PUB ORG
                                   5576+         DC    AL1(T2400T9) DEVICE TYPE BYTE,IF THIS ASSEMBLES IN ERRORX
003974 50                              +               , 'DVCTYP' IS INVALID.
0000C0                             5577+MRD281   EQU   X'C0' ROUNDED MODE
003975 C3                          5578+         DC    X'C3' MODE BYTE
                                   5579+         DC    AL1(M2400T9+64*0) CHANNEL SCHEDULER FLAGS, IF ASSEMBLES X
003976 00                              +               IN ERROR, 'DVCTYP' IS INCORRECT.
003977 C0                          5580+         DC    AL1(MRD281) JOB CONTROL FLAGS
00001D                             5581+P281     EQU   TOTDVC-19 PUB NUMBERS FOR STD ASSIGNMENTS
                                   5582          DVCGEN CHUN=X'282',DVCTYP=2400T9
                                   5583+*360N-CL-453 DVCGEN    CHANGE LEVEL 3-11                           3-11
                                   5584+         DC    X'0282' "HAN AND UNIT BYTES OF PUB, IF ERROR IN ASSEM  XX
003978 0282                            +               'CUU' IS IN ERROR.
       DOS SUPERVISOR - INPUT/OUTPUT TABLES                                                                    PAGE  129


  LOC  OBJECT CODE    ADDR1 ADDR2  STMT   SOURCE STATEMENT                                          FDOS CL3-10 03/29/70

00397A FF                          5585+         DC    X'FF' CHNL QUE POINTER
00397B 02                          5586+         DC    AL1(TOTTAP-6) TEB POINTER
003C18                             5587+         ORG   TEBTAB+L'TEBTAB*(TOTTAP-6) RESET TEB FLAG
003C18 00                          5588+         DC    X'00' RESET TEB FLAG
00397C                             5589+         ORG   PUBEND+4-L'PUBTAB*18 RESET PUB ORG
                                   5590+         DC    AL1(T2400T9) DEVICE TYPE BYTE,IF THIS ASSEMBLES IN ERRORX
00397C 50                              +               , 'DVCTYP' IS INVALID.
0000C0                             5591+MRD282   EQU   X'C0' ROUNDED MODE
00397D C3                          5592+         DC    X'C3' MODE BYTE
                                   5593+         DC    AL1(M2400T9+64*0) CHANNEL SCHEDULER FLAGS, IF ASSEMBLES X
00397E 00                              +               IN ERROR, 'DVCTYP' IS INCORRECT.
00397F C0                          5594+         DC    AL1(MRD282) JOB CONTROL FLAGS
00001E                             5595+P282     EQU   TOTDVC-18 PUB NUMBERS FOR STD ASSIGNMENTS
                                   5596          DVCGEN CHUN=X'283',DVCTYP=2400T9
                                   5597+*360N-CL-453 DVCGEN    CHANGE LEVEL 3-11                           3-11
                                   5598+         DC    X'0283' "HAN AND UNIT BYTES OF PUB, IF ERROR IN ASSEM  XX
003980 0283                            +               'CUU' IS IN ERROR.
003982 FF                          5599+         DC    X'FF' CHNL QUE POINTER
003983 03                          5600+         DC    AL1(TOTTAP-5) TEB POINTER
003C1E                             5601+         ORG   TEBTAB+L'TEBTAB*(TOTTAP-5) RESET TEB FLAG
003C1E 00                          5602+         DC    X'00' RESET TEB FLAG
003984                             5603+         ORG   PUBEND+4-L'PUBTAB*17 RESET PUB ORG
                                   5604+         DC    AL1(T2400T9) DEVICE TYPE BYTE,IF THIS ASSEMBLES IN ERRORX
003984 50                              +               , 'DVCTYP' IS INVALID.
0000C0                             5605+MRD283   EQU   X'C0' ROUNDED MODE
003985 C3                          5606+         DC    X'C3' MODE BYTE
                                   5607+         DC    AL1(M2400T9+64*0) CHANNEL SCHEDULER FLAGS, IF ASSEMBLES X
003986 00                              +               IN ERROR, 'DVCTYP' IS INCORRECT.
003987 C0                          5608+         DC    AL1(MRD283) JOB CONTROL FLAGS
00001F                             5609+P283     EQU   TOTDVC-17 PUB NUMBERS FOR STD ASSIGNMENTS
                                   5610          DVCGEN CHUN=X'284',DVCTYP=2400T9
                                   5611+*360N-CL-453 DVCGEN    CHANGE LEVEL 3-11                           3-11
                                   5612+         DC    X'0284' "HAN AND UNIT BYTES OF PUB, IF ERROR IN ASSEM  XX
003988 0284                            +               'CUU' IS IN ERROR.
00398A FF                          5613+         DC    X'FF' CHNL QUE POINTER
00398B 04                          5614+         DC    AL1(TOTTAP-4) TEB POINTER
003C24                             5615+         ORG   TEBTAB+L'TEBTAB*(TOTTAP-4) RESET TEB FLAG
003C24 00                          5616+         DC    X'00' RESET TEB FLAG
00398C                             5617+         ORG   PUBEND+4-L'PUBTAB*16 RESET PUB ORG
                                   5618+         DC    AL1(T2400T9) DEVICE TYPE BYTE,IF THIS ASSEMBLES IN ERRORX
00398C 50                              +               , 'DVCTYP' IS INVALID.
0000C0                             5619+MRD284   EQU   X'C0' ROUNDED MODE
00398D C3                          5620+         DC    X'C3' MODE BYTE
                                   5621+         DC    AL1(M2400T9+64*0) CHANNEL SCHEDULER FLAGS, IF ASSEMBLES X
00398E 00                              +               IN ERROR, 'DVCTYP' IS INCORRECT.
00398F C0                          5622+         DC    AL1(MRD284) JOB CONTROL FLAGS
000020                             5623+P284     EQU   TOTDVC-16 PUB NUMBERS FOR STD ASSIGNMENTS
                                   5624          DVCGEN CHUN=X'285',DVCTYP=2400T9
                                   5625+*360N-CL-453 DVCGEN    CHANGE LEVEL 3-11                           3-11
                                   5626+         DC    X'0285' "HAN AND UNIT BYTES OF PUB, IF ERROR IN ASSEM  XX
003990 0285                            +               'CUU' IS IN ERROR.
       DOS SUPERVISOR - INPUT/OUTPUT TABLES                                                                    PAGE  130


  LOC  OBJECT CODE    ADDR1 ADDR2  STMT   SOURCE STATEMENT                                          FDOS CL3-10 03/29/70

003992 FF                          5627+         DC    X'FF' CHNL QUE POINTER
003993 05                          5628+         DC    AL1(TOTTAP-3) TEB POINTER
003C2A                             5629+         ORG   TEBTAB+L'TEBTAB*(TOTTAP-3) RESET TEB FLAG
003C2A 00                          5630+         DC    X'00' RESET TEB FLAG
003994                             5631+         ORG   PUBEND+4-L'PUBTAB*15 RESET PUB ORG
                                   5632+         DC    AL1(T2400T9) DEVICE TYPE BYTE,IF THIS ASSEMBLES IN ERRORX
003994 50                              +               , 'DVCTYP' IS INVALID.
0000C0                             5633+MRD285   EQU   X'C0' ROUNDED MODE
003995 C3                          5634+         DC    X'C3' MODE BYTE
                                   5635+         DC    AL1(M2400T9+64*0) CHANNEL SCHEDULER FLAGS, IF ASSEMBLES X
003996 00                              +               IN ERROR, 'DVCTYP' IS INCORRECT.
003997 C0                          5636+         DC    AL1(MRD285) JOB CONTROL FLAGS
000021                             5637+P285     EQU   TOTDVC-15 PUB NUMBERS FOR STD ASSIGNMENTS
                                   5638          DVCGEN CHUN=X'286',DVCTYP=2400T9
                                   5639+*360N-CL-453 DVCGEN    CHANGE LEVEL 3-11                           3-11
                                   5640+         DC    X'0286' "HAN AND UNIT BYTES OF PUB, IF ERROR IN ASSEM  XX
003998 0286                            +               'CUU' IS IN ERROR.
00399A FF                          5641+         DC    X'FF' CHNL QUE POINTER
00399B 06                          5642+         DC    AL1(TOTTAP-2) TEB POINTER
003C30                             5643+         ORG   TEBTAB+L'TEBTAB*(TOTTAP-2) RESET TEB FLAG
003C30 00                          5644+         DC    X'00' RESET TEB FLAG
00399C                             5645+         ORG   PUBEND+4-L'PUBTAB*14 RESET PUB ORG
                                   5646+         DC    AL1(T2400T9) DEVICE TYPE BYTE,IF THIS ASSEMBLES IN ERRORX
00399C 50                              +               , 'DVCTYP' IS INVALID.
0000C0                             5647+MRD286   EQU   X'C0' ROUNDED MODE
00399D C3                          5648+         DC    X'C3' MODE BYTE
                                   5649+         DC    AL1(M2400T9+64*0) CHANNEL SCHEDULER FLAGS, IF ASSEMBLES X
00399E 00                              +               IN ERROR, 'DVCTYP' IS INCORRECT.
00399F C0                          5650+         DC    AL1(MRD286) JOB CONTROL FLAGS
000022                             5651+P286     EQU   TOTDVC-14 PUB NUMBERS FOR STD ASSIGNMENTS
                                   5652          DVCGEN CHUN=X'287',DVCTYP=2400T9
                                   5653+*360N-CL-453 DVCGEN    CHANGE LEVEL 3-11                           3-11
                                   5654+         DC    X'0287' "HAN AND UNIT BYTES OF PUB, IF ERROR IN ASSEM  XX
0039A0 0287                            +               'CUU' IS IN ERROR.
0039A2 FF                          5655+         DC    X'FF' CHNL QUE POINTER
0039A3 07                          5656+         DC    AL1(TOTTAP-1) TEB POINTER
003C36                             5657+         ORG   TEBTAB+L'TEBTAB*(TOTTAP-1) RESET TEB FLAG
003C36 00                          5658+         DC    X'00' RESET TEB FLAG
0039A4                             5659+         ORG   PUBEND+4-L'PUBTAB*13 RESET PUB ORG
                                   5660+         DC    AL1(T2400T9) DEVICE TYPE BYTE,IF THIS ASSEMBLES IN ERRORX
0039A4 50                              +               , 'DVCTYP' IS INVALID.
0000C0                             5661+MRD287   EQU   X'C0' ROUNDED MODE
0039A5 C3                          5662+         DC    X'C3' MODE BYTE
                                   5663+         DC    AL1(M2400T9+64*0) CHANNEL SCHEDULER FLAGS, IF ASSEMBLES X
0039A6 00                              +               IN ERROR, 'DVCTYP' IS INCORRECT.
0039A7 C0                          5664+         DC    AL1(MRD287) JOB CONTROL FLAGS
000023                             5665+P287     EQU   TOTDVC-13 PUB NUMBERS FOR STD ASSIGNMENTS


                                   5667 * DEFAULT LOGICAL DEVICE ASSIGNMENTS
       DOS SUPERVISOR - INPUT/OUTPUT TABLES                                                                    PAGE  131


  LOC  OBJECT CODE    ADDR1 ADDR2  STMT   SOURCE STATEMENT                                          FDOS CL3-10 03/29/70

                                   5669 * GLOBAL
                                   5670          ASSGN SYSLOG,X'01F'
                                   5671+*360N-CL-453  ASSGN    CHANGE LEVEL   3-11                         3-11
                                   5672+         ORG   SYSLUB+L'LUBTAB*SYSLOG ORG TO SYSTEM LUB TABLE. IF THIS X
003C4C                                 +               STMT ASSEMBLES IN ERROR THE LOGICAL UNIT IS WRONG.
                                   5673+         DC    AL1(P01F) PUB POINTER IN LUB. IF THIS STATEMENT ASSEMS IX
003C4C 06                              +               N ERROR THERE WAS NO DVCGEN FOR X'CUU'.
003C4D FF                          5674+         DC    X'FF' SPECIFY STANDARD ASSIGNMENT
                                   5675          ASSGN SYSLNK,X'192'
                                   5676+*360N-CL-453  ASSGN    CHANGE LEVEL   3-11                         3-11
                                   5677+         ORG   SYSLUB+L'LUBTAB*SYSLNK ORG TO SYSTEM LUB TABLE. IF THIS X
003C4E                                 +               STMT ASSEMBLES IN ERROR THE LOGICAL UNIT IS WRONG.
                                   5678+         DC    AL1(P192) PUB POINTER IN LUB. IF THIS STATEMENT ASSEMS IX
003C4E 16                              +               N ERROR THERE WAS NO DVCGEN FOR X'CUU'.
003C4F FF                          5679+         DC    X'FF' SPECIFY STANDARD ASSIGNMENT

                                   5681 * BG
                                   5682          ASSGN SYSRDR,X'00C',BG
                                   5683+*360N-CL-453  ASSGN    CHANGE LEVEL   3-11                         3-11
                                   5684+         ORG   SYSLUB+L'LUBTAB*SYSRDR ORG TO SYSTEM LUB TABLE. IF THIS X
003C44                                 +               STMT ASSEMBLES IN ERROR THE LOGICAL UNIT IS WRONG.
                                   5685+         DC    AL1(P00C) PUB POINTER IN LUB. IF THIS STATEMENT ASSEMS IX
003C44 00                              +               N ERROR THERE WAS NO DVCGEN FOR X'CUU'.
003C45 FF                          5686+         DC    X'FF' SPECIFY STANDARD ASSIGNMENT
                                   5687          ASSGN SYSIPT,X'00C',BG
                                   5688+*360N-CL-453  ASSGN    CHANGE LEVEL   3-11                         3-11
                                   5689+         ORG   SYSLUB+L'LUBTAB*SYSIPT ORG TO SYSTEM LUB TABLE. IF THIS X
003C46                                 +               STMT ASSEMBLES IN ERROR THE LOGICAL UNIT IS WRONG.
                                   5690+         DC    AL1(P00C) PUB POINTER IN LUB. IF THIS STATEMENT ASSEMS IX
003C46 00                              +               N ERROR THERE WAS NO DVCGEN FOR X'CUU'.
003C47 FF                          5691+         DC    X'FF' SPECIFY STANDARD ASSIGNMENT
                                   5692          ASSGN SYSPCH,X'00D',BG
                                   5693+*360N-CL-453  ASSGN    CHANGE LEVEL   3-11                         3-11
                                   5694+         ORG   SYSLUB+L'LUBTAB*SYSPCH ORG TO SYSTEM LUB TABLE. IF THIS X
003C48                                 +               STMT ASSEMBLES IN ERROR THE LOGICAL UNIT IS WRONG.
                                   5695+         DC    AL1(P00D) PUB POINTER IN LUB. IF THIS STATEMENT ASSEMS IX
003C48 01                              +               N ERROR THERE WAS NO DVCGEN FOR X'CUU'.
003C49 FF                          5696+         DC    X'FF' SPECIFY STANDARD ASSIGNMENT
                                   5697          ASSGN SYSLST,X'00E',BG
                                   5698+*360N-CL-453  ASSGN    CHANGE LEVEL   3-11                         3-11
                                   5699+         ORG   SYSLUB+L'LUBTAB*SYSLST ORG TO SYSTEM LUB TABLE. IF THIS X
003C4A                                 +               STMT ASSEMBLES IN ERROR THE LOGICAL UNIT IS WRONG.
                                   5700+         DC    AL1(P00E) PUB POINTER IN LUB. IF THIS STATEMENT ASSEMS IX
003C4A 02                              +               N ERROR THERE WAS NO DVCGEN FOR X'CUU'.
003C4B FF                          5701+         DC    X'FF' SPECIFY STANDARD ASSIGNMENT
                                   5702          ASSGN SYS001,X'192',BG   COMPILER WORKFILE
                                   5703+*360N-CL-453  ASSGN    CHANGE LEVEL   3-11                         3-11
003C5C                             5704+         ORG   PGRLUB+L'LUBTAB*001
                                   5705+         DC    AL1(P192) PUB POINTER IN LUB. IF THIS STATEMENT ASSEMS IX
003C5C 16                              +               N ERROR THERE WAS NO DVCGEN FOR X'CUU'.
003C5D FF                          5706+         DC    X'FF' SPECIFY STANDARD ASSIGNMENT
       DOS SUPERVISOR - INPUT/OUTPUT TABLES                                                                    PAGE  132


  LOC  OBJECT CODE    ADDR1 ADDR2  STMT   SOURCE STATEMENT                                          FDOS CL3-10 03/29/70

                                   5707          ASSGN SYS002,X'192',BG   COMPILER WORKFILE
                                   5708+*360N-CL-453  ASSGN    CHANGE LEVEL   3-11                         3-11
003C5E                             5709+         ORG   PGRLUB+L'LUBTAB*002
                                   5710+         DC    AL1(P192) PUB POINTER IN LUB. IF THIS STATEMENT ASSEMS IX
003C5E 16                              +               N ERROR THERE WAS NO DVCGEN FOR X'CUU'.
003C5F FF                          5711+         DC    X'FF' SPECIFY STANDARD ASSIGNMENT
                                   5712          ASSGN SYS003,X'192',BG   COMPILER/SORT WORKFILE
                                   5713+*360N-CL-453  ASSGN    CHANGE LEVEL   3-11                         3-11
003C60                             5714+         ORG   PGRLUB+L'LUBTAB*003
                                   5715+         DC    AL1(P192) PUB POINTER IN LUB. IF THIS STATEMENT ASSEMS IX
003C60 16                              +               N ERROR THERE WAS NO DVCGEN FOR X'CUU'.
003C61 FF                          5716+         DC    X'FF' SPECIFY STANDARD ASSIGNMENT
                                   5717          ASSGN SYS004,X'192',BG   REQ'D FOR FCOBOL, USED FOR SORT
                                   5718+*360N-CL-453  ASSGN    CHANGE LEVEL   3-11                         3-11
003C62                             5719+         ORG   PGRLUB+L'LUBTAB*004
                                   5720+         DC    AL1(P192) PUB POINTER IN LUB. IF THIS STATEMENT ASSEMS IX
003C62 16                              +               N ERROR THERE WAS NO DVCGEN FOR X'CUU'.
003C63 FF                          5721+         DC    X'FF' SPECIFY STANDARD ASSIGNMENT
                                   5722          ASSGN SYS005,X'192',BG   SORT WORKFILE
                                   5723+*360N-CL-453  ASSGN    CHANGE LEVEL   3-11                         3-11
003C64                             5724+         ORG   PGRLUB+L'LUBTAB*005
                                   5725+         DC    AL1(P192) PUB POINTER IN LUB. IF THIS STATEMENT ASSEMS IX
003C64 16                              +               N ERROR THERE WAS NO DVCGEN FOR X'CUU'.
003C65 FF                          5726+         DC    X'FF' SPECIFY STANDARD ASSIGNMENT

                                   5728 * F2 - VALID ONLY WHEN POWER RUNNING
                                   5729          ASSGN SYSRDR,X'02C',F2
                                   5730+*360N-CL-453  ASSGN    CHANGE LEVEL   3-11                         3-11
                                   5731+         ORG   F2LUB+L'LUBTAB*SYSRDR+0 ORG TO FG SYSTEM LUB TABLE  3-7IX
003C9A                                 +               F STATEMENT ASSEMBLES IN ERROR, LOG UNIT IS WRONG.  3-7
                                   5732+         DC    AL1(P02C) PUB POINTER IN LUB. IF THIS STATEMENT ASSEMS IX
003C9A 07                              +               N ERROR THERE WAS NO DVCGEN FOR X'CUU'.
003C9B FF                          5733+         DC    X'FF' SPECIFY STANDARD ASSIGNMENT
                                   5734          ASSGN SYSIPT,X'02C',F2
                                   5735+*360N-CL-453  ASSGN    CHANGE LEVEL   3-11                         3-11
                                   5736+         ORG   F2LUB+L'LUBTAB*SYSIPT+0 ORG TO FG SYSTEM LUB TABLE  3-7IX
003C9C                                 +               F STATEMENT ASSEMBLES IN ERROR, LOG UNIT IS WRONG.  3-7
                                   5737+         DC    AL1(P02C) PUB POINTER IN LUB. IF THIS STATEMENT ASSEMS IX
003C9C 07                              +               N ERROR THERE WAS NO DVCGEN FOR X'CUU'.
003C9D FF                          5738+         DC    X'FF' SPECIFY STANDARD ASSIGNMENT
                                   5739          ASSGN SYSPCH,X'02D',F2
                                   5740+*360N-CL-453  ASSGN    CHANGE LEVEL   3-11                         3-11
                                   5741+         ORG   F2LUB+L'LUBTAB*SYSPCH+0 ORG TO FG SYSTEM LUB TABLE  3-7IX
003C9E                                 +               F STATEMENT ASSEMBLES IN ERROR, LOG UNIT IS WRONG.  3-7
                                   5742+         DC    AL1(P02D) PUB POINTER IN LUB. IF THIS STATEMENT ASSEMS IX
003C9E 08                              +               N ERROR THERE WAS NO DVCGEN FOR X'CUU'.
003C9F FF                          5743+         DC    X'FF' SPECIFY STANDARD ASSIGNMENT
                                   5744          ASSGN SYSLST,X'02E',F2
                                   5745+*360N-CL-453  ASSGN    CHANGE LEVEL   3-11                         3-11
                                   5746+         ORG   F2LUB+L'LUBTAB*SYSLST+0 ORG TO FG SYSTEM LUB TABLE  3-7IX
003CA0                                 +               F STATEMENT ASSEMBLES IN ERROR, LOG UNIT IS WRONG.  3-7
       DOS SUPERVISOR - INPUT/OUTPUT TABLES                                                                    PAGE  133


  LOC  OBJECT CODE    ADDR1 ADDR2  STMT   SOURCE STATEMENT                                          FDOS CL3-10 03/29/70

                                   5747+         DC    AL1(P02E) PUB POINTER IN LUB. IF THIS STATEMENT ASSEMS IX
003CA0 09                              +               N ERROR THERE WAS NO DVCGEN FOR X'CUU'.
003CA1 FF                          5748+         DC    X'FF' SPECIFY STANDARD ASSIGNMENT
                                   5749          ASSGN SYS001,X'193',F2   COMPILER WORKFILE
                                   5750+*360N-CL-453  ASSGN    CHANGE LEVEL   3-11                         3-11
003CB2                             5751+         ORG   F2LUB+L'LUBTAB*001+0+11*2 ORG TO FG PROG LUBS 3-9
                                   5752+         DC    AL1(P193) PUB POINTER IN LUB. IF THIS STATEMENT ASSEMS IX
003CB2 17                              +               N ERROR THERE WAS NO DVCGEN FOR X'CUU'.
003CB3 FF                          5753+         DC    X'FF' SPECIFY STANDARD ASSIGNMENT
                                   5754          ASSGN SYS002,X'193',F2   COMPILER WORKFILE
                                   5755+*360N-CL-453  ASSGN    CHANGE LEVEL   3-11                         3-11
003CB4                             5756+         ORG   F2LUB+L'LUBTAB*002+0+11*2 ORG TO FG PROG LUBS 3-9
                                   5757+         DC    AL1(P193) PUB POINTER IN LUB. IF THIS STATEMENT ASSEMS IX
003CB4 17                              +               N ERROR THERE WAS NO DVCGEN FOR X'CUU'.
003CB5 FF                          5758+         DC    X'FF' SPECIFY STANDARD ASSIGNMENT
                                   5759          ASSGN SYS003,X'193',F2   COMPILER/SORT WORKFILE
                                   5760+*360N-CL-453  ASSGN    CHANGE LEVEL   3-11                         3-11
003CB6                             5761+         ORG   F2LUB+L'LUBTAB*003+0+11*2 ORG TO FG PROG LUBS 3-9
                                   5762+         DC    AL1(P193) PUB POINTER IN LUB. IF THIS STATEMENT ASSEMS IX
003CB6 17                              +               N ERROR THERE WAS NO DVCGEN FOR X'CUU'.
003CB7 FF                          5763+         DC    X'FF' SPECIFY STANDARD ASSIGNMENT
                                   5764          ASSGN SYS004,X'193',F2   REQ'D FOR FCOBOL, USED FOR SORT
                                   5765+*360N-CL-453  ASSGN    CHANGE LEVEL   3-11                         3-11
003CB8                             5766+         ORG   F2LUB+L'LUBTAB*004+0+11*2 ORG TO FG PROG LUBS 3-9
                                   5767+         DC    AL1(P193) PUB POINTER IN LUB. IF THIS STATEMENT ASSEMS IX
003CB8 17                              +               N ERROR THERE WAS NO DVCGEN FOR X'CUU'.
003CB9 FF                          5768+         DC    X'FF' SPECIFY STANDARD ASSIGNMENT
                                   5769          ASSGN SYS005,X'193',F2   SORT WORKFILE
                                   5770+*360N-CL-453  ASSGN    CHANGE LEVEL   3-11                         3-11
003CBA                             5771+         ORG   F2LUB+L'LUBTAB*005+0+11*2 ORG TO FG PROG LUBS 3-9
                                   5772+         DC    AL1(P193) PUB POINTER IN LUB. IF THIS STATEMENT ASSEMS IX
003CBA 17                              +               N ERROR THERE WAS NO DVCGEN FOR X'CUU'.
003CBB FF                          5773+         DC    X'FF' SPECIFY STANDARD ASSIGNMENT


                                   5775 * END OF SUPERVISOR - 24K

                                   5777          SEND  24576
                                   5778+*360N-CL-453 SEND     CHANGE LEVEL 3-11                            3-11
       DOS SUPERVISOR - SUPERVISOR END ROUTINES                                                                PAGE  134


  LOC  OBJECT CODE    ADDR1 ADDR2  STMT   SOURCE STATEMENT                                          FDOS CL3-10 03/29/70

003DAC                             5780+         ORG   IOTEND
003DAC                             5781+         DS    150C PTO PATCH AREA                  3-4
003DAC                             5782+         ORG   *-150 3-10
003DB0                             5783+ACCTBG   DS    0D BG ACCT TABLE               3-9
003DB0 0000000000000000            5784+         DC    12X'00' WORK AREA                    3-9
003DBC 01                          5785+         DC    X'01' PARTITION SWITCH KEY         3-9
003DBD 00                          5786+         DC    X'00' RESERVED                     3-9
003DBE 0049                        5787+         DC    AL2(6*12+1) LENGTH OF SID TABLE          3-9
003DC0 1900                        5788+         DC    XL2'1900' 3-9
003DC2 0000000000000000            5789+         DC    XL14'0' 3-9
003DD0 00000000                    5790+         DC    F'0' OVERHEAD CPU COUNTER         3-9
003DD4 00000000                    5791+         DC    F'0' WAIT TIME COUNTER            3-9
003DD8 4040404040404040            5792+         DC    CL8' ' SAVE AREA FOR JOB NAME       3-9
003DE0 4040404040404040            5793+         DC    CL8' ' JOB NAME                     3-9
003DE8 4040404040404040            5794+         DC    CL16' ' USER INFO                    3-9
003DF8 C2C7                        5795+         DC    CL2'BG' PARTITION ID                 3-9
003DFA 00                          5796+         DC    X'00' CANCEL CODE                  3-9
003DFB 00                          5797+         DC    X'00' TYPE OF ACCT RECORD          3-9
003DFC 4040404040404040            5798+         DC    CL8' ' JOB DATE                     3-9
003E04 0000000F                    5799+         DC    XL4'0F' JOB START TIME               3-9
003E08 0000000F                    5800+         DC    XL4'0F' JOB STOP  TIME               3-9
003E0C 00000000                    5801+         DC    XL4'0' RESERVED                     3-9
003E10 4040404040404040            5802+         DC    CL8' ' PHASE NAME                   3-9
003E18 00000000                    5803+         DC    XL4'0' HI CORE ADDR OF PRDG         3-9
003E1C 00000000                    5804+         DC    XL4'0' JOB STEP CPU TIME            3-9
003E20 00000000                    5805+         DC    XL4'0' OVERHEAD TIME                3-9
003E24 00000000                    5806+         DC    XL4'0' ALL BOUND TIME               3-9
003E28 1000000000001000            5807+         DC    12XL6'100000000000' SIO TABLE              3-9
003E70 20                          5808+         DC    X'20' OVERFLOW BYTE                3-9
003E78                             5809+ACCTF2   DS    0D F2 ACCT TABLE               3-9
003E78 0000000000000000            5810+         DC    12X'00' WORK AREA                    3-9
003E84 02                          5811+         DC    X'02' PARTITION SWITCH KEY         3-9
003E85 00                          5812+         DC    X'00' RESERVED                     3-9
003E86 0049                        5813+         DC    AL2(6*12+1) LENGTH OF SID TABLE          3-9
003E88 1900                        5814+         DC    XL2'1900' 3-9
003E8A 0000000000000000            5815+         DC    XL14'0' 3-9
003E98 00000000                    5816+         DC    F'0' OVERHEAD CPU COUNTER         3-9
003E9C 00000000                    5817+         DC    F'0' WAIT TIME COUNTER            3-9
003EA0 4040404040404040            5818+         DC    CL8' ' SAVE AREA FOR JOB NAME       3-9
003EA8 4040404040404040            5819+         DC    CL8' ' JOB NAME                     3-9
003EB0 4040404040404040            5820+         DC    CL16' ' USER INFO                    3-9
003EC0 C6F2                        5821+         DC    CL2'F2' PARTITION ID                 3-9
003EC2 00                          5822+         DC    X'00' CANCEL CODE                  3-9
003EC3 00                          5823+         DC    X'00' TYPE OF ACCT RECORD          3-9
003EC4 4040404040404040            5824+         DC    CL8' ' JOB DATE                     3-9
003ECC 0000000F                    5825+         DC    XL4'0F' JOB START TIME               3-9
003ED0 0000000F                    5826+         DC    XL4'0F' JOB STOP  TIME               3-9
003ED4 00000000                    5827+         DC    XL4'0' RESERVED                     3-9
003ED8 4040404040404040            5828+         DC    CL8' ' PHASE NAME                   3-9
003EE0 00000000                    5829+         DC    XL4'0' HI CORE ADDR OF PRDG         3-9
003EE4 00000000                    5830+         DC    XL4'0' JOB STEP CPU TIME            3-9
       DOS SUPERVISOR - SUPERVISOR END ROUTINES                                                                PAGE  135


  LOC  OBJECT CODE    ADDR1 ADDR2  STMT   SOURCE STATEMENT                                          FDOS CL3-10 03/29/70

003EE8 00000000                    5831+         DC    XL4'0' OVERHEAD TIME                3-9
003EEC 00000000                    5832+         DC    XL4'0' ALL BOUND TIME               3-9
003EF0 1000000000001000            5833+         DC    12XL6'100000000000' SIO TABLE              3-9
003F38 20                          5834+         DC    X'20' OVERFLOW BYTE                3-9
003F40                             5835+ACCTF1   DS    0D F1 ACCT TABLE               3-9
003F40 0000000000000000            5836+         DC    12X'00' WORK AREA                    3-9
003F4C 04                          5837+         DC    X'04' PARTITION SWITCH KEY         3-9
003F4D 00                          5838+         DC    X'00' RESERVED                     3-9
003F4E 0049                        5839+         DC    AL2(6*12+1) LENGTH OF SID TABLE          3-9
003F50 1900                        5840+         DC    XL2'1900' 3-9
003F52 0000000000000000            5841+         DC    XL14'0' 3-9
003F60 00000000                    5842+         DC    F'0' OVERHEAD CPU COUNTER         3-9
003F64 00000000                    5843+         DC    F'0' WAIT TIME COUNTER            3-9
003F68 4040404040404040            5844+         DC    CL8' ' SAVE AREA FOR JOB NAME       3-9
003F70 4040404040404040            5845+         DC    CL8' ' JOB NAME                     3-9
003F78 4040404040404040            5846+         DC    CL16' ' USER INFO                    3-9
003F88 C6F1                        5847+         DC    CL2'F1' PARTITION ID                 3-9
003F8A 00                          5848+         DC    X'00' CANCEL CODE                  3-9
003F8B 00                          5849+         DC    X'00' TYPE OF ACCT RECORD          3-9
003F8C 4040404040404040            5850+         DC    CL8' ' JOB DATE                     3-9
003F94 0000000F                    5851+         DC    XL4'0F' JOB START TIME               3-9
003F98 0000000F                    5852+         DC    XL4'0F' JOB STOP  TIME               3-9
003F9C 00000000                    5853+         DC    XL4'0' RESERVED                     3-9
003FA0 4040404040404040            5854+         DC    CL8' ' PHASE NAME                   3-9
003FA8 00000000                    5855+         DC    XL4'0' HI CORE ADDR OF PRDG         3-9
003FAC 00000000                    5856+         DC    XL4'0' JOB STEP CPU TIME            3-9
003FB0 00000000                    5857+         DC    XL4'0' OVERHEAD TIME                3-9
003FB4 00000000                    5858+         DC    XL4'0' ALL BOUND TIME               3-9
003FB8 1000000000001000            5859+         DC    12XL6'100000000000' SIO TABLE              3-9
004000 20                          5860+         DC    X'20' OVERFLOW BYTE                3-9
004001 1000000000001000            5861+         DC    12XL6'100000000000' SIO TABLE              3-9
004049 20                          5862+         DC    X'20' OVERFLOW BYTE                3-9
004050                             5863+         DS    0D 3-9
004050 0000000000000000            5864+ACCTUSER DC    72X'0' USER SAVE AREA             3-9
004098                             5865+         DS    0H 3-10
       DOS SUPERVISOR - F2 COMMUNICATIONS REGION                                                               PAGE  136


  LOC  OBJECT CODE    ADDR1 ADDR2  STMT   SOURCE STATEMENT                                          FDOS CL3-10 03/29/70

                                   5868+*360N-CL-453 COMMN    CHANGE LEVEL 3-11                            3-11
004098                             5869+F2COMR   DS    0D
004098 F0F261F1F661F6F7            5870+         DC    C'02/16/67' 00 JOB DATE
0040A0 6000                        5871+         DC    Y(PPBEG) 08 LNK EDT SUPVR END
0040A2 6000                        5872+         DC    Y(EOSSP) 10 END OF STORAGE PROTECT
0040A4 0000000000000000            5873+         DC    11X'0' 12  USER SCRATCH AREA
0040AF 00                          5874+         DC    X'0' 23  UPSI BYTE
0040B0 D5D640D5C1D4C540            5875+         DC    CL8'NO NAME' 24 JOB NAME
0040B8 00003FFF                    5876+         DC    A(16383) 32 UPPERMOST BYTE OF PP AREA
0040BC 00003F10                    5877+         DC    A(16144) 36 LAST FETCH OR LOAD
0040C0 00003F10                    5878+         DC    A(16144) 40 LONGEST PP PHASE
0040C4 0000                        5879+         DC    H'0' 44 LENGTH OF PP LABEL AREA
0040C6 0020                        5880+         DC    Y(32) 46 PROG INTERRUPT KEY (PIK)
0040C8 00003F10                    5881+         DC    A(16144) 48 END OF CORE ADDRESS
0040CC F8                          5882+         DC    B'11111000' 52 MACH CONFIG  3-2
0040CD 7F                          5883+         DC    B'01111111' 53 CONFG 3-3
0040CE 4C                          5884+         DC    B'01001100' 54 STD J.C.S.
0040CF 91                          5885+         DC    B'10010001' 55 STD JCS AND ASCII SW 3-8
0040D0 00                          5886+         DC    B'00000000' 56 JOB CONTROL SWITCHES           3-9
0040D1 00                          5887+         DC    X'00' 57 JOB CONTROL SWITCHES
0040D2 4C                          5888+         DC    B'01001100' 58 J.C. SW.
0040D3 10                          5889+         DC    B'00010000' 59 JOB CTL SW6                3-9
0040D4 0000                        5890+         DC    X'0000' 60 DISK ADDRESS OF LABEL CYL.
0040D6 3881                        5891+         DC    Y(FOCL) 62 ADDRESS OF FOCL
0040D8 3888                        5892+         DC    Y(PUBTAB) 64 ADDRESS OF PUB TABLE
0040DA 3A09                        5893+         DC    Y(FAVP) 66 ADDRESS OF FAVP
0040DC 3A0A                        5894+         DC    Y(JIBTAB) 68 ADDRESS OF JIB TABLE
0040DE 3C0C                        5895+         DC    Y(TEBTAB) 70 ADDRESS OF TEB TABLE
0040E0 3C3C                        5896+         DC    Y(FICL) 72 ADDRESS OF FICL
0040E2 3C40                        5897+         DC    Y(NICL) 74 ADDRESS OF NICL
0040E4 3C44                        5898+         DC    Y(LUBTAB) 76 ADDRESS OF LUB TABLE
0040E6 38                          5899+         DC    AL1(56) 78 SYSLST LINE COUNT
0040E7 F0F2F1F6F6F7F0F4            5900+         DC    CL9'021667047' 79 SYSTEM DATE
0040F0 0000                        5901+         DC    2X'00' 88 LIOCS COMMUNICATIONS BYTES
0040F2 35E0                        5902+         DC    Y(PIBTAB) 90 ADDRESS OF FIRST PART OF PIB
0040F4 0000                        5903+         DC    H'0' 92 LAST CHECKPOINT NUMBER
0040F6 0000                        5904+         DC    X'0000' 94 LENGTH OF LUBID QUE
0040F8 1898                        5905+         DC    Y(DSKPOS+96) .    96 F2 DIB PTR                    3-9
0040FA 1972                        5906+         DC    Y(ERBLOC) 98 CHAN SCHED SAVE AREA
0040FC 1A2C                        5907+         DC    Y(PCTAB-8) 100 ADDR OF PC OPTION TABLE
0040FE 1A9C                        5908+         DC    Y(ITTAB-8*ITKEY) 102 ADDR OF IT OPTION TABLE
004100 1AAC                        5909+         DC    Y(OCTAB-8) 104 ADDR OF OC OPTION TABLE
004102 0020                        5910+         DC    Y(16*ITKEY) 106 KEY OF PROG WITH IT SUPPORT
004104 3800                        5911+         DC    Y(LUBIDTAB) 108 ADDRESS OF LUB ID QUEUE
004106 0020                        5912+         DC    Y(32) 110 LOGICAL TRANSIENT KEY
004108 0000000000000000            5913+         DC    3F'0'
004114 34E0                        5914+         DC    Y(PIB2AD) 124 ADDR OF SECOND PART OF PIB
004116 0000                        5915+         DC    Y(0) 126 ADDR OF MICR DTF TABLE
004118 00000000                    5916+         DC    A(0) 128 ADDR OF QTAM VECTOR TABLE
00411C 03F0                        5917+         DC    Y(COMREG) 132 ADDR OF BG COMM. REGION
00411E 00                          5918+         DC    X'00' .             134 OPTION INDICATOR BYTE        3-9
       DOS SUPERVISOR - F2 COMMUNICATIONS REGION                                                               PAGE  137


  LOC  OBJECT CODE    ADDR1 ADDR2  STMT   SOURCE STATEMENT                                          FDOS CL3-10 03/29/70

00411F 80                          5919+         DC    B'10000000' .  135 SYSTEM CONFG BYTE 2          3-9
004120 000041B4                    5920+         DC    A(F2XTNSN) 136 ADDR OF EXTENSION OF COMREG
       DOS SUPERVISOR - F1 COMMUNICATIONS REGION                                                               PAGE  138


  LOC  OBJECT CODE    ADDR1 ADDR2  STMT   SOURCE STATEMENT                                          FDOS CL3-10 03/29/70

                                   5923+*360N-CL-453 COMMN    CHANGE LEVEL 3-11                            3-11
004128                             5924+F1COMR   DS    0D
004128 F0F261F1F661F6F7            5925+         DC    C'02/16/67' 00 JOB DATE
004130 6000                        5926+         DC    Y(PPBEG) 08 LNK EDT SUPVR END
004132 6000                        5927+         DC    Y(EOSSP) 10 END OF STORAGE PROTECT
004134 0000000000000000            5928+         DC    11X'0' 12  USER SCRATCH AREA
00413F 00                          5929+         DC    X'0' 23  UPSI BYTE
004140 D5D640D5C1D4C540            5930+         DC    CL8'NO NAME' 24 JOB NAME
004148 00003FFF                    5931+         DC    A(16383) 32 UPPERMOST BYTE OF PP AREA
00414C 00003F10                    5932+         DC    A(16144) 36 LAST FETCH OR LOAD
004150 00003F10                    5933+         DC    A(16144) 40 LONGEST PP PHASE
004154 0000                        5934+         DC    H'0' 44 LENGTH OF PP LABEL AREA
004156 0030                        5935+         DC    Y(48) 46 PROG INTERRUPT KEY (PIK)
004158 00003F10                    5936+         DC    A(16144) 48 END OF CORE ADDRESS
00415C F8                          5937+         DC    B'11111000' 52 MACH CONFIG  3-2
00415D 7F                          5938+         DC    B'01111111' 53 CONFG 3-3
00415E 4C                          5939+         DC    B'01001100' 54 STD J.C.S.
00415F 91                          5940+         DC    B'10010001' 55 STD JCS AND ASCII SW 3-8
004160 00                          5941+         DC    B'00000000' 56 JOB CONTROL SWITCHES           3-9
004161 00                          5942+         DC    X'00' 57 JOB CONTROL SWITCHES
004162 4C                          5943+         DC    B'01001100' 58 J.C. SW.
004163 10                          5944+         DC    B'00010000' 59 JOB CTL SW6                3-9
004164 0000                        5945+         DC    X'0000' 60 DISK ADDRESS OF LABEL CYL.
004166 3881                        5946+         DC    Y(FOCL) 62 ADDRESS OF FOCL
004168 3888                        5947+         DC    Y(PUBTAB) 64 ADDRESS OF PUB TABLE
00416A 3A09                        5948+         DC    Y(FAVP) 66 ADDRESS OF FAVP
00416C 3A0A                        5949+         DC    Y(JIBTAB) 68 ADDRESS OF JIB TABLE
00416E 3C0C                        5950+         DC    Y(TEBTAB) 70 ADDRESS OF TEB TABLE
004170 3C3C                        5951+         DC    Y(FICL) 72 ADDRESS OF FICL
004172 3C40                        5952+         DC    Y(NICL) 74 ADDRESS OF NICL
004174 3C44                        5953+         DC    Y(LUBTAB) 76 ADDRESS OF LUB TABLE
004176 38                          5954+         DC    AL1(56) 78 SYSLST LINE COUNT
004177 F0F2F1F6F6F7F0F4            5955+         DC    CL9'021667047' 79 SYSTEM DATE
004180 0000                        5956+         DC    2X'00' 88 LIOCS COMMUNICATIONS BYTES
004182 35E0                        5957+         DC    Y(PIBTAB) 90 ADDRESS OF FIRST PART OF PIB
004184 0000                        5958+         DC    H'0' 92 LAST CHECKPOINT NUMBER
004186 0000                        5959+         DC    X'0000' 94 LENGTH OF LUBID QUE
004188 18F8                        5960+         DC    Y(DSKPOS+96*2) .  96 F1 DIB PTR                    3-9
00418A 1972                        5961+         DC    Y(ERBLOC) 98 CHAN SCHED SAVE AREA
00418C 1A2C                        5962+         DC    Y(PCTAB-8) 100 ADDR OF PC OPTION TABLE
00418E 1A9C                        5963+         DC    Y(ITTAB-8*ITKEY) 102 ADDR OF IT OPTION TABLE
004190 1AAC                        5964+         DC    Y(OCTAB-8) 104 ADDR OF OC OPTION TABLE
004192 0020                        5965+         DC    Y(16*ITKEY) 106 KEY OF PROG WITH IT SUPPORT
004194 3800                        5966+         DC    Y(LUBIDTAB) 108 ADDRESS OF LUB ID QUEUE
004196 0030                        5967+         DC    Y(48) 110 LOGICAL TRANSIENT KEY
004198 0000000000000000            5968+         DC    3F'0'
0041A4 34E0                        5969+         DC    Y(PIB2AD) 124 ADDR OF SECOND PART OF PIB
0041A6 0000                        5970+         DC    Y(0) 126 ADDR OF MICR DTF TABLE
0041A8 00000000                    5971+         DC    A(0) 128 ADDR OF QTAM VECTOR TABLE
0041AC 03F0                        5972+         DC    Y(COMREG) 132 ADDR OF BG COMM. REGION
0041AE 00                          5973+         DC    X'00' .             134 OPTION INDICATOR BYTE        3-9
       DOS SUPERVISOR - F1 COMMUNICATIONS REGION                                                               PAGE  139


  LOC  OBJECT CODE    ADDR1 ADDR2  STMT   SOURCE STATEMENT                                          FDOS CL3-10 03/29/70

0041AF 80                          5974+         DC    B'10000000' .  135 SYSTEM CONFG BYTE 2          3-9
0041B0 000041F4                    5975+         DC    A(F1XTNSN) 136 ADDR OF EXTENSION OF COMREG
       F2 COMMUNICATIONS REGION EXTENSION                                                                      PAGE  140


  LOC  OBJECT CODE    ADDR1 ADDR2  STMT   SOURCE STATEMENT                                          FDOS CL3-10 03/29/70

                                   5978+*360N-CL-453 COMMNEX    CHANGE LEVEL 3-11                          3-11
0041B4                             5979+F2XTNSN  DS    0F EXTENSION OF COMM REG
0041B4 00005C40                    5980+         DC    A(CETAB) 00 ADDR OF CE TABLE
0041B8 00003D4C                    5981+         DC    A(TKHDTAB) 04 ADDR OF TRACK HOLD TABLE
0041BC 00000100                    5982+         DC    A(PIBTAB-PIB2AD) 08 DIFFERENCE BETWEEN PIB TABLES
0041C0 00001AC4                    5983+         DC    A(ABTAB-8) 12 ADDR OF AB TERM TABLE
0041C4 0020                        5984+         DC    X'0020' 16 ID OF TASK OWNING LTA
0041C6 0020                        5985+         DC    X'0020' 18 ID OF TASK RUNNING
0041C8 00003860                    5986+         DC    A(TSKIDTAB) 20 ADDR OF TASK REQID TBL
0041CC 00001A20                    5987+         DC    A(MVCFLD) 24 ADDR FOR QTAM
0041D0 00000000                    5988+         DC    A(0) 28 POINTER TO SDR TABLE
0041D4 00000000                    5989+         DC    A(0) 32 NOT USED
0041D8 00000000                    5990+         DC    A(0) 36                               3-9
0041DC 00000000                    5991+         DC    A(0) 40                               3-9
0041E0 00004234                    5992+         DC    A(TRTAB) 44 POINTER TO TRANSLATE TABLE
0041E4 00000000                    5993+         DC    A(0) 48 NOT USED
0041E8 00000638                    5994+         DC    A(ACCTCOMN) 52 POINTER TO JA COMMON TABLE
0041EC 00003E78                    5995+         DC    A(ACCTF2) 56 POINTER TO JA PARTITION TABLE
0041F0 00003705                    5996+         DC    A(SPARMF2) 60  POINTER TO SYSPARM FIELD
       F1 COMMUNICATIONS REGION EXTENSION                                                                      PAGE  141


  LOC  OBJECT CODE    ADDR1 ADDR2  STMT   SOURCE STATEMENT                                          FDOS CL3-10 03/29/70

                                   5998+*360N-CL-453 COMMNEX    CHANGE LEVEL 3-11                          3-11
0041F4                             5999+F1XTNSN  DS    0F EXTENSION OF COMM REG
0041F4 00005C40                    6000+         DC    A(CETAB) 00 ADDR OF CE TABLE
0041F8 00003D4C                    6001+         DC    A(TKHDTAB) 04 ADDR OF TRACK HOLD TABLE
0041FC 00000100                    6002+         DC    A(PIBTAB-PIB2AD) 08 DIFFERENCE BETWEEN PIB TABLES
004200 00001AC4                    6003+         DC    A(ABTAB-8) 12 ADDR OF AB TERM TABLE
004204 0030                        6004+         DC    X'0030' 16 ID OF TASK OWNING LTA
004206 0030                        6005+         DC    X'0030' 18 ID OF TASK RUNNING
004208 00003860                    6006+         DC    A(TSKIDTAB) 20 ADDR OF TASK REQID TBL
00420C 00001A20                    6007+         DC    A(MVCFLD) 24 ADDR FOR QTAM
004210 00000000                    6008+         DC    A(0) 28 POINTER TO SDR TABLE
004214 00000000                    6009+         DC    A(0) 32 NOT USED
004218 00000000                    6010+         DC    A(0) 36                               3-9
00421C 00000000                    6011+         DC    A(0) 40                               3-9
004220 00004234                    6012+         DC    A(TRTAB) 44 POINTER TO TRANSLATE TABLE
004224 00000000                    6013+         DC    A(0) 48 NOT USED
004228 00000638                    6014+         DC    A(ACCTCOMN) 52 POINTER TO JA COMMON TABLE
00422C 00003F40                    6015+         DC    A(ACCTF1) 56 POINTER TO JA PARTITION TABLE
004230 0000370E                    6016+         DC    A(SPARMF1) 60  POINTER TO SYSPARM FIELD

                                   6018+* 360N-CL-453 TRTAB                    CHANGE LEVEL 3-8
                                   6019+*
                                   6020+*   ASCII TO EBCDIC TRANSLATE TABLE
                                   6021+*
004234 00010203372D2E2F            6022+TRTAB    DC    X'00010203372D2E2F1605250B0C0D0E0F10111213'
004248 3C3D322618193F27            6023+         DC    X'3C3D322618193F271C1D1E1F404F7F7B5B6C507D'
00425C 4D5D5C4E6B604B61            6024+         DC    X'4D5D5C4E6B604B61F0F1F2F3F4F5F6F7F8F97A5E'
004270 4C7E6E6F7CC1C2C3            6025+         DC    X'4C7E6E6F7CC1C2C3C4C5C6C7C8C9D1D2D3D4D5D6'
004284 D7D8D9E2E3E4E5E6            6026+         DC    X'D7D8D9E2E3E4E5E6E7E8E94AE05A5F6D79818283'
004298 8485868788899192            6027+         DC    X'848586878889919293949596979899A2A3A4A5A6'
0042AC A7A8A9C06AD0A107            6028+         DC    X'A7A8A9C06AD0A107'
0042B4 3F3F3F3F3F3F3F3F            6029+         DC    128X'3F'
                                   6030+*
                                   6031+*   EBCDIC TO ASCII TRANSLATE TABLE
                                   6032+*
004334 000102031A091A7F            6033+         DC    X'000102031A091A7F1A1A1A0B0C0D0E0F10111213'
004348 1A1A081A18191A1A            6034+         DC    X'1A1A081A18191A1A1C1D1E1F1A1A1A1A1A0A171B'
00435C 1A1A1A1A1A050607            6035+         DC    X'1A1A1A1A1A0506071A1A161A1A1A1A041A1A1A1A'
004370 14151A1A20                  6036+         DC    X'14151A1A20'
004375 1A1A1A1A1A1A1A1A            6037+         DC    9X'1A'
00437E 5B2E3C282B2126              6038+         DC    X'5B2E3C282B2126'
004385 1A1A1A1A1A1A1A1A            6039+         DC    9X'1A'
00438E 5D242A293B5E2D2F            6040+         DC    X'5D242A293B5E2D2F'
004396 1A1A1A1A1A1A1A1A            6041+         DC    8X'1A'
00439E 7C2C255F3E3F                6042+         DC    X'7C2C255F3E3F'
0043A4 1A1A1A1A1A1A1A1A            6043+         DC    9X'1A'
0043AD 603A2340273D221A            6044+         DC    X'603A2340273D221A616263646566676869'
0043BE 1A1A1A1A1A1A1A              6045+         DC    7X'1A'
0043C5 6A6B6C6D6E6F7071            6046+         DC    X'6A6B6C6D6E6F707172'
0043CE 1A1A1A1A1A1A1A              6047+         DC    7X'1A'
0043D5 7E73747576777879            6048+         DC    X'7E737475767778797A'
       F1 COMMUNICATIONS REGION EXTENSION                                                                      PAGE  142


  LOC  OBJECT CODE    ADDR1 ADDR2  STMT   SOURCE STATEMENT                                          FDOS CL3-10 03/29/70

0043DE 1A1A1A1A1A1A1A1A            6049+         DC    22X'1A'
0043F4 7B41424344454647            6050+         DC    X'7B414243444546474849'
0043FE 1A1A1A1A1A1A                6051+         DC    6X'1A'
004404 7D4A4B4C4D4E4F50            6052+         DC    X'7D4A4B4C4D4E4F505152'
00440E 1A1A1A1A1A1A                6053+         DC    6X'1A'
004414 5C1A535455565758            6054+         DC    X'5C1A535455565758595A'
00441E 1A1A1A1A1A1A                6055+         DC    6X'1A'
004424 3031323334353637            6056+         DC    X'30313233343536373839'
00442E 1A1A1A1A1A1A                6057+         DC    6X'1A'

004434                             6059+         DS    50CL(1*10+(1-1)*3-1) BASIC PATCH   3-4
0044AE                             6060+         ORG   *-100-(1*228) 3-4
004432                             6061+         ORG   *-(1*124) 3-8
004432                             6062+         DS    200C T/P PATCH AREA                     3-7
00447E                             6063+         ORG   *-124 BTAM PATCH AREA                  3-10
00447E                             6064+         DS    182C AP   PATCH AREA                    3-3
0044A8                             6065+         ORG   *-140 3-9
0044A8                             6066+         DS    50C AB  PATCH AREA               3-3
0044BA                             6067+         ORG   *-32
0044BA                             6068+         DS    50C TRKHLD  PATCH AREA                   3-3
0044C4                             6069+         ORG   *-40 3-7
0044C4                             6070+         DS    50C CE PATCH AREA                  3-4
0044C4                             6071+         ORG   *-50 3-10
0044C4                             6072+         DS    50C SYSFIL PATCH AREA                3-4
0044D6                             6073+         ORG   *-32 3-8
0044D6                             6074+         DS    50C ACCOUNTING PATCH AREA         3-8
0044D6                             6075+         ORG   *-50 3-10
0044D6                             6076+         DS    50C OLTEP PATCH AREA                  3-9
0044D6                             6077+         ORG   *-50 3-10
0044D6                             6078+         DS    50C IDRA PATCH AREA                  3-9
0044D6                             6079+         ORG   *-50 3-10
0044D8                             6080+         DS    0D
0044D8                             6081+NUCEND   EQU   *
                                   6082                1,WARNING - IF ADDRESS OF NUCEND IS GREATER THAN ADDRESSX
                                                        OF SYSEND, SEND ADDRESS SPECIFICATION WAS TOO SMALL
                                   6083                1,WARNING - IF SEND ADDR IS ABSENT OR IS TOO SMALL, THE X
                                                         PHYSICAL TRANS AREA MAY NOT BE STORAGE PROTECTED
006000                             6084+PPBEG    EQU   24576+SYSS00
0053F8                             6085+SYSEND   EQU   PPBEG-3080
0053F8                             6086+         ORG   SYSEND
0053F8                             6087+IDRA     EQU   SYSEND 3-9
005568                             6088+LTA      EQU   IDRA+368 3-9
005A18                             6089+PTA      EQU   LTA+1200
005C40                             6090+CETAB    EQU   PTA+552
005C40                             6091+         ORG   CETAB
005C40 00005F87                    6092+         DC    A(CEAREAND) ADDRESS OF LAST BYTE OF OUR AREA
005C44 00005568                    6093+         DC    A(LTA) ADDR OF LOGICAL TRANSIENT AREA
005C48 000004CC                    6094+         DC    A(CEINTRHK) ADDR OF INTERRUPT TRACE HOOK
005C4C 00000AAA                    6095+         DC    A(CESIOHK) ADDR OF START I/O HOOK
005C50 00001EB2                    6096+         DC    A(CEDYNHK) ADDRESS OF DYNAMIC DUMP/PATCH HOOK    3-3
005C54 00002506                    6097+         DC    A(CETRANHK) 3-4
       F1 COMMUNICATIONS REGION EXTENSION                                                                      PAGE  143


  LOC  OBJECT CODE    ADDR1 ADDR2  STMT   SOURCE STATEMENT                                          FDOS CL3-10 03/29/70

005C58 00000674                    6098+         DC    A(CEFLTHK1) ADDR OF FETCH/LOAD TRACE HOOK 1        3-1
005C5C 00001E1E                    6099+         DC    A(CEFLTHK2) ADDR OF FETCH/LOAD TRACE HOOK 2        3-1
005C60 0000000000000000            6100+         DC    2A(0) RESERVED FOR LATER IMP               3-3
005C68                             6101+CEAREA   EQU   *
005F88                             6102+         ORG   CEAREA+800 3-9
005F88                             6103+BGSAVE   DS    0XL80 BG SAVE AREA                          3-9
005F88 D5D640D5C1D4C540            6104+         DC    CL8'NO NAME' PROGRAM ID                            3-9
005F90 0000000000000000            6105+         DC    72X'00' PSW AND REGISTERS                     3-9
005F87                             6106+CEAREAND EQU   BGSAVE-1
005FD8                             6107+         ORG   BGSAVE+80
005FD8 0000                        6108+         DC    H'0'
005A1F                             6109+LAB2     EQU   PTA+7
006000                             6110+EOSSP    EQU   24576+SYSS00
006000                             6111+IJB$$STP EQU   EOSSP
006000                             6112+IJB$$EOS EQU   PPBEG
                                   6113+         ENTRY IJB$$STP
                                   6114+         ENTRY IJB$$EOS
005FFF                             6115+SUPEND   EQU   PPBEG-1
       F1 COMMUNICATIONS REGION EXTENSION                                                                      PAGE  144


  LOC  OBJECT CODE    ADDR1 ADDR2  STMT   SOURCE STATEMENT                                          FDOS CL3-10 03/29/70

                                   6117+*        THIS TEMPORARY CODE IN THE LTA IS USED TO MODIFY THE 5 BYTE
                                   6118+*        CONSTANT IN PUBSAVE WITH REGARD TO SYSRES BEING ON THE SELEC-
                                   6119+*        TOR CHANNEL OR NOT, AND ALSO TO INITIALIZE RECORD LENGTH FOR
                                   6120+*        THE CIL DEPENDENT ON WHETHER SYSRES IS A 2311 OR A 2314.
                                   6121+*
                                   6122+*        ENTRY IS FROM THE FETCH-ROUTINE THE FIRST TIME IT IS EXECUTED,
                                   6123+*        WHEREAFTER THIS ROUTINE TERMINATES BY REPLACING THE TEMPORARY
                                   6124+*        LINKAGE INSTRUCTIONS IN FETCH WITH THE FINAL ONES AND THEN
                                   6125+*        EXITS TO THE REPLACED CODE IN FETCH.


005568                             6127+         ORG   LTA
005568                             6128+         USING *,RF ESTABL. ADDRESSIBILITY IN LTA
005568 4880 D648            03648  6129+         LH    R8,PUBRES GET SYSRES PUB ADDR
000000                             6130+         USING PUBADR,R8
00556C 9500 8000      00000        6131+         CLI   PUBCHANN,0 SELECTOR CHANNEL?
005570 4780 F010            05578  6132+         BE    *+8 NO
005574 94FF B904      01904        6133+         NI    BMPXFLAG,255-NBTFLG RESET BURST-MPX FLAG
005578 9560 8004      00004        6134+         CLI   PUBDEVTY,T2311 SYSRES DEVICE TYPE = 2311
00557C 4780 F028            05590  6135+         BE    RES2311 YES.. INITIAL VALUES CORRECT
005580 D201 B7CE F03C 017CE 055A4  6136+         MVC   RCLCIL,RLCL2314 *
005586 9262 B902      01902        6137+         MVI   PUBSAVE+2,T2314 3-2
00558A D203 B90C F03E 0190C 055A6  6138+         MVC   CIDAR(4),CID2314
005590                             6139+RES2311  EQU   *
                                   6140+         DROP  R8
005590 0670                        6141+         BCTR  R7,0 DECREMENT RETURN REG BY 6              3-9
005592 0670                        6142+         BCTR  R7,0 3-9
005594 0670                        6143+         BCTR  R7,0 3-9
005596 0670                        6144+         BCTR  R7,0 3-9
005598 0670                        6145+         BCTR  R7,0 3-9
00559A 0670                        6146+         BCTR  R7,0 3-9
00559C D207 7000 F042 00000 055AA  6147+         MVC   0(MVCEND-MVCSTART,R7),MVCSTART 3-9
0055A2 07F7                        6148+         BR    R7 3-9
0055A4 0698                        6149+RLCL2314 DC    H'1688' 2314 CIL RECORD LENGTH
0055A6 00000A01                    6150+CID2314  DC    X'00000A01'
                                   6151+         DROP  RF


0055AA 5040 C060            02060  6153+MVCSTART ST    R4,FCHSAV REPLACEMENT CODE TO GO INTO      3-3
0055AE 4890 B748            01748  6154+         LH    R9,IDRADD * THE FETCH ROUTINE          3-9
0055B2                             6155+MVCEND   DS    0B
005FDA                             6156+         ORG


000000                             6158+DERQUE   DSECT  DSECT FOR DISC RTN - ERROR QUE
000000                             6159+SCSW     DS    CL8 STORED CSW
000008                             6160+SPUBAD   DS    H PUB ENTRY ADDRESS
00000A                             6161+SFLAG    DS    C QUED-ERROR FLAG BYTE
00000B                             6162+SMSG     DS    C ERROR MESSAGE NUMBER
00000C                             6163+SSEN     DS    6C SENSE BYTES                     3-11
000012                             6164+STRKAD   DS    4C TRACK ADDRESS
       F1 COMMUNICATIONS REGION EXTENSION                                                                      PAGE  145


  LOC  OBJECT CODE    ADDR1 ADDR2  STMT   SOURCE STATEMENT                                          FDOS CL3-10 03/29/70

                                   6165+*


000000                             6167+ERRQUE   DSECT  ERROR QUE DSECT
000000                             6168+ERQLNG   DS    0CL22 LNG OF ENTRY
000000                             6169+ERQCSW   DS    0CL8 CSW
000000                             6170+         DS    CL4
000004                             6171+ERQDVC   DS    C
000005                             6172+ERQCHL   DS    C
000006                             6173+         DS    CL2
000008                             6174+ERQPUB   DS    CL2 PUB ADDR
00000A                             6175+ERQFLG   DS    C FLAGS
00000B                             6176+ERQMSG   DS    C MSG CODE
00000C                             6177+ERQSNS   DS    CL6 SENSE BYTES
000012                             6178+ERQSEK   DS    CL4 SEEK ADDR


000000                             6180+PIBADR   DSECT  , PROGRAM INFORMATION BLOCK (PIB)
000000                             6181+PIBFLG   DS    X FLAGS
000001                             6182+PIBCNCL  DS    X CANCEL CODE
000002                             6183+PIBLOGID DS    XL2 SYSLOG ID
000004                             6184+PIBINSTR DS    X TRANSFER INSTRUCTION
000005                             6185+PIBSVADD DS    XL3 ADDR OF SAVE AREA
000008                             6186+PIBCORNO DS    X NO. OF CORE BLOCKS
000009                             6187+PIBARADD DS    XL3 ADDR OF START OF AREA
00000C                             6188+PIBPUBAS DS    X PUB ASSIGN FLAGS
00000D                             6189+PIBLUBID DS    X LUB NO. OF 1ST PROB. PROG. LUB
00000E                             6190+PIBLUBNO DS    C NUMBER OF LUBS
00000F                             6191+PIBFLG2  DS    C MORE FLAGS
000000                             6192+         ORG   PIBADR 2ND PART OF PIB
000000                             6193+PIBCOMRA DS    H COMM REGN ADDR
000002                             6194+PIBSLUB  DS    H SYS CLASS LUB INDEX
000004                             6195+PIBPSBAD DS    H PSB ADDRESS                      3-3
000006                             6196+PIBPRTY  DS    H ABSOLUTE PRIORITY OF PIB         3-3
000008                             6197+PIBECBAD DS    F ECB ADDR IF PIB IS A SUBTASK     3-3
00000C                             6198+PIBPRTID DS    H PIB DISPL OF THIS TSKS MAIN TSK  3-3
00000E                             6199+         DS    H UNUSED                           3-3


000000                             6201+SIBADR   DSECT  DSECT FOR 2ND PIB                3-3
000000                             6202+SIBFLG   DS    X FLAGS                            3-3
000001                             6203+SIBCNCL  DS    X CANCEL CODE                      3-3
000002                             6204+SIBLOGID DS    XL2 SYSLOG ID                        3-3
000004                             6205+SIBINSTR DS    X TRANSFER INSTRUCTION             3-3
000005                             6206+SIBSVADD DS    XL3 ADDR OF SAVE AREA                3-3
000008                             6207+SIBCORNO DS    X NO. OF CORE BLOCKS               3-3
000009                             6208+SIBARADD DS    XL3 ADDR OF START OF AREA            3-3
00000C                             6209+SIBPUBAS DS    X PUB ASSIGN FLAGS                 3-3
00000D                             6210+SIBLUBID DS    X LUB NO. OF 1ST PROB. PROG. LUB   3-3
00000E                             6211+SIBLUBNO DS    C NUMBER OF LUBS                   3-3
00000F                             6212+SIBFLG2  DS    C MORE FLAGS                       3-3
       F1 COMMUNICATIONS REGION EXTENSION                                                                      PAGE  146


  LOC  OBJECT CODE    ADDR1 ADDR2  STMT   SOURCE STATEMENT                                          FDOS CL3-10 03/29/70

000000                             6213+         ORG   SIBADR 2ND PART OF 2ND PIB              3-3
000000                             6214+SIBCOMRA DS    H COMM REGN ADDR                   3-3
000002                             6215+SIBSLUB  DS    H SYS CLASS LUB INDEX              3-3
000004                             6216+SIBPSBAD DS    H PSB ADDRESS                      3-3
000006                             6217+SIBPRTY  DS    H ABSOLUTE PRIORITY OF PIB         3-3
000008                             6218+SIBECBAD DS    F ECB ADDR IF PIB IS A SUBTASK     3-3
00000C                             6219+SIBPRTID DS    H PIB DISPL OF THIS TSKS MAIN TASK 3-3
00000E                             6220+         DS    H UNUSED                           3-3


000000                             6222+ACCTABLE DSECT  ACCT TABLE DSECT            3-9
000000                             6223+ACCTWK1  DS    F WORK AREAS                  3-9
000004                             6224+ACCTWK2  DS    F *                            3-9
000008                             6225+ACCTSVPT DS    F SAVE AREA FOR JOB CARD POINTER    3-9
00000C                             6226+ACCTPART DS    X PARTITION SWITCH KEY        3-9
00000D                             6227+ACCTRES2 DS    X RESERVED                          3-9
00000E                             6228+ACCTLEN  DS    H LENGTH OF SIO PART OF TABL  3-9
000010                             6229+ACCTLOAD DS    3H INST TO SET LABEL AREA      3-9
000016                             6230+ACCTRES3 DS    H RESERVED                    3-9
000018                             6231+ACCTLADD DS    A ADDR OF LABEL AREA          3-9
00001C                             6232+ACCTCPUT DS    F PARTITION CPU TIME COUNTER  3-9
000020                             6233+ACCTOVHT DS    F OVERHEAD CPU TIME COUNTER   3-9
000024                             6234+ACCTBNDT DS    F WAIT TIME COUNTER           3-9
000028                             6235+ACCTSVJN DS    CL8 SAVE AREA FOR JOB NAME          3-9
000030                             6236+ACCTJBNM DS    CL8 JOB NAME                     3-9
000038                             6237+ACCTUSRS DS    CL16 USER INFORMATION             3-9
000048                             6238+ACCTPTID DS    CL2 PARTITION ID                3-9
00004A                             6239+ACCTCNCL DS    XL1 CANCEL CODE                  3-9
00004B                             6240+ACCTYPER DS    CL1 TYPE OF RECORD               3-9
00004C                             6241+ACCTDATE DS    CL8 DATE                         3-9
000054                             6242+ACCTSTRT DS    PL4 START TIME                   3-9
000058                             6243+ACCTSTOP DS    PL4 STOP TIME                    3-9
00005C                             6244+ACCTRES  DS    F RESERVED                     3-9
000060                             6245+ACCTEXEC DS    CL8 PHASE NAME                   3-9
000068                             6246+ACCTHICR DS    F HIGH CORE                    3-9
00006C                             6247+ACCTIMES DS    3F EXECUTION BREAKDOWN TIMES    3-9
000078                             6248+ACCTSIOS DS    XL6 SIO TABLE                    3-9


000000                             6250+CCBADR   DSECT  , COMMAND CONTROL BLOCK (CCB)
000000                             6251+CCBCNT   DS    XL2 RESIDUAL COUNT
000002                             6252+CCBCOM1  DS    X COMMUNICATION BYTES
000003                             6253+CCBCOM2  DS    X
000004                             6254+CCBSTA1  DS    X STATUS BYTES FROM CSW
000005                             6255+CCBSTA2  DS    X
000006                             6256+CCBCLS   DS    X LUB CLASS
000007                             6257+CCBLNO   DS    X LUB NO. WITHIN CLASS
000008                             6258+         DS    X
000009                             6259+CCBCCW   DS    XL3 ADDR OF START OF CHANN PROGRAM
00000C                             6260+CCBBY3   DS    X 3RD COMMUNICATION BYTE
00000D                             6261+CCBCSWW  DS    XL3 CCW ADDR FROM CSW
       F1 COMMUNICATIONS REGION EXTENSION                                                                      PAGE  147


  LOC  OBJECT CODE    ADDR1 ADDR2  STMT   SOURCE STATEMENT                                          FDOS CL3-10 03/29/70

000010                             6262+CCBLNG   EQU   *-CCBADR LNG OF CCB


000000                             6264+RCBADR   DSECT  RESOURCE CONTROL BLOCK(RCB)      3-3
000000                             6265+RCBTS    DS    X TEST AND SET AVAILABILITY BYTE   3-3
000001                             6266+         DS    XL3 UNUSED                           3-3
000004                             6267+RCBFLG   DS    0X FLAG INDICATES WAITER FOR RESOURCE3-3
000004                             6268+RCBOWN   DS    XL4 ECB ADDRESS OF OWNER             3-3


000000                             6270+LUBADR   DSECT  ,  DSECT FOR LUBID AND REQID
000000 0000000000000000            6271+LUBID    DC    32X'00' *****
000020 FFFFFFFFFFFFFFFF            6272+REQID    DC    32X'FF' *****
000040 FFFFFFFFFFFFFFFF            6273+LUBDSP   DC    32X'FF' ****
000060 0000000000000000            6274+TKREQID  DC    32X'00' 3-3


000000                             6276+DIB      DSECT  , DSECT FOR DIB-TABLE   BASE R8
000000                             6277+CURAD    DS    CL7 CURRENT DISK-ADDRESS
000007                             6278+KDD      DS    CL3 KEY-AND DATA-LENGTH
00000A                             6279+ENDAD    DS    CL7 LAST DISK-ADDRESS
000011                             6280+UL       DS    CL1 UPPER HEAD LIMIT
000012                             6281+LL       DS    CL1 LOWER HEAD LIMIT
000010                             6282+MAXREC   EQU   UL-1 LAST RECORD NUMBER ON TRACK


000000                             6284+PUBADR   DSECT  , PHYSICAL UNIT BLOCK (PUB)
000000                             6285+PUBCHANN DS    X CHANNEL NO.
000001                             6286+PUBDEVNO DS    X DEVICE NO.
000002                             6287+PUBCHQPT DS    X CHANN QUE ENTRY NO. OF 1ST REQ
000003                             6288+PUBERR   DS    X ERR RETRY COUNTER OR TEB PTER
000004                             6289+PUBDEVTY DS    X DEVICE TYPE CODE
000005                             6290+PUBOPTN  DS    X SET MODE CMMND OR OTHER OPTIONS
000006                             6291+PUBCSFLG DS    X CHANN SCHEDULER FLAGS
000007                             6292+PUBJCFLG DS    X JOB CONTROL FLAGS
000008                             6293+PUBWIT   EQU   *-PUBADR LNG OF PUB


000000                             6295+CHQADR   DSECT  , CHANNEL QUE ENTRY
000000                             6296+CHQCHAIN DS    X PTER TO NEXT CHANN QUE ENTRY
000001                             6297+CHQCCBAD DS    XL3 CCB ADDR
                                   6298+TKHDTAD  DSECT  ,                  DSECT FOR TRACK HOLD TABLE        3-X
000000                                 +               3
000000                             6299+TKHDPTR  DS    X POINTER                           3-3
000001                             6300+TKHDCCB  DS    XL3 CCB ADDRESS                       3-3
000004                             6301+TKHDADR  DS    XL6 DISK ADDRESS BEING HELD           3-3
00000A                             6302+TKHDOWN  DS    X OWNERSHIP ID NUMBER               3-3
00000B                             6303+TKHDCTR  DS    X FLAG BYTE                         3-3
00000B                             6304+TKHDFLG  EQU   TKHDCTR 3-3
       F1 COMMUNICATIONS REGION EXTENSION                                                                      PAGE  148


  LOC  OBJECT CODE    ADDR1 ADDR2  STMT   SOURCE STATEMENT                                          FDOS CL3-10 03/29/70

000000                             6306+TEBADR   DSECT  , TAPE ERROR BLOCK (TEB)
000000                             6307+TEBERRCT DS    X RETRY COUNTER
000001                             6308+TEBPRE   DS    X PERMANENT READ ERR COUNT
000002                             6309+TEBIRE   DS    X INITIAL  READ ERR COUNT
000003                             6310+TEBIWE   DS    X INITIAL WRITE ERR COUNT
000004                             6311+TEBERG   DS    X ERASE GAP COUNT
000005                             6312+TEBNR    DS    X NOISE RECORD COUNT
000006                             6313+TEBLNG   EQU   *-TEBADR LNG OF TEB
000000                             6314+SVEARA   DSECT
000000                             6315+SVENME   DS    CL8
000008                             6316+SVEPSW1  DS    0CL8
000008                             6317+         DS    CL4
00000C                             6318+SVEPSW2  DS    CL4
000010                             6319+SVER09   DS    CL4
000014                             6320+SVER10   DS    CL4
000018                             6321+SVER11   DS    CL4
00001C                             6322+SVER12   DS    CL4
000020                             6323+SVER13   DS    CL4
000024                             6324+SVER14   DS    CL4
000028                             6325+SVER15   DS    CL4
00002C                             6326+SVER00   DS    CL4
000030                             6327+SVER01   DS    CL4
000034                             6328+SVER02   DS    CL4
000038                             6329+SVER03   DS    CL4
00003C                             6330+SVER04   DS    CL4
000040                             6331+SVER05   DS    CL4
000044                             6332+SVER06   DS    CL4
000048                             6333+SVER07   DS    CL4
00004C                             6334+SVER08   DS    CL4
000050                             6335+SVELBLL  DS    XL2 LNG OF LBL AREA
000052                             6336+         DS    XL6 RESERVED
000058                             6337+SVEFP0   DS    CL8
000060                             6338+SVEFP2   DS    CL8
000068                             6339+SVEFP4   DS    CL8
000070                             6340+SVEFP6   DS    CL8


000000                             6342+SARA     DSECT  DSECT FOR A 2ND SAVE AREA        3-3
000000                             6343+SNME     DS    CL8 3-3
000008                             6344+SPSW1    DS    0CL8 3-3
000008                             6345+         DS    CL4 3-3
00000C                             6346+SPSW2    DS    CL4 3-3
000010                             6347+SR09     DS    CL4 3-3
000014                             6348+SR10     DS    CL4 3-3
000018                             6349+SR11     DS    CL4 3-3
00001C                             6350+SR12     DS    CL4 3-3
000020                             6351+SR13     DS    CL4 3-3
000024                             6352+SR14     DS    CL4 3-3
000028                             6353+SR15     DS    CL4 3-3
00002C                             6354+SR00     DS    CL4 3-3
000030                             6355+SR01     DS    CL4 3-3
       F1 COMMUNICATIONS REGION EXTENSION                                                                      PAGE  149


  LOC  OBJECT CODE    ADDR1 ADDR2  STMT   SOURCE STATEMENT                                          FDOS CL3-10 03/29/70

000034                             6356+SR02     DS    CL4 3-3
000038                             6357+SR03     DS    CL4 3-3
00003C                             6358+SR04     DS    CL4 3-3
000040                             6359+SR05     DS    CL4 3-3
000044                             6360+SR06     DS    CL4 3-3
000048                             6361+SR07     DS    CL4 3-3
00004C                             6362+SR08     DS    CL4 3-3
000050                             6363+SLBLL    DS    XL2 3-3
000052                             6364+         DS    XL6 3-3
000058                             6365+SFP0     DS    CL8 3-3
000060                             6366+SFP2     DS    CL8 3-3
000068                             6367+SFP4     DS    CL8 3-3
000070                             6368+SFP6     DS    CL8 3-3
       F1 COMMUNICATIONS REGION EXTENSION                                                                      PAGE  150


  LOC  OBJECT CODE    ADDR1 ADDR2  STMT   SOURCE STATEMENT                                          FDOS CL3-10 03/29/70

                                   6370+*   ABSOLUTE EQUATES
000010                             6371+BGIDEN   EQU   X'10' BACKGROUND IDENTIFICATION
000060                             6372+SPID     EQU   X'60' SUPVR ID
0000F0                             6373+PSKEY0   EQU   X'F0'
000002                             6374+WAITBT1  EQU   X'02' WAIT FLAG IN PSW
000001                             6375+ATTNCODE EQU   X'01' SVC 3 CODE FOR ATTN EXIT
000020                             6376+F2IDEN   EQU   X'20' .             F2 PARTITION ID                  3-9
000030                             6377+F1IDEN   EQU   X'30' .             F1 PARTITION ID                  3-9
0000FF                             6378+UNASSGN  EQU   X'FF' .             LUB UNASSIGN CODE                3-9
000020                             6379+ALLOWEX  EQU   X'20' .             ALLOW EXEC BIT                   3-9
000039                             6380+LINKBYTE EQU   57 .                BYTE 57 OF COMRG                 3-9
000060                             6381+DIBDISP  EQU   96 .                BYTE 96 OF COMRG                 3-9
000018                             6382+CPOS     EQU   24 .                                                 3-9
0000FB                             6383+JC59OFF  EQU   255-X'04' .                                          3-9
000001                             6384+BYTCT    EQU   1 .                                                  3-9
000004                             6385+JC59ON   EQU   X'04' .                                              3-9
000000                             6386+ZERO     EQU   0 .                                                  3-9
000001                             6387+ONE      EQU   1 .                                                  3-9
000003                             6388+THREE    EQU   3 .                                                  3-9
000004                             6389+FOUR     EQU   4 .                                                  3-9
000007                             6390+SEVEN    EQU   7 .                                                  3-9
                                   6391+*      REGISTERS
000000                             6392+R0       EQU   0
000001                             6393+R1       EQU   1
000002                             6394+R2       EQU   2
000003                             6395+R3       EQU   3
000004                             6396+R4       EQU   4
000005                             6397+R5       EQU   5
000006                             6398+R6       EQU   6
000007                             6399+R7       EQU   7
000008                             6400+R8       EQU   8
000009                             6401+R9       EQU   9
00000A                             6402+RA       EQU   10
00000B                             6403+RB       EQU   11
00000C                             6404+RC       EQU   12
00000D                             6405+RD       EQU   13
00000E                             6406+RE       EQU   14
00000F                             6407+RF       EQU   15
000000                             6408+FPR0     EQU   0
000002                             6409+FPR2     EQU   2
000004                             6410+FPR4     EQU   4
000006                             6411+FPR6     EQU   6
                                   6412+*      BRANCH CONDITION MASKS
000008                             6413+E        EQU   8 EQUAL
000008                             6414+Z        EQU   8 ZERO
000004                             6415+L        EQU   4 LOW
000004                             6416+M        EQU   4 MIXED OR MINUS
000002                             6417+H        EQU   2 HIGH
000002                             6418+P        EQU   2 POSITIVE
000001                             6419+O        EQU   1 ONES OR OVERFLOW
000007                             6420+NE       EQU   7 NOT EQUAL
       F1 COMMUNICATIONS REGION EXTENSION                                                                      PAGE  151


  LOC  OBJECT CODE    ADDR1 ADDR2  STMT   SOURCE STATEMENT                                          FDOS CL3-10 03/29/70

000007                             6421+NZ       EQU   7 NOT ZERO
00000B                             6422+NL       EQU   X'B' NOT LOW
00000B                             6423+NM       EQU   X'B' NOT MIXED OR NOT MINUS
00000D                             6424+NH       EQU   X'D' NOT HIGH
00000D                             6425+NP       EQU   X'D' NOT POSITIVE
00000E                             6426+NO       EQU   X'E' NOT ONES OR NOT OVERFLOW
                                   6427+*      PIB FLAGS
000080                             6428+FLG80    EQU   X'80'
000087                             6429+FLG87    EQU   X'87'
000004                             6430+SUPFLG   EQU   X'04' SUPERVISOR FLAG
000002                             6431+NOTSVC2  EQU   X'02'
000001                             6432+NOTSVC7  EQU   X'01'
                                   6433+*      CANCEL CODE FLAGS AND INCREMENTS
000080                             6434+CNCL80   EQU   X'80' TEST FOR CANCEL CODE
000040                             6435+CANCALL  EQU   X'40' FLAG IN PIBCNCL TO LOAD $$BEOJ
000020                             6436+CNL2ND   EQU   X'20' CANCEL IN CANCEL
000031                             6437+LIO31    EQU   X'31' CANCEL INCREMENT
000032                             6438+LIO32    EQU   X'32' CANCEL INCREMENT
000033                             6439+LIO33    EQU   X'33' ERR 33 CANCEL INCREMENT
000017                             6440+LERR27   EQU   X'17' ERR 27 CANCEL CODE INCREMENT
000010                             6441+ISCNCL   EQU   X'10' TEST IF JOB HAS BEEN CANCELED
000004                             6442+CNCLD    EQU   X'04' THIS FLAG SET IN PIBFLG2 INDICATES THIS3-3
                                   6443+*                           *TASK IS IN THE PROCESS  OF CANCELLING  3-3
000001                             6444+FLGAB    EQU   X'01' 3-3
                                   6445+*      ATTENTION FLAGS
000008                             6446+LDTCH    EQU   X'08' FLAG FOR LOGICAL DETACH                3-5
000002                             6447+ATTNMSK1 EQU   X'02' FLAG FOR ATTN FROM SYSLOG
000001                             6448+EXTRNM1  EQU   X'01' FLG FOR EXTRN INTERRUPT TO AR
                                   6449+*      JOB CONTROL SWITCH BYTE 2
0000FF                             6450+RALOC    EQU   X'FF' JCSW2 CODE FOR REALLOC RUNNING
000002                             6451+RALOC1   EQU   X'02' REALLOCATION OR CONDS OPERATNG
000008                             6452+SUPUPDAT EQU   X'08' SUPERVISOR BEING UPDATED
                                   6453+*      DISK FETCH
00005B                             6454+DOLLAR   EQU   C'$' COMPARISON FOR PREFERRED PROGR PHASE
00005C                             6455+ENDSGN   EQU   C'*' INDICATES LAST ENTRY IN DIR.
000168                             6456+DIRLGH   EQU   360 LENGTH OF DIRECTORY BLOCK
0000FF                             6457+NULL     EQU   X'FF' 3-9
0006C0                             6458+EQU1728  EQU   1728
000040                             6459+CHAINBIT EQU   X'40' COMMAND CHAIN MASK IN CCW
000040                             6460+BLANK    EQU   X'40' 3-9
000501                             6461+EQU5     EQU   X'501'
000100                             6462+EQU6     EQU   X'100'
000100                             6463+EQU7     EQU   X'100'
000100                             6464+EQU8     EQU   X'100'
000100                             6465+EQU9     EQU   X'100'
                                   6466+*      I/O
000018                             6467+DIBLGT   EQU   24 LENGTH OF DIB-ENTRY
000040                             6468+APNDGE   EQU   X'40' MASK FOR APPENDAGE RTN IN CCB
000040                             6469+APPALL   EQU   X'40' MASK FOR APPENDAGE RTN ALLOWED
000019                             6470+HIO      EQU   25
00001B                             6471+SHIO     EQU   27 3-3
       F1 COMMUNICATIONS REGION EXTENSION                                                                      PAGE  152


  LOC  OBJECT CODE    ADDR1 ADDR2  STMT   SOURCE STATEMENT                                          FDOS CL3-10 03/29/70

000004                             6472+SNSCMD   EQU   X'04' SENSE COMMAND
000000                             6473+MPX      EQU   X'00' MASK TO TEST FOR MPX CHAN
000001                             6474+CH9OVF   EQU   X'01' SENSE BIT - CHANNEL 9 OVERFLOW
000002                             6475+FCHID    EQU   X'02' FETCH REQID
                                   6476+*         CSW STATUS
000080                             6477+ATTENT   EQU   X'80' MASK TO TEST FOR ATTENT INTER
000040                             6478+STATMOD  EQU   X'40' *                  STATUS MODIFIER
000020                             6479+CUE      EQU   X'20' *                  CONTROL UNIT END
000010                             6480+BUSY     EQU   X'10' STATUS BUSY
000008                             6481+CE       EQU   X'08' *                  CHANNEL END
000004                             6482+DE       EQU   X'04' *                  DEVICE END
000002                             6483+UC       EQU   X'02' *                  UNIT CHECK
000001                             6484+UX       EQU   X'01' *                  UNIT EXCEPTION
000080                             6485+PCI      EQU   X'80' *                  PROGRAM CONTROLLED INTERRUPT
000040                             6486+WRONGLEN EQU   X'40' TEST FOR WRONG LENGTH RECORD
000030                             6487+PRGPRT   EQU   X'30' *                  PROG OR PROTECTION CHECK
000008                             6488+CHDTA    EQU   X'08' CHNL DATA CHK
000006                             6489+CHNCHK   EQU   X'06' HARD CHANNEL ERRORS
000001                             6490+CHCHN    EQU   X'01' CH CHAIN CHK
000010                             6491+PTAFTCH  EQU   X'10' TEST FOR ATTN RTN FETCH        3-2
                                   6492+*
000048                             6493+SAVERG   EQU   CAW BUCKET FOR ALIGNING CCW-ADDR FROM CCB
                                   6494+*         PUB CHANN SCHED FLAGS
000080                             6495+DEVBSY   EQU   X'80' MASK TO TEST DEVICE BUSY
000040                             6496+SWITCH   EQU   X'40' MASK TO TEST FOR SWITCH DEV
000020                             6497+JOBDUN   EQU   X'20' MASK TO POST END OF JOB
000010                             6498+QEDERR   EQU   X'10' MASK TO TEST FOR ERROR
000008                             6499+OPINTV   EQU   X'08'
000004                             6500+POSTDE   EQU   X'04' MASK FOR POSTING DEVICE END
000002                             6501+BRSDEV   EQU   X'02' MASK TO TEST FOR BURST DEV
000001                             6502+SVNTRK   EQU   X'01'
                                   6503+*         CCB FLAGS
000080                             6504+TRABIT   EQU   X'80' MASK TO TURN ON TRAFFIC BIT
000040                             6505+EOF      EQU   X'40' MASK TO POST END OF FILE
000020                             6506+DISERR   EQU   X'20' CCB FLAG - DISASTER ERROR
000001                             6507+OWNUCR   EQU   X'01' CCB FLAG - USER PROVIDES UNIT CHECK RTN
000002                             6508+CHAN9    EQU   X'02' CCB FLAG - CHANNEL 9 OVERFLOW
000080                             6509+ERRTIN   EQU   X'80' MASK TO TEST IF ERR RTN OPER
000020                             6510+US       EQU   X'20' USER SENSE
000010                             6511+ECF      EQU   X'10' ERP CHNL FAIL
000001                             6512+PRGLUNT  EQU   1 MASK FOR PROGRAMMER LOGICAL UNIT       3-9
                                   6513+*         ERROR QUE FLAG ENTRIES AND MSG CODES
000040                             6514+ACTERR   EQU   X'40' INTERVENTION FLAG
000020                             6515+PASBCK   EQU   X'20' RET ERROR TO USER
000010                             6516+IGNERR   EQU   X'10' IGNORE ERROR
000004                             6517+RTYERR   EQU   X'04' RETRY ERROR
000002                             6518+NOCCB    EQU   X'02' NO CCB AVAIL
000020                             6519+RCVMSG   EQU   X'20' ERROR O  ON RECOV
000004                             6520+WTCNL    EQU   X'04' SUPVR CANCEL MSG
000001                             6521+CHNBIT   EQU   X'01' CMD CHAIN BIT
                                   6522+*         I/O DEVICE EQUATES
       F1 COMMUNICATIONS REGION EXTENSION                                                                      PAGE  153


  LOC  OBJECT CODE    ADDR1 ADDR2  STMT   SOURCE STATEMENT                                          FDOS CL3-10 03/29/70

000000                             6523+NBTFLG   EQU   X'02'*0
000093                             6524+MODE     EQU   X'93' 7 TRACK SET MODE
                                   6525+***       EQUS FOR DEVICE TYPE CODES                                ***
000050                             6526+T2400T9  EQU   X'50' 2400 TAPES
000050                             6527+T2400    EQU   T2400T9
000051                             6528+T2495TC  EQU   X'51' TAPE CARTRIDGE READER                       3-3
000030                             6529+T1442N1  EQU   X'30' 1442 CD RDR PUNCH
000030                             6530+T2596    EQU   X'30' 2596 CD RDR PUNCH                            3-10
000022                             6531+T1442N2  EQU   X'22' 1442 PUNCH
000031                             6532+T2520B1  EQU   X'31' 2520B1 CD RDR PUNCH
000011                             6533+T2540R   EQU   X'11' 2540 CD RDR
000010                             6534+T2501    EQU   X'10' 2501 CD RDR
000000                             6535+T1050A   EQU   X'00' 1052
000021                             6536+T2540P   EQU   X'21' 2540 PUNCH
000020                             6537+T2520B3  EQU   X'20' 2520B3
000020                             6538+T2520B2  EQU   X'20' 2520B2
000040                             6539+T1403    EQU   X'40' 1403
000040                             6540+T1404    EQU   T1403
000041                             6541+T1443    EQU   X'41' 1443
000041                             6542+T1445    EQU   T1443
000042                             6543+T1403U   EQU   X'42'
000043                             6544+T3211    EQU   X'43' 3211 HIGH SPEED PRINTER      3-9
000070                             6545+T2671    EQU   X'70'
000076                             6546+T1285    EQU   X'76'
000077                             6547+T1287    EQU   X'77'
000077                             6548+T1288    EQU   T1287 3-7
000060                             6549+T2311    EQU   X'60'
000061                             6550+T2321    EQU   X'61'
000062                             6551+T2314    EQU   X'62' 2314 DASD
0000D0                             6552+T2701    EQU   X'D0'
0000D1                             6553+T2702    EQU   X'D1'
0000D2                             6554+T2703    EQU   X'D2'
0000C0                             6555+T2260    EQU   X'C0'
0000D3                             6556+T7770    EQU   X'D3'
0000D4                             6557+T7772    EQU   X'D4'
0000B0                             6558+TTP      EQU   X'B0' LOWER DEVICE-TYPE FOR TP         3-10
0000B0                             6559+T3277    EQU   X'B0' 3-10
0000B0                             6560+T3277B   EQU   T3277 3-10
000078                             6561+T1017    EQU   X'78' 3-5
000079                             6562+T1018    EQU   X'79' 3-5
0000D5                             6563+T1017TP  EQU   X'D5' 3-5
0000D6                             6564+T1018TP  EQU   X'D6' 3-5
0000FF                             6565+TUNSP    EQU   X'FF'
0000FF                             6566+TUNSPB   EQU   X'FF'
                                   6567+***     LIST OF DEVICE DEPENDENT CH SCD FLAGS                       ***
000000                             6568+M2400T9  EQU   NBTFLG CH SCD FLAG BYTE FOR 2400T9
000001                             6569+M2400T7  EQU   M2400T9+SVNTRK CH CD FLAGS FOR 2400 T7
000000                             6570+M2495TC  EQU   X'00' TAPE CARTRIDGE READER                       3-3
000000                             6571+M1442N1  EQU   NBTFLG
000000                             6572+M2596    EQU   NBTFLG 3-10
000000                             6573+M1442N2  EQU   X'00'
       F1 COMMUNICATIONS REGION EXTENSION                                                                      PAGE  154


  LOC  OBJECT CODE    ADDR1 ADDR2  STMT   SOURCE STATEMENT                                          FDOS CL3-10 03/29/70

000000                             6574+M2520B1  EQU   NBTFLG
000000                             6575+M2540R   EQU   X'00'
000000                             6576+M2501    EQU   NBTFLG
000000                             6577+M1050A   EQU   X'00'
000000                             6578+M2540P   EQU   X'00'
000000                             6579+M2520B3  EQU   X'00'
000000                             6580+M2520B2  EQU   X'00'
000000                             6581+M1285    EQU   NBTFLG
000000                             6582+M1287    EQU   NBTFLG
000000                             6583+M1288    EQU   NBTFLG 3-7
000000                             6584+M2311    EQU   NBTFLG
000000                             6585+M2321    EQU   NBTFLG
000000                             6586+M2314    EQU   NBTFLG
000000                             6587+M1403    EQU   X'00'
000000                             6588+M1404    EQU   M1403
000000                             6589+M1443    EQU   X'00'
000000                             6590+M1445    EQU   M1443
000000                             6591+M1403U   EQU   X'00'
000000                             6592+M3211    EQU   X'00' 3-9
000000                             6593+M2671    EQU   NBTFLG
000000                             6594+M2701    EQU   X'00'
000000                             6595+M2702    EQU   X'00'
000000                             6596+M2703    EQU   X'00'
000000                             6597+M2260    EQU   X'00'
000000                             6598+M7770    EQU   X'00'
000000                             6599+M7772    EQU   X'00'
000000                             6600+M3277    EQU   X'00' 3-10
000000                             6601+M1017    EQU   X'00' 3-5
000000                             6602+M1018    EQU   X'00' 3-5
000000                             6603+M1017TP  EQU   X'00' 3-5
000000                             6604+M1018TP  EQU   X'00' 3-5
000000                             6605+MUNSP    EQU   X'00' 3-2
000000                             6606+MUNSPB   EQU   NBTFLG 3-2
000003                             6607+L3       EQU   3 3-9
                                   6608  END
                                                 RELOCATION DICTIONARY                                          PAGE   1


 POS.ID   REL.ID   FLAGS   ADDRESS                                                                              03/29/70

   01       01      04     000016
   01       01      08     00005D
   01       01      0C     000064
   01       01      0C     00006C
   01       01      0C     000074
   01       01      0C     00007C
   01       01      0C     00008C
   01       01      04     000350
   01       01      04     0003F8
   01       01      04     0003FA
   01       01      04     00042E
   01       01      04     000430
   01       01      04     000432
   01       01      04     000434
   01       01      04     000436
   01       01      04     000438
   01       01      04     00043A
   01       01      04     00043C
   01       01      04     00044A
   01       01      04     000450
   01       01      04     000452
   01       01      04     000454
   01       01      04     000456
   01       01      04     000458
   01       01      04     00045C
   01       01      08     000469
   01       01      04     00046C
   01       01      04     000474
   01       01      0C     000478
   01       01      0C     00047C
   01       01      0C     000480
   01       01      0C     000488
   01       01      0C     000490
   01       01      0C     000494
   01       01      0C     0004A0
   01       01      0C     0004A8
   01       01      0C     0004B0
   01       01      0C     0004B4
   01       01      0C     0004B8
   01       01      04     00065A
   01       01      0C     00065C
   01       01      0C     000660
   01       01      0C     000664
   01       01      04     001746
   01       01      04     001748
   01       01      08     001761
   01       01      08     001769
   01       01      08     001771
   01       01      08     001779
   01       01      08     001781
   01       01      08     001789
                                                 RELOCATION DICTIONARY                                          PAGE   2


 POS.ID   REL.ID   FLAGS   ADDRESS                                                                              03/29/70

   01       01      08     001791
   01       01      08     001799
   01       01      08     0017A1
   01       01      08     0017A9
   01       01      08     0017B1
   01       01      08     0017B9
   01       01      08     0017C1
   01       01      08     0017C9
   01       01      08     0017D1
   01       01      08     0017D9
   01       01      08     0017E1
   01       01      08     0017E9
   01       01      08     0017F1
   01       01      08     0017F9
   01       01      08     001801
   01       01      08     001809
   01       01      08     001811
   01       01      08     001819
   01       01      08     001821
   01       01      08     001829
   01       01      04     001834
   01       01      04     001836
   01       01      0C     001848
   01       01      04     0017E4
   01       01      04     0017E6
   01       01      04     001962
   01       01      04     001970
   01       01      04     001972
   01       01      04     001974
   01       01      04     001976
   01       01      04     001978
   01       01      04     00197A
   01       01      04     00197C
   01       01      04     00197E
   01       01      04     001982
   01       01      04     001984
   01       01      04     001986
   01       01      04     0034D8
   01       01      04     0034F0
   01       01      04     003500
   01       01      04     003510
   01       01      04     003520
   01       01      08     0035F5
   01       01      08     0035F9
   01       01      08     003629
   01       01      04     00362E
   01       01      04     0036E0
   01       01      04     0036E2
   01       01      04     0036E4
   01       01      04     0036E6
   01       01      04     0036E8
                                                 RELOCATION DICTIONARY                                          PAGE   3


 POS.ID   REL.ID   FLAGS   ADDRESS                                                                              03/29/70

   01       01      04     0036EA
   01       01      04     0036EC
   01       01      04     0036EE
   01       01      04     0036F0
   01       01      04     0036F2
   01       01      04     0036F4
   01       01      04     0036F6
   01       01      04     0036F8
   01       01      04     0036FA
   01       01      04     003718
   01       01      04     00371A
   01       01      04     00371C
   01       01      04     00371E
   01       01      04     003720
   01       01      04     003722
   01       01      04     003724
   01       01      04     003726
   01       01      04     003728
   01       01      04     00372A
   01       01      04     00372C
   01       01      04     00372E
   01       01      04     003730
   01       01      04     003732
   01       01      04     003734
   01       01      04     003736
   01       01      04     003738
   01       01      04     00373A
   01       01      04     00373C
   01       01      04     00373E
   01       01      04     003740
   01       01      04     003742
   01       01      04     003744
   01       01      04     003746
   01       01      04     003748
   01       01      04     00374A
   01       01      04     00374C
   01       01      04     00374E
   01       01      04     003750
   01       01      04     003752
   01       01      04     003754
   01       01      04     003756
   01       01      04     003758
   01       01      04     00375A
   01       01      04     00375C
   01       01      04     00375E
   01       01      04     003760
   01       01      04     003762
   01       01      04     003764
   01       01      04     003766
   01       01      04     003768
   01       01      04     00376A
                                                 RELOCATION DICTIONARY                                          PAGE   4


 POS.ID   REL.ID   FLAGS   ADDRESS                                                                              03/29/70

   01       01      04     00376C
   01       01      04     00376E
   01       01      04     003770
   01       01      04     003772
   01       01      04     003774
   01       01      04     003776
   01       01      04     003778
   01       01      04     00377A
   01       01      04     00377C
   01       01      04     00377E
   01       01      04     0036E0
   01       01      04     0036E2
   01       01      04     0036E4
   01       01      04     0036E6
   01       01      04     0036E8
   01       01      04     0036EA
   01       01      04     0040A0
   01       01      04     0040A2
   01       01      04     0040D6
   01       01      04     0040D8
   01       01      04     0040DA
   01       01      04     0040DC
   01       01      04     0040DE
   01       01      04     0040E0
   01       01      04     0040E2
   01       01      04     0040E4
   01       01      04     0040F2
   01       01      04     0040F8
   01       01      04     0040FA
   01       01      04     0040FC
   01       01      04     0040FE
   01       01      04     004100
   01       01      04     004104
   01       01      04     004114
   01       01      04     00411C
   01       01      0C     004120
   01       01      04     004130
   01       01      04     004132
   01       01      04     004166
   01       01      04     004168
   01       01      04     00416A
   01       01      04     00416C
   01       01      04     00416E
   01       01      04     004170
   01       01      04     004172
   01       01      04     004174
   01       01      04     004182
   01       01      04     004188
   01       01      04     00418A
   01       01      04     00418C
   01       01      04     00418E
                                                 RELOCATION DICTIONARY                                          PAGE   5


 POS.ID   REL.ID   FLAGS   ADDRESS                                                                              03/29/70

   01       01      04     004190
   01       01      04     004194
   01       01      04     0041A4
   01       01      04     0041AC
   01       01      0C     0041B0
   01       01      0C     0041B4
   01       01      0C     0041B8
   01       01      0C     0041C0
   01       01      0C     0041C8
   01       01      0C     0041CC
   01       01      0C     0041E0
   01       01      0C     0041E8
   01       01      0C     0041EC
   01       01      0C     0041F0
   01       01      0C     0041F4
   01       01      0C     0041F8
   01       01      0C     004200
   01       01      0C     004208
   01       01      0C     00420C
   01       01      0C     004220
   01       01      0C     004228
   01       01      0C     00422C
   01       01      0C     004230
   01       01      0C     005C40
   01       01      0C     005C44
   01       01      0C     005C48
   01       01      0C     005C4C
   01       01      0C     005C50
   01       01      0C     005C54
   01       01      0C     005C58
   01       01      0C     005C5C
                                             CROSS-REFERENCE                                                   PAGE    1


SYMBOL    LEN  VALUE  DEFN     REFERENCES                                                                       03/29/70

ABPTR    00004 000488 00414   3780  3918  4198  4267  4315  4394
ABTAB    00004 001ACC 02175   0414  5983  6003
ABTRANS  00004 001D38 02315   2293
ACCTABLE 00001 000000 06222   0292  0511  0996
ACCTBG   00008 003DB0 05783   0426  0561
ACCTBLES 00004 00065C 00561   0299  0303  0307  0317  0522  0526  0530  0541  0995
ACCTBNDT 00004 000024 06234   0524  0525  0528  0529  0531  0532
ACCTCNCL 00001 00004A 06239
ACCTCOMN 00008 000638 00549   0425  5994  6014
ACCTCPUT 00004 00001C 06232   0318  0319  0542  0543
ACCTDATE 00008 00004C 06241
ACCTEXEC 00008 000060 06245
ACCTFAID 00001 000651 00555   0179  0180  0182  0184  0186  0275  0310  0491
ACCTF1   00008 003F40 05835   0563  6015
ACCTF2   00008 003E78 05809   0562  5995
ACCTHICR 00004 000068 06246
ACCTIME  00004 000654 00558   0288  0289  0502  0515  0537
ACCTIMES 00004 00006C 06247
ACCTJBNM 00008 000030 06236
ACCTLADD 00004 000018 06231
ACCTLEN  00002 00000E 06228
ACCTLOAD 00002 000010 06229
ACCTOVHT 00004 000020 06233   0301  0302  0305  0306  0308  0309
ACCTPART 00001 00000C 06226
ACCTPCNT 00004 00064C 00553   0297  0520
ACCTPTID 00002 000048 06238
ACCTRAID 00001 000652 00556   0223  0275  0290  0310  0315  0491  0507  0509  0512  0533  0539  0546  0809  2722  2749
ACCTRES  00004 00005C 06244
ACCTRESC 00002 000658 00559
ACCTRES2 00001 00000D 06227
ACCTRES3 00002 000016 06230
ACCTSAID 00001 000650 00554   0186  0507
ACCTSEAS 00002 000668 00564
ACCTSIOS 00006 000078 06248   0998
ACCTSTOP 00004 000058 06243
ACCTSTRT 00004 000054 06242
ACCTSVJN 00008 000028 06235
ACCTSVPT 00004 000008 06225
ACCTSVRE 00002 00064A 00552   0519  0521
ACCTSVRG 00004 000638 00550   0277  0311  0459  0461  0465  0467  0988  1015
ACCTSVRX 00002 000648 00551   0296  0298
ACCTSWCH 00001 000653 00557
ACCTUSEL 00002 00066E 00565
ACCTUSEP 00002 00065A 00560
ACCTUSER 00001 004050 05864   0560
ACCTUSRS 00016 000038 06237
ACCTWK1  00004 000000 06223   1003  1004  1006  1007
ACCTWK2  00004 000004 06224
ACCTYPER 00001 00004B 06240
ACTERR   00001 000040 06514
ACTSUP   00001 000085 02212   2470
                                             CROSS-REFERENCE                                                   PAGE    2


SYMBOL    LEN  VALUE  DEFN     REFERENCES                                                                       03/29/70

ADD      00004 00118C 01491   1484  1488
AFTTIO   00004 0015EC 01838   1839
ALC      00001 002C47 03631   3503  3514  3519  3535  3609  3617  3923  3941
ALC1     00002 002C40 03627   3538  3620  3622
ALC2     00004 002C3C 03626   3424  3425  3498  3500  3507  3508  3539  3621
ALC3     00001 002C46 03630   3418  3419
ALC4     00006 002C54 03636   3505  3934
ALLBND   00004 0002EA 00251   4567
ALLOWEX  00001 000020 06379   2302
AOHKAY   00001 000A0C 00887   0884
AOLTAB   00004 0004A0 00421   0716  0960  1267  3011  3204
APNDGE   00001 000040 06468   1282
APNRT    00001 000EAC 01279   1276
APPALL   00001 000040 06469   1286
APSAVE   00004 00321C 04175   3675  3676  3846  3855  3863  3868  3936  3938  4028  4031  4045  4337  4338  4368  4369
ARND2    00001 000BB4 01042   1035
ATNCNL   00004 002292 02783   2145
ATNEXT   00006 0001B0 02148   2147
ATNRTN   00004 0016F0 01935   4614
ATTENT   00001 000080 06477   1322
ATTNCODE 00001 000001 06375   2772
ATTNMSK1 00001 000002 06447   1954
ATTNNM   00008 001958 02121   1952  2451
A2321    00004 000CEA 01127   1122
BASRGB   00004 000340 00269
BASRGC   00004 000344 00270
BASRGD   00004 000348 00271
BASRGE   00004 00034C 00272   0165
BASRGS   00004 000340 00268   0144  0269  0270  0271  0272  0435  0444  0458  0464  0479  0485  0970  1583  1886  2254
                              2274  2414  2556  3040  3045
BDUMP    00008 0020FC 02655   2649
BGCLB    00002 0034DE 04413   4414
BGIDEN   00001 000010 06371   0714  3009  3202
BGPIBF2  00001 0035FF 04582
BGSAVADR 00002 0034D8 04410   3445
BGSAVE   00080 005F88 06103   4410  4576  6106  6107
BGXTNSN  00004 00047C 00410   0403
BLANK    00001 000040 06460   2216
BMPXFLAG 00001 001904 02090   6133
BRSDEV   00001 000002 06501
BSYTIO   00004 0014B4 01745   1746
BTMHRN   00008 00178E 01978   2531
BUSY     00001 000010 06480   0794  1023  1335  1370  1374
BUSYPTA  00001 000000 02211   2468
BYTCT    00001 000001 06384   2888  2899
BZTPDEV  00001 000FE6 01369   1366
CALFET   00004 002318 02829   2827
CALLNAME 00008 000000 02577
CANALL   00001 0034B0 04389   4380  4386
CANCALL  00001 000040 06435   0075  0100  0103  0192  2229  2679  2735
CANXIT   00001 000226 00194
                                             CROSS-REFERENCE                                                   PAGE    3


SYMBOL    LEN  VALUE  DEFN     REFERENCES                                                                       03/29/70

CAW      00004 000048 00024   0025  0943  1026  1719  1720  1743  1833  1834  6493
CCBADR   00001 000000 06250   0647  1266  2939  3106  3243  3423  6262
CCBBY3   00001 00000C 06260   0670  0927  0962  1271  1282  1384  1464  1617  1619  1638  1647  1723
CCBCCW   00003 000009 06259   0941  1069  1182  1211  1236  1720  3251  3424  3507
CCBCLS   00001 000006 06256   0825  1100
CCBCNT   00002 000000 06251   1463
CCBCOM1  00001 000002 06252   0696  0852  1391  1514  1519  1643  1709  1728  2940  3109  3498  3500
CCBCOM2  00001 000003 06253   1712  1793  3296  3298  3370  3371
CCBCSWW  00003 00000D 06261   1273  1289  1466
CCBLNG   00001 000010 06262   0652  0821
CCBLNO   00001 000007 06257   0660  0669  0672  0681  0683  0824  0830  0966  1102
CCBQED   00004 0013AE 01666   1664
CCBSTA1  00001 000004 06254   0697  1382  1467  1515
CCBSTA2  00001 000005 06255
CCWDRS   00008 000041 00020   1362  1362  1466  1603
CCWSEN   00008 001780 01975   1670  1688  1741  1742  1748  1976
CE       00001 000008 06481   0697  1731  1851
CEAREA   00001 005C68 06101   6102
CEAREAND 00080 005F87 06106   6092
CEDETST  00004 000FEE 01372   1368
CEDYNHK  00004 001EB2 02435   2391  2436  6096
CEFLIDNO 00002 0006BE 00605   0596  0599
CEFLIDRA 00001 00069E 00597   0593
CEFLTAB  00008 0006B6 00604   0589  0590  0590
CEFLTHK1 00004 000674 00586   6098
CEFLTHK2 00004 001E1E 02390   2366  2371  6099
CEFLTLP  00001 000688 00591   0595
CEINTRHK 00004 0004CC 00441   6094
CENDDEND 00002 00174C 01966   1303
CEPIDSV  00001 00252B 03046   3041
CEPIK    00002 000090 00055   0607  0608  2395
CEPIKSV  00001 00252F 03048   3042
CESIOHK  00004 000AAA 00950   6095
CETAB    00001 005C40 06090   0054  0411  5980  6000  6091
CETABPTR 00004 00008C 00054   0442  0606  0951  2392  2437  3039
CETRANHK 00004 002506 03038   6097
CHAINBIT 00001 000040 06459
CHAINST  00002 001962 02128   1068
CHANEND  00002 00174E 01967   1305
CHANQ    00004 003780 04817   0737  2140
CHAN9    00001 000002 06508   1793
CHCHN    00001 000001 06490   1319  1605  1847  3285
CHDTA    00001 000008 06488   1319  1605  1847  3262
CHECK2   00004 002B50 03564   3555  3557
CHEND    00004 000F78 01335   1321
CHEND1   00001 000FCC 01361   1338
CHF      00001 00000F 01586   1868
CHFAIL   00002 00163A 01865   0791  1020  1846
CHFAIL1  00006 001640 01867   1252
CHFWAT   00004 0012A0 01581   1584  1585  1781  1867  1869
CHNADR   00008 00003A 00017   0018  1025  1253  1256  1439  1528
                                             CROSS-REFERENCE                                                   PAGE    4


SYMBOL    LEN  VALUE  DEFN     REFERENCES                                                                       03/29/70

CHNBIT   00001 000001 06521   1712
CHNCHK   00001 000006 06489   0790  1019  1251  1845
CHNDRT   00004 001114 01461   1304  1306  1363
CHNIDX   00007 003639 04627   0785  0897  1257  1824
CHNPUBST 00002 0036E0 04756   0786  0972  1029  1258  1438  1542
CHNPUBTB 00004 0036E0 04755   5218  5218  5410  5410  5552  5552
CHNPUB1  00002 0036E2 04757   1529  1543
CHNSTA   00008 000045 00022   0790  1019  1021  1251  1319  1339  1605  1674  1845  1847
CHNTST   00004 0010E2 01442   1443
CHNTSTD  00004 0010E3 01443   1439
CHQADR   00001 000000 06295   0858  1264
CHQCCBAD 00003 000001 06297   0878  1456
CHQCHAIN 00001 000000 06296   0876  0879  1411  1412
CH9OVF   00001 000001 06474   1789
CIDAR    00004 00190C 02095   2307  6138
CIDONLY  00001 001D20 02306
CID2314  00004 0055A6 06150   6138
CILCHR   00003 000017 02582   2401
CKCHST   00004 000B64 01019
CKEN     00001 002604 03111   3108
CLBHOLD  00001 0018AF 02057   2263  2266  2269
CLBLUBS  00002 0034E0 04414   0691  1110  2262
CLBPRG   00004 00077E 00685   0682
CLBPTR   00004 00078C 00689   0686
CLBSUP   00002 000786 00687   0673
CLCEX    00006 001CEC 02292
CLCINS   00006 000CC6 01119   1098  1121  1126  1128  1140
CLRCCB   00006 000990 00852   0695  0777
CLRCOM   00004 00364C 04636   0852  1919  1925
CLRTEB   00002 001256 01552   1387  1389
CMDADR   00004 000049 00025   0941  1073  1211  1212  1235
CMDCHN   00004 00144C 01712   1612
CNCEL    00001 003266 04203   0193  3835
CNCELL   00001 00327A 04210   2654
CNCEL0   00001 003286 04214   4212
CNCEL1   00001 0033C0 04311   4206
CNCEL1A  00001 0033EE 04323   4320
CNCEL1B  00001 0033F2 04325   4322
CNCEL2   00001 0032DA 04241   4209
CNCEL2A  00001 0032F8 04250   4226  4248
CNCEL2AA 00001 003308 04255   4252
CNCEL3   00001 003318 04260   4257
CNCEL4   00001 003324 04264   4259
CNCEL5   00001 0033AC 04303   4298
CNCEL6   00001 0033BC 04307   4305
CNCL     00001 0002DE 00247   4225  4243  4262  4270  4329
CNCLD    00001 000004 06442   0111  2651  4349
CNCL80   00001 000080 06434   0133  0136  2799  3853
CNLSVE   00004 000170 00143   0076  0101
CNL2ND   00001 000020 06436   0104
CODE51   00001 000001 03216   3212
                                             CROSS-REFERENCE                                                   PAGE    5


SYMBOL    LEN  VALUE  DEFN     REFERENCES                                                                       03/29/70

COMPCLC  00006 000906 00815   0134  0213  0257  2644  2689  2793  2826  2918  3222  3822  4256  4319  4385
COMREG   00008 0003F0 00323   0011  0399  1050  1154  1476  2880  4429  4456  5917  5972
CONFIG   00001 000424 00341   0629
CORCHN   00004 00122E 01537   1538
CORCHND  00004 00122F 01538   1528
CORPUB   00004 001224 01533   1534
CORPUBD  00004 001225 01534   1527
CORREC   00006 000DB4 01191   1197
COUNT    00006 000B2A 01003   1010
CPOS     00001 000018 06382   2322
CQDSP    00002 0010FA 01450   0728  1263  1825  3343
CRADDR   00002 000016 00011   0205  2881  2893
CSCHDCCW 00008 001760 01971   1234
CSW      00008 000040 00019   0020  0021  0022  0023  1028  1497  1610  1661  1796  3327
CSWCHK   00004 0015FA 01845   1837
CSWCNT   00008 000046 00023   1463
CUE      00001 000020 06479   0794  1370  1516
CURAD    00007 000000 06277   1180  1191  1194  1482  1483  1485  1487  1489  1490
CYLEND   00004 0028E2 03370   3337  3339
DASD2321 00002 000CFE 01132   1097
DATAADDR 00002 001E76 02412   2409
DE       00001 000004 06482   0697  1324  1372  1516  1731  1732  1752
DEALSO   00004 0011EA 01516   1496  1500  1505
DEQUE    00004 0022D6 02807   0085
DEQUELP  00004 001090 01418   1424
DEQUER   00004 00159A 01813   1797  1804  1814  2779
DEQUER1  00004 0015B0 01818   1827
DEQUER1A 00004 0015B0 01827   1813
DERQUE   00001 000000 06158
DETFRE   00001 002AB4 03525   3520  3522
DEVADR   00008 00003B 00018   1260  1527
DEVBSY   00001 000080 06495   0767  0893  0973  1309  1376  1379  1383  1431  1447  1518  1668  1821  2489  2491
DEVSTA   00008 000044 00021   0794  1023  1303  1305  1307  1322  1324  1335  1337  1370  1372  1374  1382  1467  1516
                              1602  1631  1634  1672  1731  1732  1752  1849  1851  1857  1860
DEVZON   00001 003638 04626   0722  0936  0939  1034  1045  1470  1471  1506  1691  1692
DIB      00001 000000 06276   1179  1481
DIBDISP  00001 000060 06381   2320
DIBLGT   00001 000018 06467   1175  1176  1177
DIRCCW   00008 001828 02013   2317
DIRECTRY 00001 000000 02576   2249  2280
DIRLGH   00001 000168 06456   2013  2327
DIRNAME  00008 000008 02578   2328  2331  2398
DISABL   00005 000058 00031   2554
DISERR   00001 000020 06506   1709  1728  1783  2536
DISWHY   00004 000EAC 01280   1805
DOLLAR   00001 00005B 06454   2264  2281  2294  2345
DOLLARB  00008 000030 00407   2292  2676
DOLLARBO 00004 000460 00392   2290
DOTCH    00004 000A52 00923
DSKPOS   00007 001838 02018   0379  5905  5960
DSKTST   00004 002782 03261   3250
                                             CROSS-REFERENCE                                                   PAGE    6


SYMBOL    LEN  VALUE  DEFN     REFERENCES                                                                       03/29/70

DSKTSTA  00001 002778 03257   3254
E        00001 000008 06413   0132  0135  0276  0469  0536  0545  0727  0741  0804  1261  1344  1446  1531  1535  1549
                              1911  2775  2976  3315  3593  3619  3959  4016
ECF      00001 000010 06511   1647
ECSW     00008 001990 02152
EDCCWF   00008 0017B8 01984   1984  3347  3352  3359
EDCCWH   00008 001790 01979   3248  3364  3365
EDCCWR   00008 001788 01977   1978  3306
EDCCWS   00008 0017A0 01981   3360
EDCCWT   00008 0017C8 01986   1987  3329  3330
EDHA     00006 0018A0 02053   1977  1979  1985  3332
EDRDHA   00004 0028D4 03365   3313
EDRDHA1  00004 0028D0 03364   3292  3331
EDR0     00004 0018A8 02055   1980  1982  3251  3252  3293  3336  3338  3340  3342
EDSA     00002 0018A6 02054   1981
EDTIC    00004 002898 03343   3333
EDTIC1   00004 0028C4 03360   3350  3356
EDTIC2   00004 0028C0 03359   3346
ED1      00001 000040 03375
ED10     00001 000002 03384   3281
ED11     00001 000060 03385   3283
ED12     00001 000008 03386   3298
ED13     00001 000004 03387   3296
ED14     00001 00000A 03388   3303  3319
ED17     00001 000002 03389
ED18     00001 000001 03390
ED19     00001 000001 03391
ED2      00001 000001 03376
ED20     00001 000030 03392
ED21     00001 000002 03393
ED22     00001 000020 03394   3275
ED23     00001 000008 03395   3272
ED24     00001 000080 03396
ED25     00001 000020 03397
ED26     00001 000004 03398   3275
ED27     00001 000001 03399   3332
ED28     00001 000009 03400   3336
ED29     00001 0000C0 03401
ED3      00001 000010 03377   3264
ED31     00001 000000 03402
ED32     00001 000040 03403
ED33     00001 000008 03404
ED34     00001 0000D0 03405
ED35     00001 000020 03406   2526  3370
ED36     00001 000001 03407   3311  3322
ED37     00001 000080 03408   3355
ED38     00001 000013 03409   3338
ED4      00001 000001 03378   3268
ED5      00001 000040 03379   3270
ED6      00001 00002C 03380
ED7      00001 000002 03381   3277  3290
                                             CROSS-REFERENCE                                                   PAGE    7


SYMBOL    LEN  VALUE  DEFN     REFERENCES                                                                       03/29/70

ED8      00001 000008 03382   3266
ED9      00001 000080 03383   3279  3301
EFLAG    00001 00199A 02154
ENABL    00002 001745 01962   1889
ENDAD    00007 00000A 06279   1180
ENDJOB   00008 000030 00405   0249  0407
ENDSGN   00001 00005C 06455   2328  2398
ENDSUP   00002 001746 01963   0818  1915
ENTEXT   00004 00256A 03067   0032
ENTIO    00004 0004C0 00433   0040
ENTLEN   00002 00364A 04635   1421  1657  1819
ENTPCK   00002 0024FC 03028   0036
ENTRYADR 00003 000014 02581   2372
ENTSVC   00001 000670 00577   0034
EOCADR   00001 000420 00339   0853  1292  1499  1908  1913  2647  2674  2982  3253
EOF      00001 000040 06505   1514
EOSSP    00001 006000 06110   0326  4578  5872  5927  6111
EQU1728  00001 0006C0 06458
EQU5     00001 000501 06461   2315
EQU6     00001 000100 06462   2314
EQU7     00001 000100 06463   2313
EQU8     00001 000100 06464   2312
EQU9     00001 000100 06465   2311
ERA      00028 000320 00266   0155  0155  0195  0207  0225  0240  0242  0244  0246  0255  0256  0259  0434  0474  0474
                              0487  0487  0578  0609  2783  2863  3030  3043  3068
ERBLOC   00002 001972 02137   0381  5906  5961
ERBLPT   00001 000452 00380
ERQCHL   00001 000005 06172   3262  3285
ERQCSW   00008 000000 06169   1661  1796  1796  3361
ERQDVC   00001 000004 06171
ERQENT   00022 001990 02151   1816  1816  2142  2143  2778  4635
ERQFLG   00001 00000A 06175   1420  1666  1755  1808  3249  3295
ERQLNG   00022 000000 06168   1660  1660  1669
ERQMSG   00001 00000B 06176   1739
ERQPTR   00002 00197E 02143   0860  1416  1649  1658  1818  1820  1872
ERQPUB   00002 000008 06174   1418  1662
ERQSEK   00004 000012 06178   3259  3293
ERQSNS   00006 00000C 06177   1669  1761  1775  1775  1788  1789  3264  3266  3268  3270  3272  3275  3277  3279  3281
                              3283  3290  3301  3371
ERQUE    00110 001990 02150   1816  1816  1816  2136  2142  2143
ERRGO    00004 0000F2 00103   0083  2548  3850  4361
ERROVL   00004 001424 01700   1656
ERROVL1  00004 001430 01703   1701
ERRPRT   00004 00154E 01786   1693
ERRQ     00002 001970 02136   0860  1422  1872
ERRQUE   00001 000000 06167   1417  1659  3241
ERRSEN   00004 001490 01731   1690  1727
ERRSET   00001 000102 00110   0105  2785
ERRSET0  00004 0000FE 00106   0107
ERRSET0D 00004 0000FF 00107   0143  2547  3848  4344
ERRSET1  00004 00012A 00121   0117  0119
                                             CROSS-REFERENCE                                                   PAGE    8


SYMBOL    LEN  VALUE  DEFN     REFERENCES                                                                       03/29/70

ERRSIO   00002 0015D0 01830   1632  1689  1726  1733  3307  3366
ERRSIOS  00002 0015F5 01843   1623  1635
ERRSIO2  00004 0015D8 01833   1802
ERRTIN   00001 000080 06509   0670  1384  1619
ERR1C    00002 0000CC 00088
ERR1D    00002 0000CE 00089
ERR1E    00002 0000D0 00090   4165
ERR10    00004 0000E6 00100   3845  4779
ERR20    00002 0000D4 00092   3054  3056  3062  3063  3064
ERR21    00002 0000D6 00093   0620  2677  2690  2711  2760  2854  2905  2915  2925  2977  2980  3010  3012  3153  3171
                              3203  3205  3223  3465  3502  3512  3516  3527  3648  3677  3807  3809  3816  3820  4071
                              4087  4089  4124  4793  4795  4806  4807  4809  4810
ERR22    00002 0000D8 00094   2217  2367  2399
ERR22TST 00001 001DE0 02363   2349
ERR23    00002 0000DA 00095   4388  4391  4398
ERR24    00002 0000DC 00096
ERR25    00002 0000DE 00097   0854  1299  1909  1914  1916  1923  1929  2648  2675  2983
ERR26    00002 0000E0 00098   0694
ERR27    00004 0000E2 00099   0676  0831
ERR30    00002 00009C 00072   1040  1044  1172  1209
ERR31    00002 00009E 00073   1707
ERR32    00002 0000A0 00074   1117  1120  1149  1181  1192  1195  1198
ERR33    00004 0000A2 00075   1084
ESEN     00006 00199C 02156
EXCAN    00004 00228E 02782   2141
EXCPIGN  00004 00079A 00694   0838
EXCP1    00004 00091E 00821   0816
EXCP10   00004 000776 00683
EXCP3    00001 0009AA 00859   3422  3427  3469  3482
EXCP3A   00004 0009B0 00861   2498  2502
EXCP4    00002 000926 00823
EXCP5    00004 000948 00831   0684
EXCP6    00001 00094C 00832   0671  0674
EXCP6A   00001 000958 00836   0692
EXCP7    00004 00075C 00676   0826
EXCP8    00004 00093E 00829   0828
EXIGN    00006 00156C 01796   1729  1784  1792  1801  1809  2138  3299  3326  3372
EXIT     00004 000B5A 01015   0993  1008
EXITAPE  00001 001356 01642   1620  1622
EXIT1    00006 001FEC 02532   2527
EXOLDP   00008 000018 00012   3070  3071  3075
EXPAND   00001 001E1E 02384   2381
EXRTY    00004 00158E 01808   1861  2137  3309  3318  3324
EXSNS    00004 0014A4 01741   1315  1318  1702
EXTEOJ   00004 00021A 00191   1936
EXTRAN   00004 0014D4 01754   1671  1740
EXTRNM1  00001 000001 06448   1954  3074
EXTRT1   00002 002674 03149   4782  4786
EXTSMR   00002 001A0C 02162
EXT01    00001 00025A 00208   0602  0614  1250  3014  3461  4078  4123  4128  4796  4797
EXT02    00006 0001B0 00164   0081  0102  0236  0238  1882  1940  1945  1958  2148  2329  2510  2549  2637  2641  2682
                                             CROSS-REFERENCE                                                   PAGE    9


SYMBOL    LEN  VALUE  DEFN     REFERENCES                                                                       03/29/70

                              2701  2736  2738  2750  2769  2777  2831  2844
EXT03    00004 0001AC 00163   0215  0764  1295  1334  1351  1398  1652  1769  2680  2724  2726  2730  2733  2849  3076
                              3080  3095  3101  3104  3115  3162  3611  3666  3792  3856  3946  3979  3999  4002  4164
                              4233  4236  4239  4254  4308
EXT05    00001 000276 00216   0212  0214
EXT1     00004 00258A 03075   3072
EXT2     00004 0025F4 03107   3098
EXWHY    00004 00157A 01801   2139  3362
FAVP     00001 003A09 04899   0359  5893  5948
FCCBAD   00001 001833 02015
FCHCNCL  00002 002008 02542   2537
FCHCON   00004 00205C 02570   2348
FCHERR   00004 001518 01772   1764
FCHERR1  00001 001546 01782   1765  1774
FCHEXIT  00001 001F02 02456   2362  2365  2550
FCHEXIT1 00001 001DDA 02360   2341  2350  2357
FCHID    00001 000002 06475   1759  2231  2500
FCHOVL   00004 001530 01777   1706
FCHRT1   00004 001C0C 02215   2658  2665  2678  2819  2829  2921
FCHRT2   00004 001C08 02214   2621  2919  3213
FCHRT3   00001 001C40 02230
FCHRT4   00004 001C30 02225
FCHSAV   00004 002060 02571   2348  2348  2455  6153
FCH3     00004 0022EE 02816   1949  2773
FGASSGNS 00001 000003 03218   0731
FGP      00004 001D2C 02312   2297
FGPCON   00003 0018AC 02056   2296
FICL     00004 003C3C 05162   0363  5896  5951
FIK      00001 001FF5 02534   2234  2442  2445  3133
FIK1     00001 002006 02539   0688  2232  2256  2259  2276  2298  2337  2535  2636  2640
FILEMSKS 00001 001960 02122   1997  2000  2125
FILEMSKW 00001 001961 02123   2126
FIODONE  00001 001FAA 02512   2505
FLERR22  00004 001DE8 02366   2364
FLGAB    00001 000001 06444
FLG80    00001 000080 06428   0121  0129  0145  0158  0228  0248  1402  1881  1953  1956  2691  2774  3598
FLG87    00001 000087 06429   1770  1944  3861
FLPTR    00001 0009CF 00870   0753  0754  0803  0807  0876  1412  1413  2494  3226
FNDQUE   00002 0007AC 00700   0891
FNDQUE1  00004 0007B2 00702   0707
FOCL     00007 003881 04892   0356  5216  5408  5550  5891  5946
FOCLPT   00001 00042E 00355
FOUR     00001 000004 06389
FPCHAIN  00008 0017D0 01996   2124  2128
FPR0     00001 000000 06408   0151  0199
FPR2     00001 000002 06409   0152  0200
FPR4     00001 000004 06410   0153  0201
FPR6     00001 000006 06411   0154  0202
FREDEV1  00004 00124C 01548   1544
FULQUE   00002 00197C 02142   1655
F1ADDR   00002 003510 04447
                                             CROSS-REFERENCE                                                   PAGE   10


SYMBOL    LEN  VALUE  DEFN     REFERENCES                                                                       03/29/70

F1CLB    00002 0034DA 04411
F1COMR   00008 004128 05924   4447
F1IDEN   00001 000030 06377   2256  2337
F1LUB    00002 003CF0 05176   0664
F1XTNSN  00004 0041F4 05999   5975
F2ADDR   00002 003500 04438
F2CLB    00002 0034DC 04412
F2COMR   00008 004098 05869   4438
F2IDEN   00001 000020 06376
F2LUB    00002 003C9A 05175   0661  0664  5731  5736  5741  5746  5751  5756  5761  5766  5771
F2XTNSN  00004 0041B4 05979   5920
GENENT   00004 0004E0 00447   0601  0613  3052  3069
GEN1     00004 000512 00463   0452
GEN2     00004 000500 00458   0450
GEN4     00001 00055A 00481   0471
GER      00001 00028A 00224   0222
GETCHQ   00004 000E7C 01263   1030  1254
GETENTRY 00004 001DFA 02372   2353
GETJIB   00004 000C82 01099   1141
GETPIB   00004 00126C 01562   0079  1036  1047  1059  1230  1285  1345  1392  1473  1508  3351
GETPIB1  00004 00127C 01566   1571  1573
GETSEN   00001 0013D8 01679   1724
GIOADR   00004 000A2C 00911   1449
GOTCLB   00001 000CBA 01115   1111
GTSEN1   00001 0013D0 01676   1673
H        00001 000002 06417   1547  3304  3323
HALT     00001 000896 00776   0787
HALTLOOP 00001 000822 00738   0749
HARDWT   00006 001526 01775   1768  2546
HIO      00001 000019 06470   0797  0848
HIPHAS   00001 000414 00332
HIPROG   00001 000418 00334
HLDPSW   00001 000291 00227   0148  0433  0476  0483  0535  0544  0600  0612  3051  3067  3129
H01      00002 002F1E 03901   3894
H10      00002 001816 02009   1134  2835
H12      00002 002C42 03628   3475  3487  3613
H24      00002 001964 02129   1067
H8       00002 001814 02008   1027  1498  1714  3328
IDOUT    00004 001758 01970   1232  1971
IDRA     00001 0053F8 06087   1964  2013  6088
IDRAATTN 00001 001718 01946   1943
IDRAA0   00001 0000A0 02600   0470
IDRADD   00002 001748 01964   1772  2450  6154
IDRAD20  00001 000014 02588
IDRAEXT  00006 0002C2 00240   0232  0234
IDRAE0   00001 0000E0 02601   0229
IDRANO   00001 002204 02731   2728
IDRANOPQ 00001 001C34 02226   2224
IDRASAVE 00001 001B70 02180   0240  0241  0474  0475  0477  0478  2507  2509  2729
IDRAST1  00001 001C28 02222   2219
IDRAST2  00001 001F16 02462   2460
                                             CROSS-REFERENCE                                                   PAGE   11


SYMBOL    LEN  VALUE  DEFN     REFERENCES                                                                       03/29/70

IDRAST3  00001 001F22 02466   2464
IDRASVC3 00001 00226A 02770   2762
IDRASW   00002 00174A 01965   0166  0229  0231  0235  0470  0472  0473  2221  2459  2463  2467  2481  2499  2514  2727
                              2768
IDRATST  00001 001708 01941   1938
IDRATTN  00001 000F74 01333   1331
IDRA00   00001 000000 02589   0598  2218  2220  2227  2237  2420  2467  2514  2657  2664  2763
IDRA01   00001 000001 02590   2221  2459
IDRA02   00001 000002 02591   2463  2768
IDRA03   00001 000003 02592   0235  0237  1937  1942  2413  2458  2461  2761
IDRA2    00001 000002 02586
IDRA20   00001 000020 02593   0166  0231  2481
IDRA40   00001 000040 02594   0472  2727
IDRA7F   00001 00007F 02595   0473
IDRA8    00001 000008 02587   0240  0477  2251
IDRA80   00001 000080 02596   2499
IDRA84   00001 000084 02597   2506
IDRA85   00001 000085 02598   2465
IDRA89   00001 000089 02599   1939  2225
IGNERR   00001 000010 06516   1613
IJB$$EOS 00001 006000 06112   6114
IJB$$STP 00001 006000 06111   6113
IJBSUP20 00001 000000 00005   2584  3188
IJLQTTAD 00001 000470 00397
IMDCMD   00006 000B7A 01025   1022
INDIB    00004 000D7C 01177   1173
INHSADD  00002 0017E4 02125   1071
INHWADD  00002 0017E6 02126   1076
INHWRITE 00004 000BE8 01059
INITCHN1 00004 001238 01542   1444
INITRG   00004 0010D2 01438   1357  1359  1375  1428  1523  1540
INITSIO  00004 0010F6 01449   1432
INTERRCC 00001 0032B2 04227   4220
INTPUBSC 00006 00120C 01527   1262
INTRTN   00004 000E4E 01250   0446
INUSE    00004 000B46 01009   1000
IOERR    00001 0013AF 01667   1604  1607  1613  1616  1665  1677  1703  1791
IONOP    00006 0012B4 01602   0780
IONPSW   00004 000078 00039
IOOPSW   00008 000038 00016   0017  0251  0252  0253  1744  1823  1835  1866  2805
IOPSET   00006 0022D0 02805   0768  0772  0799  1817
IOTEND   00001 003DAC 05198   5780
ISCNCL   00001 000010 06441   0100  1935  3094
ISSVC51  00001 001DD4 02358   2355
ITBRC    00004 001724 01950   1951  3086  3103
ITBRC1   00004 001725 01951
ITKEY    00001 000002 00050   0385  0388  5908  5910  5963  5965
ITPTR    00001 000456 00384   4146
ITTAB    00004 001AAC 02173   0385  2613  2631  2634  2943  3088  3096  3099  3114  3114  4306  4306  5908  5963
JABDID   00001 000000 00567   0223
JABGID   00001 000010 00568
                                             CROSS-REFERENCE                                                   PAGE   12


SYMBOL    LEN  VALUE  DEFN     REFERENCES                                                                       03/29/70

JAENTRY  00006 000578 00491   0460  0466
JAEQUPKD 00001 00041F 00572   0179
JAET1    00004 000592 00497   0494
JAET2    00001 000596 00498   0496
JAF1ID   00001 000030 00570
JAF2ID   00001 000020 00569
JAISBND  00001 0005C4 00514
JAISPP   00004 00060A 00535   0510
JANOTSUP 00001 0005B6 00508   0504  0506
JAOHD    00004 000604 00533   0517
JAOHID   00001 000040 00571   0180  0184  0533  0546  0809  2722  2749
JASETSP  00006 000208 00186   0183
JAXIT    00006 000352 00275   0187  0209
JAXITBR  00004 00020E 00187   0181  0185
JAXPP    00001 0003D4 00313   0291
JAXRET   00006 0003C8 00310   0294  0320
JAXT1    00004 000372 00283   0280
JAXT2    00001 000376 00284   0282
JCBYT1   00001 000428 00347   1051  1477
JCLBGN   00008 00388F 04898
JCSW2    00001 000429 00349   1325  1767  2286  2888  2899
JCSW6    00001 00042B 00352   2885  2896
JC59OFF  00001 0000FB 06383   2885
JC59ON   00001 000004 06385   2896
JIBTAB   00004 003A0A 04900   0360  5894  5949
JIBTYP   00002 000D30 01151   1118
JOBDUN   00001 000020 06497   1038  1043  1170  1208  1510  1513
KDD      00003 000007 06278
L        00001 000004 06415   0723
LAB2     00001 005A1F 06109
LASTLGTH 00002 00001A 02583   2407
LCIDAR   00001 001D20 02305   2301
LDTCH    00001 000008 06446
LERR27   00001 000017 06440   0099
LGD      00004 000C3A 01081   1062  1199  3029
LGDD     00006 000C4A 01085
LGDD1    00004 000C42 01083   1080
LGD1     00004 000DDC 01202   1092  1124  1196
LID      00002 00048C 00415   0124  1562  2685  2693  2710  2788  3124
LINKBYTE 00001 000039 06380   2302
LIO31    00001 000031 06437
LIO32    00001 000032 06438
LIO33    00001 000033 06439   0075
LL       00001 000012 06281   1489
LMERA    00001 00027E 00220
LOADADDR 00003 000010 02579   2356  2359  2374
LOGOUT   00001 000080 00051
LOGPRC   00001 000E2A 01227   0932
LOGPRC1  00004 000E40 01235   1225
LOGPRC2  00006 000E44 01236   1224
LOOKUP   00004 001D66 02328   2335
                                             CROSS-REFERENCE                                                   PAGE   13


SYMBOL    LEN  VALUE  DEFN     REFERENCES                                                                       03/29/70

LSTDIB   00004 000D74 01175   1167
LSVC51   00001 00000B 03217   3209
LTA      00001 005568 06088   4619  6089  6093  6127
LTABSY   00004 00216A 02683   2684
LTABSYD  00004 00216B 02684   2661
LTABSYD1 00004 00216F 02686   2662  2694  3859
LTABSY1  00004 00216E 02685   2686
LTACNL   00004 000158 00133   2782  2799
LTACT    00001 000425 00343
LTADD    00002 00362E 04619   2245  2667  3548
LTAREA   00003 000469 00394   0815  3436  3521  3546  3991  4025  4355
LTARTRN  00001 000234 00198   0258  0260
LTAWAIT  00006 002994 03456   3452
LTB      00003 003629 04616   2865  3824
LTHIDQ   00001 00044E 00377   3837  4884
LTK      00002 00045E 00391   2659  2681  2683  2692  2853  3438  3440  3443  3453  3456
LTPSW    00002 001B98 02187   2671  2695  2858
LTRG0    00004 001BBC 02196   2855
LTRG1    00004 001BC0 02197
LTRG10   00004 001BA4 02190
LTRG11   00004 001BA8 02191
LTRG12   00004 001BAC 02192
LTRG13   00004 001BB0 02193
LTRG14   00004 001BB4 02194
LTRG15   00004 001BB8 02195   2668
LTRG2    00004 001BC4 02198
LTRG3    00004 001BC8 02199
LTRG4    00004 001BCC 02200
LTRG5    00004 001BD0 02201
LTRG6    00004 001BD4 02202
LTRG7    00004 001BD8 02203
LTRG8    00004 001BDC 02204
LTRG9    00004 001BA0 02189
LTSAREA  00072 001B98 02186   2205
LTSVPT   00072 001B90 02205   0394  4616
LUBADR   00001 000000 06270   0757  0877  1265  1460  1561  1600
LUBDSP   00001 000040 06273   0762  0889  0931  0937  1032  1074  1165  1186  1206  1468  1495  3348
LUBDSPI  00001 000A0D 00888   0668  0677  0827
LUBDSPTB 00001 003840 04888
LUBID    00001 000000 06271   0758  0880  1099  3344
LUBIDQ   00001 00045C 00389   0756  0875  1455
LUBIDTAB 00001 003800 04882   0390  5911  5966
LUBIGN   00002 001744 01961   0837  1962
LUBPT    00001 00043C 00365   0834  1114
LUBTAB   00002 003C44 05172   0366  0661  5672  5677  5684  5689  5694  5699  5704  5709  5714  5719  5724  5731  5736
                              5741  5746  5751  5756  5761  5766  5771  5898  5953
L3       00001 000003 06607   0797  1273  2356
M        00001 000004 06416
MACHEK   00001 0012A4 01582   0038
MARSXT   00002 001966 02130   1137  1138  1139
MAXREC   00001 000010 06282   1483
                                             CROSS-REFERENCE                                                   PAGE   14


SYMBOL    LEN  VALUE  DEFN     REFERENCES                                                                       03/29/70

MAXVAL   00008 001A00 02160   0279  0493  2948  2950  2954  3079  3081  3084
MCNPSW   00004 000070 00037
MCOLDP   00008 000030 00015   0404
MINVAL   00004 001A08 02161   2945  2947
ML001    00001 00329E 04221   4213
MODE     00001 000093 06524
MPX      00001 000000 06473   0912  1427  1522
MRD0A0   00001 0000F8 05344   5347
MRD0A1   00001 0000F8 05355   5358
MRD0A2   00001 0000F8 05366   5369
MRD0A3   00001 0000F8 05377   5380
MRD0A4   00001 0000F8 05388   5391
MRD0A5   00001 0000F8 05399   5402
MRD00C   00001 0000F8 05226   5229
MRD00D   00001 0000F8 05237   5240
MRD00E   00001 0000F8 05248   5251
MRD01C   00001 0000F8 05261   5264
MRD01D   00001 0000F8 05272   5275
MRD01E   00001 0000F8 05283   5286
MRD01F   00001 0000F8 05296   5299
MRD02C   00001 0000F8 05309   5312
MRD02D   00001 0000F8 05320   5323
MRD02E   00001 0000F8 05331   5334
MRD130   00001 0000F8 05418   5421
MRD131   00001 0000F8 05429   5432
MRD132   00001 0000F8 05440   5443
MRD133   00001 0000F8 05451   5454
MRD190   00001 0000F8 05464   5467
MRD191   00001 0000F8 05475   5478
MRD192   00001 0000F8 05486   5489
MRD193   00001 0000F8 05497   5500
MRD194   00001 0000F8 05508   5511
MRD195   00001 0000F8 05519   5522
MRD196   00001 0000F8 05530   5533
MRD197   00001 0000F8 05541   5544
MRD280   00001 0000C0 05563   5566
MRD281   00001 0000C0 05577   5580
MRD282   00001 0000C0 05591   5594
MRD283   00001 0000C0 05605   5608
MRD284   00001 0000C0 05619   5622
MRD285   00001 0000C0 05633   5636
MRD286   00001 0000C0 05647   5650
MRD287   00001 0000C0 05661   5664
MUNSP    00001 000000 06605
MUNSPB   00001 000000 06606
MVCEND   00001 0055B2 06155   6147
MVCFLD   00006 001A20 02168   0164  0418  3590  3761  3877  3954  4011  4130  4339  5987  6007
MVCSTART 00004 0055AA 06153   6147  6147
MVQPTR   00004 001100 01452
MVZEX    00006 001404 01691   0713  1681  1683  1685  1687
M1017    00001 000000 06601
                                             CROSS-REFERENCE                                                   PAGE   15


SYMBOL    LEN  VALUE  DEFN     REFERENCES                                                                       03/29/70

M1017TP  00001 000000 06603
M1018    00001 000000 06602
M1018TP  00001 000000 06604
M1050A   00001 000000 06577   5298
M1285    00001 000000 06581
M1287    00001 000000 06582
M1288    00001 000000 06583
M1403    00001 000000 06587   5250  5285  5333  6588
M1403U   00001 000000 06591
M1404    00001 000000 06588
M1442N1  00001 000000 06571
M1442N2  00001 000000 06573
M1443    00001 000000 06589   6590
M1445    00001 000000 06590
M2260    00001 000000 06597
M2311    00001 000000 06584   2090  5420  5431  5442  5453
M2314    00001 000000 06586   5466  5477  5488  5499  5510  5521  5532  5543
M2321    00001 000000 06585
M2400T7  00001 000001 06569
M2400T9  00001 000000 06568   5565  5579  5593  5607  5621  5635  5649  5663  6569
M2495TC  00001 000000 06570
M2501    00001 000000 06576   5228  5263  5311
M2520B1  00001 000000 06574
M2520B2  00001 000000 06580
M2520B3  00001 000000 06579
M2540P   00001 000000 06578   5239  5274  5322
M2540R   00001 000000 06575
M2596    00001 000000 06572
M2671    00001 000000 06593
M2701    00001 000000 06594
M2702    00001 000000 06595
M2703    00001 000000 06596
M3211    00001 000000 06592
M3277    00001 000000 06600   5346  5357  5368  5379  5390  5401
M7770    00001 000000 06598
M7772    00001 000000 06599
NBTFLG   00001 000000 06523   6133  6568  6571  6572  6574  6576  6581  6582  6583  6584  6585  6586  6593  6606
NE       00001 000007 06420   0126  0798  1328  1436  1790
NGTMBP   00001 002476 02961   2955
NH       00001 00000D 06424   1539
NICL     00004 003C40 05167   0364  5897  5952
NL       00001 00000B 06422
NM       00001 00000B 06423   0588
NO       00001 00000E 06426
NOBLOCKS 00001 000013 02580   2406
NOCCB    00001 000002 06518   1613  1616  1677  1703  1755  1791  3249
NOCCB1   00004 0012E2 01613   1609
NOCEDNHK 00001 001ECA 02441   2435
NOCEFLT1 00001 0006D4 00611   0586  0588
NOCEFLT2 00001 001E44 02400   2390
NOCEINTR 00001 0004DC 00445   0441
                                             CROSS-REFERENCE                                                   PAGE   16


SYMBOL    LEN  VALUE  DEFN     REFERENCES                                                                       03/29/70

NOCESIO  00001 000AC6 00958   0950
NOCETRHK 00001 002532 03050   3038
NOEXSVC  00001 00222E 02744   2741
NOFECHQI 00001 0001C6 00170   0167
NOLOADAD 00002 001E1A 02382   2377
NOLPZ    00001 000AE6 00968   0961  0963
NOLTP    00001 000EAC 01278   1268  1270  1272
NOMOD    00001 001CE2 02289   2287
NOPINS   00004 000C68 01092   0942  1078
NOPINSTR 00004 000C64 01091   0933  1054
NOQUIS   00004 00166E 01881   1873
NORCD    00004 0027DE 03290   3267
NORELOC  00004 001326 01630   1627
NOSO1    00001 001068 01407
NOSTACK  00001 002626 03128   3125
NOSTART  00002 0012B2 01601   1018
NOSWP    00001 0022BE 02796   2791  2794
NOSWP2   00004 0022C2 02798   2790
NOSWREGS 00001 002380 02864   2859
NOTBONLY 00004 001F6C 02494   2490  2495
NOTBSY   00004 001004 01379   1371  1373
NOTCLB   00001 000CB2 01112   1101  1103
NOTEXSVC 00001 0021D8 02718   2715
NOTFCH   00001 00234E 02845   2838
NOTFOUND 00004 001D8A 02337   2330
NOTIC    00004 000CF6 01130   1087
NOTOP    00002 000317 00264   1602
NOTSUP   00001 001D9E 02342   2338
NOTSVC2  00001 000002 06431   0120  0129  1953  2700  2712  2909  2910  3102
NOTSVC7  00001 000001 06432   0120  0121  0129  0463  1354  1404  1953  2700  2802  2910  3073  3102  3110  3121  3493
                              3600  3608
NOTTP    00001 00162E 01859   1854  1856
NOT2260  00001 000A52 00922   0917
NP       00001 00000D 06425   3118
NRSTWAIT 00001 001068 01405   1403
NTFTCH   00001 001504 01766   1758  1760  1762
NUCEND   00001 0044D8 06081
NULL     00001 0000FF 06457   0740  0760  1269
NXT1     00004 000B1A 00999   1012
NZ       00001 000007 06421   0894  1022  1326  1373  1448  1612  1675  1848  1891  1955  2905  2915  3276  3284
N1114    00004 0011DE 01513   1507
O        00001 000001 06419   0146  0513  0772  1850  2473  2841  2847  3263  3265  3271  3278  3280  3286  3302
OCTAB    00004 001AB4 02174   0386  5909  5964
OFFLINE  00004 001282 01568   1564
OLTABL   00004 001754 01969   0421
OLTAC    00001 000080 03006   0716  0960  1267  3011  3204
OLTP     00001 000004 03007   0927  0962  0966  1271
OLTPAREA 00001 00000C 03215   2359
OLTPCOMP 00001 000814 00734   0748
OLTPHALT 00001 0000FF 03219   0719  0729
OLTPMOVE 00006 000E98 01273   0964
                                             CROSS-REFERENCE                                                   PAGE   17


SYMBOL    LEN  VALUE  DEFN     REFERENCES                                                                       03/29/70

OLTSAV   00004 001750 01968   0718  0719  0724  0729  0735  0965  1273  1274
ONE      00001 000001 06387   0714  0735  0735  0752  0753  1273  2231  2232  2356  3202
ONECHK   00002 00284E 03323   3320
OPCLOSE  00004 001D34 02314   2291
OPINTV   00001 000008 06499   0893  1376  1379  1383  1431  1447  1890
OPTNBYTE 00001 000476 00400   0631
OPTRTSCT 00001 000000 03185   3186  3187
OPTRTSVC 00001 000011 03186   3184
OPTRT1   00004 0026EE 03191   3058
OPTRT2   00004 0026E6 03183   3155  3173
OPTTBLPT 00001 000454 03187   3189
ORGLUB   00001 003820 04883   4886
OURSIO   00004 0015E4 01836   1862
OVRFLW   00004 000B56 01013   1001
OWNUCR   00001 000001 06507   1643
P        00001 000002 06418
PASBCK   00001 000020 06515
PASSSVC0 00001 000980 00847   0842  0844
PCHDIB   00004 000D78 01176   1166
PCHKSW   00004 0024FC 03029   0077  1058  1081  1202
PCI      00001 000080 06485   1021
PCIL1    00004 001C8C 02264
PCIL2    00004 001C94 02266   2346
PCITRT   00002 00260E 03117   3061  3100
PCITRT2  00004 00264C 03138   3130  3132  3134
PCNPSW   00004 000068 00035
PCOLDP   00008 000028 00014
PCPTR    00001 000454 00382   3187  3911  4149  4152  4294  4301
PCTAB    00004 001A34 02172   0383  3057  5907  5962
PDCCBPT  00001 0024DC 02997   2991
PDCCBT   00004 0024B8 02987   2993
PDEDLT   00001 0024D4 02994   2989
PGRLUB   00002 003C5A 05174   0683  5704  5709  5714  5719  5724
PHASE    00001 001D28 02310   2299  2304
PIBADR   00001 000000 06180   0009  0142  0648  1037  1060  1169  1231  1284  1346  1393  1509  1599  1898  3093  3113
                              3120  3123  3139  3354  3358  3492  3597  3852  6192
PIBAR    00001 003620 04611   1329  1330  1332  1939  1944  2703  2704  3073  3074  3102  3126  3135  3993  4027  4258
                              4321
PIBARADD 00003 000009 06187
PIBBG    00001 0035F0 04572   0078
PIBCNCL  00001 000001 06182   0103  0106  0133  0136  0192  0211  1935  2229  2679  2735  3094  3853
PIBCOMRA 00002 000000 06193   0205
PIBCORNO 00001 000008 06186   1948  1954  1957
PIBDIFF  00004 000484 00413   0178  1106  1347  1348  1352  1353  1394  1395  1399  1400  3710  3712  4091  4139
PIBECBAD 00004 000008 06197
PIBFLG   00001 000000 06181   0118  0121  0129  0145  0158  0191  0248  0449  0451  0463  0503  1354  1402  1404  1953
                              1956  2223  2225  2691  2712  2725  2842  2848  2909  2995  3107  3110  3121  3493  3598
                              3600  3608
PIBFLG2  00001 00000F 06191   0111  0468  0505  1038  1170  1510  2651
PIBF1    00001 003610 04598
PIBF2    00001 003600 04585
                                             CROSS-REFERENCE                                                   PAGE   18


SYMBOL    LEN  VALUE  DEFN     REFERENCES                                                                       03/29/70

PIBINSTR 00001 000004 06184   0147  0188  0189  0210  0217  0453  2737  2747  2931  2998  3139
PIBLOGID 00002 000002 06183   0112  0114  0116  1232
PIBLUBID 00001 00000D 06189   0828
PIBLUBNO 00001 00000E 06190   0830
PIBPRTID 00002 00000C 06198
PIBPRTY  00002 000006 06196
PIBPSBAD 00002 000004 06195
PIBPT    00001 00044A 00370   0122  0203  0448  1048  1064  1105  1160  1474  2543  2787  2926  2928  3596  3707  3811
                              3985  4012  4108  4136  4348
PIBPUBAS 00001 00000C 06188   0104  1061  1286  3355
PIBQUIS  00001 003630 04622   1770  1881
PIBSLUB  00002 000002 06194
PIBSUPVR 00001 003640 04630   0168  0228  2465  2470  2506  2774  2798  2802
PIBSVADD 00003 000005 06185   0815  2703  2704  3602
PIBTAB   00001 0035E0 04562   0125  0171  0371  0413  1168  1566  3060  3091  3139  3441  3573  3889  5902  5957  5982
                              6002
PIB2AD   00001 0034E0 04426   0123  0204  0395  0413  0679  1049  1161  1475  2277  2444  5914  5969  5982  6002
PIB2PTR  00002 00046C 00395   0176  0885  3813  3831  3962  4063  4106  4245
PICKDIR  00002 001CD0 02284   2278
PID      00001 00041E 00337   0177  0259  0572  0685  1921  1927  2232  2535  2610  2661  2908  2924  3041  3047  3053
                              3523  3740  3760  3782  3888  4140  4342
PIK      00002 00048E 00416   0175  0196  0447  0607  0678  0714  0812  0813  0843  1831  1906  2214  2233  2652  2662
                              2710  2824  2837  2853  2975  3009  3042  3049  3055  3059  3152  3166  3170  3191  3202
                              3462  3481  3517  3647  3800  3819  3830  3832  3844  4064  4065  4107  4109  4114  4196
                              4208  4244  4251  4265  4292  4297  4299  4304  4313  4381  4390  4392
POSTCE   00006 001130 01467   1465
POSTDE   00001 000004 06500   0771  1380  1383  1519  1521  1614
PPBEG    00001 006000 06084   0325  1963  5871  5926  6085  6112  6115
PPBIT    00001 000001 00254   0251
PPEND    00001 000410 00330
PREFERED 00004 001D30 02313   2295
PRGLUNT  00001 000001 06512   1100
PRGPRT   00001 000030 06487   1319  1674  1847
PROTECT  00004 000BDC 01056   0940
PRTPRG   00004 00136E 01649   1615  1646
PRTPRG1  00004 00135E 01645   1606  1618
PRTPRG2  00001 001382 01654   1651
PSKEY0   00001 0000F0 06373   2904  2914  2979
PSTEOF   00004 0011E2 01514   1503  1512
PTA      00001 005A18 06089   2017  6090  6109
PTADD    00002 001836 02017   1625  2817
PTAFTCH  00001 000010 06491   1329  1948
PTASAVE  00001 001B48 02179   0244  0245  0482  0484  0486  0487  0806  2732  2764  2767  2839
PTPAR    00001 000724 00658   0656
PUBADR   00001 000000 06284   0711  0857  1259  1874  2488  2520  2562  2804  3242  3417  6130  6293
PUBCHANN 00001 000000 06285   0773  0784  0896  0911  0912  1427  1442  1522  1530  1537  1778  2805  6131
PUBCHQPT 00001 000002 06287   0726  0890  0892  1269  1280  1311  1343  1410  1411  1429  1445  1451  1461  1548  1608
                              1645  1663  1892  2521  2564  2565
PUBCLB   00002 002064 02572   2272  2486  2518  2560
PUBCSFLG 00001 000006 06291   0767  0769  0771  0866  0893  0973  1043  1208  1309  1376  1379  1380  1383  1414  1431
                              1447  1513  1518  1521  1614  1650  1668  1821  1890  2489  2491
                                             CROSS-REFERENCE                                                   PAGE   19


SYMBOL    LEN  VALUE  DEFN     REFERENCES                                                                       03/29/70

PUBDEQ   00004 0022CC 02802   2146
PUBDEQ4  00001 0022D0 02803   3225
PUBDEVNO 00001 000001 06286   1260  1533
PUBDEVTY 00001 000004 06289   0792  0914  0916  0929  0936  1096  1313  1316  1327  1356  1358  1365  1367  1386  1388
                              1433  1435  1470  1621  1680  1682  1684  1686  1691  1694  1696  1700  1786  1853  1855
                              1877  3334  3418  6134
PUBEND   00008 003A08 04897   4756  4757  4758  5219  5220  5221  5411  5412  5413  5553  5554  5555  5561  5575  5589
                              5603  5617  5631  5645  5659
PUBENT   00002 001998 02153   0862  1815  1876
PUBERR   00001 000003 06288   1056  1214  1390  1553  3245  3247  3303  3311  3314  3316  3319  3322
PUBJCFLG 00001 000007 06292   0731
PUBOPTN  00001 000005 06290   1210  2563  2567  3429  3432  3474  3511  3513  3582  3583  3587  3588
PUBPT    00001 000430 00357   0840  2271
PUBRES   00002 003648 04634   0845  1887  2515  2557  6129
PUBSAVE  00005 001900 02086   2564  2565  6137
PUBTAB   00008 003888 04894   0358  4897  4897  4898  5219  5220  5221  5411  5412  5413  5553  5554  5555  5561  5575
                              5589  5603  5617  5631  5645  5659  5892  5947
PUBWIT   00001 000008 06293   1441  1536  1545
PURGE    00004 001036 01391   1277  1385  1559
PWTIMS   00001 00045A 00387   2610  2924  2975  3087  3133  4144
P0A0     00001 00000A 05348
P0A1     00001 00000B 05359
P0A2     00001 00000C 05370
P0A3     00001 00000D 05381
P0A4     00001 00000E 05392
P0A5     00001 00000F 05403
P00C     00001 000000 05230   5685  5690
P00D     00001 000001 05241   5695
P00E     00001 000002 05252   5700
P01C     00001 000003 05265
P01D     00001 000004 05276
P01E     00001 000005 05287
P01F     00001 000006 05300   5673
P02C     00001 000007 05313   5732  5737
P02D     00001 000008 05324   5742
P02E     00001 000009 05335   5747
P130     00001 000010 05422
P131     00001 000011 05433
P132     00001 000012 05444
P133     00001 000013 05455
P190     00001 000014 05468
P191     00001 000015 05479
P192     00001 000016 05490   5678  5705  5710  5715  5720  5725
P193     00001 000017 05501   5752  5757  5762  5767  5772
P194     00001 000018 05512
P195     00001 000019 05523
P196     00001 00001A 05534
P197     00001 00001B 05545
P280     00001 00001C 05567
P281     00001 00001D 05581
P282     00001 00001E 05595
                                             CROSS-REFERENCE                                                   PAGE   20


SYMBOL    LEN  VALUE  DEFN     REFERENCES                                                                       03/29/70

P283     00001 00001F 05609
P284     00001 000020 05623
P285     00001 000021 05637
P286     00001 000022 05651
P287     00001 000023 05665
QEDERR   00001 000010 06498   0769  0866  0893  1414  1431  1447  1650  1668  1821  1890  2489
QISRES   00002 001F5A 02487   2484
QISRT1   00004 001686 01889   2485  2492
QISRT2   00004 001676 01885   2482
QISRT3   00004 00168A 01890   1893
QUEUP    00001 0009CC 00868   0861  0863  0865
QUISIO   00002 00164E 01871   4625
RA       00001 00000A 06402   0009  0078  0080  0122  0123  0124  0125  0125  0142  0172  0172  0174  0175  0176  0177
                              0178  0203  0204  0204  0443  0447  0448  0590  0592  0594  0594  0610  0648  0898  0955
                              0956  1298  1348  1349  1353  1395  1396  1399  1599  1898  2396  2438  2439  2440  2454
                              2472  2474  2543  2544  2545  2783  2789  2798  2926  2927  2928  3044  3092  3113  3119
                              3123  3353  3358  3436  3492  3496  3521  3546  3663  3711  3713  3716  3791  3821  3846
                              3847  3852  3854  3855  3863  3864  3868  4204  4205  4211  4215  4218  4219  4222  4224
                              4228  4229  4231  4235  4238  4242  4253  4261  4263  4281  4287  4288  4290  4312  4316
                              4317  4324  4338  4346  4346  4347  4348  4349  4351  4353  4355  4357  4358  4359  4363
                              4369  4383
RADLDS   00002 00073E 00667   0663
RALOC    00001 0000FF 06450   1767
RALOC1   00001 000002 06451   1325
RASNSRT  00002 0015F4 01842   1843
RB       00001 00000B 06403   0008  0072  0073  0074  0075  0075  0088  0089  0090  0091  0092  0093  0094  0095  0096
                              0097  0098  0099  0099  0100  0100  0143  0144  0435  0444  0453  0454  0456  0457  0458
                              0464  0479  0609  0952  0957  0967  0970  1583  2255  2393  2397  2429  2820  2822  3040
                              3043  3045
RC       00001 00000C 06404   0008  0608  2255  2429
RCBADR   00001 000000 06264
RCBFLG   00001 000004 06267
RCBOWN   00004 000004 06268
RCBTS    00001 000000 06265
RCLCIL   00002 0017CE 01991   2404  2408  6136
RCVERR   00004 00149C 01739   1844  3256  3308  3367
RCVMSG   00001 000020 06519   1739
RCVSIO   00004 0014BC 01747
RCVTIO   00004 0014C4 01749   1750
RD       00001 00000D 06405   0008  2255  2429  2438  2440
RDCCW    00008 001818 02011   2317  2404  2411  2416  2421  2422  2424  2426
RDDIR2   00004 001D5C 02325   2336
RDHA9    00004 002824 03311   3273
RDTXT    00004 001E66 02408   2428
RDYCANDP 00001 0032D2 04237   4232
RDYCNL   00001 003408 04336   4217  4399
RDYCN1   00001 003414 04340   4343
RDYCN2   00001 003426 04345   4367
RDYCN2A  00004 003452 04357   4354
RDYCN3   00004 003440 04353   4350
RDYCN4   00001 00346E 04364   4352
                                             CROSS-REFERENCE                                                   PAGE   21


SYMBOL    LEN  VALUE  DEFN     REFERENCES                                                                       03/29/70

RDYCN4X  00004 003482 04371   4356
RDYCN4Z  00004 00345A 04359   4372
RDYDUMP  00001 0032CA 04234   4230
RE       00001 00000E 06406   0008  0165  0435  0458  0464  0476  0477  0479  0483  0484  0485  1885  1886  1888  1891
                              1894  2248  2249  2253  2254  2255  2274  2279  2280  2326  2333  2333  2334  2414  2429
                              2487  2496  2524  2555  2556  3040
READUPDT 00002 001F3E 02479   2325  2423
RECAL    00001 002814 03305   3312  3317
REQID    00001 000020 06272   0761  0882  0883  0886  0934  0943  0991  1228  1408  1563  1570  1705  1759  3345
REQIDTAB 00001 003820 04887
RESCHK   00004 001412 01694
RESERR   00004 002742 03245   1695  1697
RESETSW  00004 00133E 01635   1639
RESQD    00001 001FC2 02519   2517
RESVC    00004 0021C8 02713   0603  0618  0770  0779  0788  0795  0808  0846  0867  2813  2996  3495  4095
RESVC1   00001 00220C 02734   2228
RESWAIT  00004 000FAE 01352   1350
RES2311  00001 005590 06139   6135
RF       00001 00000F 06407   0225  0434  0578  0650  0655  1063  1064  1104  1744  1745  1747  1749  1874  1876  1887
                              1897  2245  2246  2329  2361  2486  2488  2493  2497  2515  2518  2520  2523  2557  2560
                              2562  2569  2667  2668  2669  2670  2670  2671  2775  2780  2840  3030  3068  6128  6151
RIK      00002 001980 02144   0654  0841  1757  2231  2457  2500  2513  2723  3131
RLCL2314 00002 0055A4 06149   6136
RSETWAIT 00001 00105C 01401
RSTPUB   00004 002026 02554   2496  2524
RSTPUB1  00006 002044 02564   2566
RSTREG   00002 0015C0 01822   1754  2807
RSTRES   00001 002040 02561   2559
RTYERR   00001 000004 06517   1604  1607  1808
RTY1     00004 00284A 03322   3261
RTY9     00004 002842 03319   3274  3297
R0       00001 000000 06392   0008  0150  0218  0241  0245  0455  0475  0482  0805  0805  0806  0959  2255  2354  2370
                              2376  2376  2378  2380  2382  2429  2507  2620  2620  2625  2635  2639  2669  2765  2766
                              2817  2820  2830  2869  2870  2906  2906  2911  2930  2934  3037  3174  3180  3208  3222
                              3651  3752  3753  3822  3976  3976  3982  4059  4103  4184  4184  4190  4191  4199  4379
                              4379
R1       00001 000001 06393   0174  0249  0647  0650  0652  0718  0817  0817  0818  0821  0853  0878  1266  1456  1568
                              1624  1725  1912  1912  1913  1915  1918  1952  2216  2235  2251  2368  2368  2369  2370
                              2378  2383  2412  2421  2424  2425  2425  2426  2447  2448  2453  2646  2646  2647  2649
                              2668  2673  2673  2674  2676  2816  2846  2869  2883  2883  2888  2894  2894  2899  2929
                              2930  2937  2939  2941  2942  2943  2973  2981  2981  2982  2987  2988  2992  2992  2998
                              3000  3003  3013  3178  3180  3207  3208  3209  3211  3224  3224  3227  3243  3374  3423
                              3478  3624  3652  3661  3662  3664  3670  3678  3679  3683  3684  3688  3689  3689  3691
                              3693  3697  3698  3698  3700  3705  3706  3707  3708  3709  3716  3717  3730  3731  3737
                              3760  3767  3777  3778  3778  3789  3798  3798  3802  3804  3805  3870  3872  3872  3874
                              3933  3944  3973  3975  3981  3982  3983  3983  3995  4028  4059  4060  4075  4077  4082
                              4090  4103  4104  4112  4126  4127  4156  4159  4162  4163  4183  4188  4190
R2       00001 000002 06394   0191  0652  0659  0659  0660  0662  0665  0667  0668  0669  0678  0679  0679  0680  0773
                              0774  0778  0821  0829  0833  0833  0880  0895  0895  0896  0897  0897  0911  0919  0923
                              0926  0972  0989  1002  1009  1029  1255  1255  1256  1257  1257  1258  1438  1529  1542
                              1543  1630  1636  1822  1822  1823  1824  1824  1830  1831  1832  1832  1834  1835  1836
                                             CROSS-REFERENCE                                                   PAGE   22


SYMBOL    LEN  VALUE  DEFN     REFERENCES                                                                       03/29/70

                              1838  1865  1866  1907  1907  1908  1924  2235  2412  2417  2418  2937  2942  2943  2952
                              2954  2956  2957  2957  2963  2965  3178  3209  3361  3656  3656  3663  3664  3665  3671
                              3672  3679  3684  3691  3700  3711  3712  3720  3761  3764  3765  3766  3766  3770  3780
                              3781  3784  3788  3802  3836  3838  3841  3842  3877  3879  3879  3880  3882  3884  3885
                              3894  3896  3896  3897  3899  3899  3911  3914  3915  3915  3918  3919  3920  3920  3924
                              3926  3929  3929  3930  3932  3933  3934  3936  3938  3954  3957  3957  3958  3961  3973
                              4060  4082  4083  4083  4084  4084  4086  4088  4094  4104  4108  4109  4122  4129  4129
                              4135  4137  4167  4168  4172  4188  4191  4244  4245  4246  4246  4247  4247  4249  4265
                              4266  4267  4268  4272  4277  4278  4278  4284  4287  4313  4314  4315  4316  4318  4339
                              4341  4341  4342  4347  4365  4366  4392  4393  4394  4395  4395
R3       00001 000003 06395   0661  0662  0664  0665  0667  0677  0680  0691  0701  0711  0786  0800  0823  0823  0824
                              0829  0835  0837  0839  0839  0840  0845  0857  0862  0972  1029  1238  1258  1259  1418
                              1438  1441  1441  1529  1536  1536  1543  1545  1545  1546  1662  1815  1897  2804  2806
                              2929  2945  2947  2948  2950  2953  2962  2964  2965  2966  2973  3087  3090  3091  3124
                              3139  3144  3160  3161  3174  3191  3192  3207  3211  3242  3374  3417  3590  3591  3591
                              3592  3595  3624  3651  3675  3678  3724  3727  3730  3743  3746  3752  3762  3762  3765
                              3767  3781  3787  3788  3789  3837  3838  3858  3906  3907  3908  3908  3912  3913  3914
                              3919  3925  3926  3927  3936  3938  3940  3955  3955  3961  3963  3981  4063  4064  4069
                              4091  4092  4093  4106  4107  4110  4130  4132  4132  4133  4135  4142  4144  4172  4183
                              4200  4268  4269  4269  4318  4326  4327  4328
R4       00001 000004 06396   0701  0702  0703  0704  0704  0705  0706  0708  0733  0739  0740  0743  0751  0752  0755
                              0755  0758  0759  0760  0761  0762  0858  0871  0872  0872  0873  1065  1065  1066  1067
                              1068  1072  1073  1077  1085  1089  1090  1118  1125  1127  1157  1188  1189  1189  1190
                              1238  1264  1452  1453  1453  1454  1542  1546  1671  1675  1698  1790  1897  2284  2284
                              2307  2311  2311  2312  2312  2313  2313  2314  2314  2315  2315  2323  2324  2354  2356
                              2359  2361  2364  2450  2451  2455  2473  2475  2549  2621  2678  2819  2829  2917  2917
                              2920  3057  3099  3149  3149  3161  3167  3180  3183  3184  3189  3190  3194  3195  3212
                              3280  3287  3302  3304  3315  3323  3412  3420  3425  3426  3428  3428  3448  3449  3450
                              3466  3467  3467  3468  3480  3499  3505  3508  3509  3509  3537  3541  3580  3583  3594
                              3594  3595  3596  3597  3615  3624  3652  3683  3688  3697  3727  3734  3777  3782  3783
                              3784  3785  3786  3787  3811  3812  3815  3821  3827  3834  3847  3861  3864  3869  3984
                              3998  4012  4019  4062  4062  4069  4070  4070  4077  4088  4093  4094  4110  4111  4111
                              4116  4116  4119  4136  4137  4138  4154  4158  4196  4197  4198  4199  4200  4258  4263
                              4273  4274  4275  4277  4280  4280  4281  4282  4284  4321  4324  4326  4327  4328  4359
                              4363  6153
R5       00001 000005 06397   0700  0702  0703  0703  0874  0875  0877  1238  1265  1450  1450  1451  1452  1452  1455
                              1460  1525  1561  1574  1600  1896  1918  1919  1920  1921  1922  1924  1925  1926  1927
                              1928  2880  2881  2893  2901  3078  3079  3082  3083  3096  3106  3112  3117  3117  3143
                              3144  3160  3176  3176  3192  3193  3194  3195  3252  3253  3255  3255  3258  3258  3259
                              3292  3313  3331  3344  3349  3368  3433  3440  3441  3441  3442  3445  3447  3447  3448
                              3450  3458  3459  3459  3460  3515  3548  3549  3551  3553  3553  3558  3568  3573  3573
                              3574  3602  3604  3616  3619  3624  3709  3710  3720  3734  3740  3813  3814  3824  3827
                              3829  3830  3831  3870  3871  3871  3985  3987  3987  3988  3990  3991  4001  4017  4017
                              4018  4019  4020  4022  4024  4025  4033  4040  4047  4112  4113  4113  4119  4138  4139
                              4140  4146  4149  4152  4168  4169  4169  4170  4170  4215  4218  4272  4273  4274  4275
                              4396  4396
R6       00001 000006 06398   0277  0295  0295  0297  0298  0300  0301  0302  0304  0305  0306  0311  0314  0314  0315
                              0316  0317  0459  0461  0465  0467  0518  0518  0520  0521  0523  0524  0525  0527  0528
                              0529  0538  0538  0539  0540  0541  0621  0622  0622  0624  0624  0625  0651  0651  0654
                              0657  0773  0774  0778  0812  0820  0820  0881  0882  0885  0886  0911  0919  0923  0926
                              0954  0989  1002  1009  1026  1027  1028  1070  1079  1083  1085  1086  1088  1093  1094
                                             CROSS-REFERENCE                                                   PAGE   23


SYMBOL    LEN  VALUE  DEFN     REFERENCES                                                                       03/29/70

                              1094  1099  1104  1105  1106  1107  1107  1108  1109  1109  1110  1110  1113  1114  1116
                              1130  1135  1136  1150  1152  1162  1178  1183  1184  1193  1321  1323  1326  1328  1480
                              1482  1486  1490  1491  1493  1532  1539  1649  1655  1657  1658  1659  1669  1865  1897
                              1906  1910  1910  2214  2234  2533  2544  2613  2614  2614  2622  2623  2623  2625  2631
                              2632  2632  2634  2635  2636  2672  2672  2764  2765  2766  2767  2778  2818  2818  2824
                              2828  2828  2879  2892  2902  2920  2987  2990  3001  3078  3083  3084  3085  3096  3097
                              3097  3140  3141  3142  3157  3158  3159  3195  3241  3374  3531  3532  3533  3539  3540
                              3713  3724  3746  3749  3753  3810  3812  3814  3953  3960  3960  3964  3990  3993  3994
                              3994  3995  4011  4014  4014  4015  4018  4154  4156  4169  4216  4292  4293  4294  4295
                              4295  4299  4300  4301  4302  4302  4344  4397
R7       00001 000007 06399   0076  0079  0101  0123  0127  0128  0128  0146  0159  0163  0278  0279  0281  0283  0285
                              0286  0287  0288  0293  0293  0296  0300  0304  0308  0309  0318  0319  0492  0493  0495
                              0497  0499  0500  0501  0502  0516  0516  0519  0523  0527  0531  0532  0542  0543  0623
                              0624  0653  0685  0687  0687  0688  0689  0690  0690  0691  0728  0733  0735  0739  0742
                              0742  0743  0744  0745  0752  0753  0756  0757  0763  0783  0783  0784  0785  0785  0786
                              0822  0834  0835  0959  0969  0988  0990  0990  0991  0992  0994  0995  1004  1005  1005
                              1006  1015  1036  1047  1049  1050  1052  1059  1071  1072  1076  1077  1088  1089  1093
                              1095  1119  1123  1130  1133  1135  1138  1148  1150  1151  1151  1152  1153  1154  1155
                              1161  1164  1164  1175  1175  1176  1176  1177  1184  1185  1193  1194  1212  1222  1223
                              1230  1234  1235  1236  1254  1261  1263  1275  1285  1290  1291  1291  1292  1297  1300
                              1301  1315  1318  1345  1392  1410  1413  1416  1417  1421  1422  1425  1440  1446  1448
                              1449  1457  1473  1475  1476  1478  1491  1492  1492  1493  1497  1498  1499  1501  1501
                              1502  1504  1508  1535  1544  1549  1552  1552  1553  1554  1555  1556  1558  1567  1625
                              1626  1628  1629  1632  1689  1702  1715  1717  1726  1740  1751  1753  1772  1773  1802
                              1818  1819  1820  1825  1842  1848  1850  1852  1858  1911  1930  2215  2236  2246  2374
                              2375  2379  2383  2415  2419  2482  2485  2487  2528  2529  2529  2530  2555  2568  2608
                              2666  2701  2709  2795  2815  2825  2857  2858  2863  2871  2874  2916  2931  2933  2935
                              2938  2956  2958  2959  2960  2971  2976  2984  3013  3058  3061  3100  3118  3127  3136
                              3137  3138  3148  3155  3156  3165  3173  3179  3196  3206  3210  3226  3227  3245  3246
                              3246  3247  3261  3263  3265  3271  3274  3276  3278  3286  3307  3327  3328  3329  3340
                              3341  3341  3342  3343  3351  3366  3431  3431  3432  3435  3472  3474  3475  3476  3486
                              3487  3488  3510  3510  3513  3613  3614  3621  3622  3624  3680  3685  3692  3701  3723
                              3774  3803  3875  3887  3887  3888  3889  3889  3890  3891  3893  3903  3945  3959  3974
                              3978  4016  4061  4105  4147  4150  4153  4173  4189  4192  6141  6142  6143  6144  6145
                              6146  6147  6148
R8       00001 000008 06400   0080  0083  0102  0126  0132  0148  0156  0206  0218  0277  0278  0285  0286  0287  0289
                              0292  0299  0303  0307  0311  0317  0455  0492  0499  0500  0501  0511  0515  0522  0526
                              0530  0537  0541  0700  0708  0737  0745  0750  0750  0751  0754  0758  0759  0761  0762
                              0833  0835  0869  0871  0871  0874  0892  0951  0952  0953  0965  0967  0995  0996  1014
                              1037  1039  1048  1049  1060  1063  1095  1119  1123  1132  1132  1133  1134  1136  1137
                              1139  1160  1161  1168  1168  1169  1171  1177  1179  1200  1213  1213  1214  1215  1216
                              1217  1219  1231  1233  1274  1275  1284  1287  1294  1296  1300  1301  1346  1347  1349
                              1352  1355  1393  1394  1396  1400  1406  1474  1475  1481  1494  1509  1511  1562  1565
                              1566  1566  1572  1610  1611  1611  1624  1626  1628  1629  1669  1670  1688  1714  1716
                              1716  1717  1719  1725  1742  1743  1754  1797  1804  1810  1826  1830  1833  1917  1917
                              1920  1922  1926  1928  2258  2258  2259  2260  2261  2261  2262  2262  2263  2268  2268
                              2269  2270  2271  2272  2275  2275  2276  2277  2277  2302  2320  2320  2321  2321  2322
                              2323  2325  2327  2334  2372  2373  2379  2380  2382  2392  2393  2394  2395  2408  2410
                              2411  2416  2418  2423  2480  2508  2509  2525  2538  2548  2563  2567  2708  2713  2716
                              2717  2719  2720  2721  2729  2732  2739  2742  2743  2745  2746  2748  2785  2786  2786
                              2787  2788  2789  2807  2834  2835  2836  2839  2865  2868  2872  3059  3060  3060  3091
                                             CROSS-REFERENCE                                                   PAGE   24


SYMBOL    LEN  VALUE  DEFN     REFERENCES                                                                       03/29/70

                              3093  3112  3120  3122  3306  3354  3357  3360  3365  3850  3866  3962  3963  3964  4024
                              4027  4029  4031  4036  4038  4040  4041  4041  4043  4045  4050  4050  4217  4337  4361
                              4368  4370  4398  6129  6130  6140
R9       00001 000009 06401   0081  0147  0149  0157  0187  0189  0190  0195  0206  0209  0217  0219  0225  0241  0245
                              0276  0312  0434  0442  0443  0446  0459  0460  0461  0462  0465  0466  0467  0469  0480
                              0488  0513  0534  0536  0545  0547  0576  0578  0589  0595  0601  0602  0606  0610  0613
                              0614  0698  0709  0723  0727  0741  0798  0804  0894  0920  0924  0952  0953  0955  0957
                              0957  0988  0998  0999  1002  1003  1007  1009  1011  1011  1013  1015  1017  1024  1250
                              1334  1340  1344  1351  1360  1377  1398  1436  1524  1531  1547  1601  1652  1769  2251
                              2264  2281  2290  2292  2294  2296  2326  2327  2331  2345  2393  2394  2396  2397  2397
                              2405  2405  2406  2409  2427  2427  2437  2438  2439  2440  2444  2445  2446  2446  2448
                              2453  2454  2507  2609  2747  2777  2800  2841  2847  2867  2873  2886  2889  2897  2900
                              2912  2932  2936  2967  2985  2999  3004  3005  3030  3037  3038  3039  3044  3052  3068
                              3069  3139  3181  3228  3534  3577  3593  3603  3611  3625  3937  4201  6154
SARA     00001 000000 06342
SAVERG   00004 000048 06493   1069  1070  1182  1183  1289  1290  1296  1298
SAVERGE  00004 00169C 01895   1885  1888
SAVER2   00002 001352 01640   1630  1636
SAVSNS   00002 001354 01641   1631  1634
SCIL1    00004 001CC4 02281   2267  2344
SCIL2    00004 001CCC 02283   2257  2265
SCNPSW   00004 000060 00033
SCSW     00008 000000 06159
SDRQUIS  00006 00164E 01872
SEEKTEST 00004 000C32 01079   1075
SEKCHK   00004 002808 03301   3269
SEKCHK1  00004 00280E 03303   3291  3294
SELBMX   00004 0010C4 01433   1430
SELECT   00002 0010AC 01426   1381  1415  1423  1462  1653  1771  1810
SETLT1   00004 002192 02700   2687
SETLT2   00006 00219E 02703   2705  2795
SETLT2A  00004 002196 02701   2875
SETOP1   00002 0026A0 03160
SETOP2   00004 0026A2 03161   3145  3175  3177
SETREG   00002 000E62 01255
SETSK    00004 001D58 02324   2319
SETSKAD  00001 001D3C 02316   2308
SETSVAR  00004 001EFA 02454   2443  2449  2452
SEVEN    00001 000007 06390   2321
SFLAG    00001 00000A 06161
SFP0     00008 000058 06365
SFP2     00008 000060 06366
SFP4     00008 000068 06367
SFP6     00008 000070 06368
SHIO     00001 00001B 06471   0850
SHORTLGT 00002 0017CC 01988   2407  2410
SIBADR   00001 000000 06201   6213
SIBARADD 00003 000009 06208
SIBCNCL  00001 000001 06203
SIBCOMRA 00002 000000 06214
SIBCORNO 00001 000008 06207
                                             CROSS-REFERENCE                                                   PAGE   25


SYMBOL    LEN  VALUE  DEFN     REFERENCES                                                                       03/29/70

SIBECBAD 00004 000008 06218
SIBFLG   00001 000000 06202
SIBFLG2  00001 00000F 06212
SIBINSTR 00001 000004 06205
SIBLOGID 00002 000002 06204
SIBLUBID 00001 00000D 06210
SIBLUBNO 00001 00000E 06211
SIBPRTID 00002 00000C 06219
SIBPRTY  00002 000006 06217
SIBPSBAD 00002 000004 06216
SIBPUBAS 00001 00000C 06209
SIBSLUB  00002 000002 06215
SIBSVADD 00003 000005 06206
SIMCAN   00004 0034A8 04387   4382  4384
SIO      00004 000AA6 00944   0945
SIOADR   00004 000AA8 00945   0926  0954  0989  1025  1066
SKADR    00007 001905 02092   2004  2005  2324  2401  2402  2402  2403  2528  2532
SLAMPR   00003 000314 00263   1504
SLASTR   00003 000311 00262   1502
SLBLL    00002 000050 06363
SMSG     00001 00000B 06162
SNME     00008 000000 06343
SNSCMD   00001 000004 06472   1222
SNSERROR 00004 00134A 01638   1633
SPARMBG  00009 0036FC 04759   0427
SPARMF1  00009 00370E 04761   6016
SPARMF2  00009 003705 04760   5996
SPID     00001 000060 06372   0182  0813  2233
SPSW1    00008 000008 06344
SPSW2    00004 00000C 06346
SPUBAD   00002 000008 06160
SPVECB   00004 003224 04176   3661  3943  3944
SRCHBCKT 00005 001968 02131   1185  1188  1190  1191
SRCHID   00008 001808 02005   1603  2006  2007
SR00     00004 00002C 06354
SR01     00004 000030 06355
SR02     00004 000034 06356
SR03     00004 000038 06357
SR04     00004 00003C 06358
SR05     00004 000040 06359
SR06     00004 000044 06360
SR07     00004 000048 06361
SR08     00004 00004C 06362
SR09     00004 000010 06347
SR10     00004 000014 06348
SR11     00004 000018 06349
SR12     00004 00001C 06350
SR13     00004 000020 06351
SR14     00004 000024 06352
SR15     00004 000028 06353
SSEN     00001 00000C 06163
                                             CROSS-REFERENCE                                                   PAGE   26


SYMBOL    LEN  VALUE  DEFN     REFERENCES                                                                       03/29/70

SSKADR   00005 000464 00393   2012  2530  2531  2532
STATMOD  00001 000040 06478   0794  1023  1370  1374
STDEXT   00004 00150C 01769   1756
STMCCW   00008 001770 01973   1210  1223  1715
STMODE   00001 000DE4 01205   0930
STMODE1  00006 000DF4 01210   1207
STMODE2  00001 000E1A 01221
STOPPR   00001 003A08 04896
STORE    00004 000C5C 01089   1131
STRKAD   00001 000012 06164
STRTED   00004 000AEC 00971
STRTIO   00006 000A96 00941   0928  0935  1046  1053  1057  1082  1229
STRTIO1  00004 000A9C 00942   1203
STRTI2   00006 000AA0 00943   1220  1237
SUPCNL   00004 00153A 01779   0113  0115  1776  1777  2340
SUPEND   00001 005FFF 06115
SUPEXP   00002 000708 00650   0814
SUPEXT   00004 000292 00228   4633
SUPEXT2  00001 0002D0 00243   0230  0239
SUPFLG   00001 000004 06430   0118  0228  1881  2774  2909  3102
SUPIB    00004 001292 01572   1569
SUPNEXT  00001 001F32 02471   2469
SUPUPDAT 00001 000008 06452   1325
SVANCL   00001 001A30 02170   0130  0131  2784  4371  4387
SVBSR8   00004 00033C 00267   2480  2525
SVCRTN1  00004 0006F8 00621
SVCTAB   00001 003716 04765   0273  0619
SVCTABND 00001 003780 04813   0619
SVC00    00004 0008EE 00807   0616  3415
SVC0001  00002 003718 04766
SVC0002  00002 00371A 04767
SVC0003  00002 00371C 04768
SVC0004  00002 00371E 04769
SVC0005  00002 003720 04770
SVC0006  00002 003722 04771
SVC0007  00002 003724 04772
SVC0008  00002 003726 04773
SVC0009  00002 003728 04774
SVC01    00004 002066 02608   4766
SVC01A   00001 002098 02626   2624
SVC01B   00001 0020C0 02638   2629  2633
SVC01C   00001 002086 02619   2611  2615
SVC010   00002 00372A 04775
SVC011   00002 00372C 04776
SVC012   00002 00372E 04777
SVC013   00002 003730 04778
SVC014   00002 003732 04779
SVC015   00002 003734 04780
SVC016   00002 003736 04781
SVC017   00002 003738 04782
SVC018   00002 00373A 04783
                                             CROSS-REFERENCE                                                   PAGE   27


SYMBOL    LEN  VALUE  DEFN     REFERENCES                                                                       03/29/70

SVC019   00002 00373C 04784
SVC02    00004 0020CE 02644   0250  1955  4767
SVC02A   00001 002120 02663   2645
SVC02J   00001 002104 02656   2650  2653  4223
SVC020   00002 00373E 04785
SVC021   00002 003740 04786
SVC022   00002 003742 04787
SVC023   00002 003744 04788
SVC024   00002 003746 04789
SVC025   00002 003748 04790
SVC026   00002 00374A 04791
SVC027   00002 00374C 04792
SVC028   00002 00374E 04793
SVC029   00002 003750 04794
SVC03    00004 002242 02759   4768
SVC035   00002 00375C 04798
SVC036   00002 00375E 04799
SVC037   00002 003760 04800
SVC038   00002 003762 04801
SVC039   00002 003764 04802
SVC04    00004 002306 02824   4769
SVC040   00002 003766 04803
SVC041   00002 003768 04804
SVC042   00002 00376A 04805
SVC046   00002 003772 04808
SVC047   00002 003774 04809
SVC05    00001 0022DE 02811   4770
SVC051   00002 00377C 04811
SVC052   00002 00377E 04812
SVC06    00001 00348A 04378   4771
SVC07    00004 002324 02834   4772
SVC08    00001 00237C 02862   4773
SVC09    00001 00235C 02852   4774
SVC10    00004 00248C 02971   4775
SVC10A   00001 00243E 02944   2971
SVC10B   00004 00244A 02948   2946
SVC10C   00001 002456 02951   2949
SVC11    00004 002176 02689   4776
SVC11A   00004 00217E 02691   0135  0138  3866
SVC11B   00004 00219A 02702   0137  2706
SVC11C   00004 0021AE 02706   2702
SVC12    00001 00239C 02878   4777
SVC12A   00001 0023AC 02887   2884
SVC13    00001 0023B4 02891   4778
SVC13A   00001 0023C4 02898   2895
SVC15    00004 0008E2 00803   4780
SVC18    00004 0026AA 03165   4783
SVC19    00004 002670 03148   4784
SVC2BND  00006 0021BA 02710   2660
SVC22    00004 0023CC 02904   4787
SVC22A   00004 0023E0 02909   2907
                                             CROSS-REFERENCE                                                   PAGE   28


SYMBOL    LEN  VALUE  DEFN     REFERENCES                                                                       03/29/70

SVC23    00004 0023EE 02914   4788
SVC24    00006 00240A 02924   4789
SVC25    00001 0008FA 00810   4790
SVC26    00004 00249E 02979   4791
SVC27    00001 0008FA 00811   4792
SVC29    00001 0024B8 02986   4794
SVC3NM   00008 001988 02149   1773  1875  1879  1947  2772  2776  2814  2816
SVC35    00004 0028F0 03412   4798
SVC35A   00004 0028F4 03413   3499
SVC36    00004 002A3C 03497   3937  4799
SVC36A   00006 002A68 03507   3504
SVC36B   00002 002A76 03510   3506
SVC37    00002 003238 04183   4800
SVC37A   00001 003250 04195   4185
SVC38    00001 002C68 03646   4801
SVC38A   00001 002C98 03669   3658
SVC38B   00001 002CDA 03694   3690
SVC38C   00001 002CEC 03704   3699
SVC38D   00001 002D64 03763   3768
SVC38E   00001 002D76 03769
SVC38H   00001 002DAE 03790   3779
SVC39    00001 002DB6 03797   4802
SVC39A   00001 002E02 03818   3799
SVC39B   00001 002E32 03833   3817
SVC39C   00001 002EC6 03876   3873
SVC39D   00001 002ECA 03878   3881
SVC39E   00001 002F08 03895   3883  3900
SVC39E1  00004 002F04 03894   3886
SVC39F   00001 002F20 03902   3898
SVC39G   00001 002E4A 03840   3858
SVC39H   00004 002E4C 03842   3839
SVC39H1  00004 002E54 03844   3862
SVC39J   00001 002F62 03928   3940
SVC39K   00001 002F8E 03939   3931
SVC39L   00001 002F96 03942
SVC39M   00002 002E0A 03821   3801
SVC39M1  00001 002E1C 03826   3823
SVC39M2  00001 002E20 03828   3825
SVC39P   00001 002E7E 03857   3843
SVC39P1  00004 002EAA 03869   3860
SVC40    00001 002FD0 03972   4803
SVC40A   00001 002FEA 03980   3977
SVC40B   00001 002FFA 03986   3998
SVC40C   00001 00302A 04000   3996
SVC40D   00004 003018 03994   3992
SVC40E   00001 003022 03997   3989
SVC41    00001 003130 04102   4804
SVC41A   00001 00317A 04125   4120
SVC41A1  00001 003168 04118   4115
SVC41A2  00001 00316E 04121   4117
SVC41B   00001 00318C 04131   4141  4157  4160
                                             CROSS-REFERENCE                                                   PAGE   29


SYMBOL    LEN  VALUE  DEFN     REFERENCES                                                                       03/29/70

SVC41B1  00001 0031CC 04148   4145
SVC41B2  00001 0031D4 04151   4143
SVC41B3  00001 0031E0 04155   4171
SVC41C   00001 0031F4 04161   4134
SVC41D   00001 003204 04166   4147  4150  4153
SVC42    00001 0030C6 04058   4805
SVC42A   00001 0030EC 04074   4066
SVC42B   00001 0030FC 04081   4076
SVC42C   00002 003112 04088   4085
SVC46    00001 0024E6 03008   4808
SVC51    00001 002700 03201   4811
SVC52    00004 00272A 03222   4812
SVC89SW  00001 0022AF 02792   2797  2856  2866
SVEARA   00001 000000 06314   0149  0190  0454  0576  2609  2868  2873  2933  2936  3000  3004  3604  3625
SVEFP0   00008 000058 06337   0151  0199
SVEFP2   00008 000060 06338   0152  0200
SVEFP4   00008 000068 06339   0153  0201
SVEFP6   00008 000070 06340   0154  0202
SVELBLL  00002 000050 06335   3141  3142  3158  3159
SVENME   00008 000000 06315
SVEPSW1  00008 000008 06316   0156  2639  2640  2748  3140  3605  3607
SVEPSW2  00004 00000C 06318   2870  2871  3143  3157
SVEREG   00004 000178 00145   0163  1297  2215  2608  2666  2815  2825  2857  2874  2916  3138  3156  3206  3723
SVER00   00004 00002C 06326   0150  0218  0455  2622  2869  3141  3141  3142  3142  3158  3158  3159  3159
SVER01   00004 000030 06327   2830  2934  3001
SVER02   00004 000034 06328
SVER03   00004 000038 06329
SVER04   00004 00003C 06330
SVER05   00004 000040 06331
SVER06   00004 000044 06332
SVER07   00004 000048 06333
SVER08   00004 00004C 06334
SVER09   00004 000010 06319   0155  0206  3142  3142  3159  3159
SVER10   00004 000014 06320
SVER11   00004 000018 06321
SVER12   00004 00001C 06322
SVER13   00004 000020 06323
SVER14   00004 000024 06324
SVER15   00004 000028 06325
SVNTRK   00001 000001 06502   6569
SVOLDP   00008 000020 00013   0221  0592  0615  0617  0619  0621  0797  0848  0850  0855  0864  2713  2714  2721  2739
                              2740  2759  2834  2836  2855  2904  2908  2911  2914  2979  3150  3168  3183  3413  3416
                              3458  3460  3494  3935
SVREGS   00004 0004BC 00429
SWITCH   00001 000040 06496
SXPC1    00001 002686 03154   3151
SXPC2    00001 0026C8 03172   3169
SXTRT1   00004 0026B4 03167   4781  4785
SYSCLB   00001 00000B 05211   0672  0681  1102  2273  2300  2318  2343  2483  2516  2558
SYSEND   00001 0053F8 06085   6086  6087
SYSFILE  00001 000D48 01159   1091
                                             CROSS-REFERENCE                                                   PAGE   30


SYMBOL    LEN  VALUE  DEFN     REFERENCES                                                                       03/29/70

SYSFILE1 00006 000D82 01180   1162
SYSFILE2 00001 000D54 01163   1480
SYSFILE3 00004 001198 01495   1469  1472  1479
SYSFILE5 00004 000BBC 01045   1033  1041
SYSIN    00004 000DD0 01197   1187
SYSINOUT 00004 000B94 01032   0938
SYSIPT   00001 000001 05201   1032  1206  1495  5689  5736
SYSLNK   00001 000005 05205   5677
SYSLOG   00001 000004 05204   0931  5672
SYSLST   00001 000003 05203   0937  1468  5699  5746
SYSLUB   00002 003C44 05173   0683  5672  5677  5684  5689  5694  5699
SYSPCH   00001 000002 05202   1165  1186  5694  5741
SYSRDR   00001 000000 05200   5684  5731
SYSREC   00001 00000A 05210
SYSRES   00001 000006 05206   1074  1763  2283  3348
SYSRLB   00001 000008 05208
SYSSLB   00001 000007 05207
SYSS00   00001 000000 00007   0008  0457  2255  2429  3187  6084  6110
SYSTIMER 00004 000050 00027   0278  0492  2952  2953  3078  3081
SYSTOD   00004 000054 00028   2959  2960  2964  2966  3085
SYSUSE   00001 000009 05209
TADDSV   00004 001B44 02177   3670  3705
TEBADR   00001 000000 06306   1217  1556  6313
TEBERG   00001 000004 06311
TEBERRCT 00001 000000 06307   1218  1557
TEBIRE   00001 000002 06309
TEBIWE   00001 000003 06310
TEBLNG   00001 000006 06313
TEBNR    00001 000005 06312
TEBPRE   00001 000001 06308
TEBPT    00001 000436 00361   1216  1555
TEBTAB   00006 003C0C 05158   0362  5559  5559  5573  5573  5587  5587  5601  5601  5615  5615  5629  5629  5643  5643
                              5657  5657  5895  5950
TEBWIT   00008 001786 01976   1215  1554
TESTCHN  00004 000F42 01319   1308  1317
TESTLTA  00004 0002F6 00255   0197
TESTSVC  00001 001DAE 02347   2282  2339  2352
THCHK    00004 002AF2 03542   3584  3589
THDLT1   00004 002B8A 03578   3536
THDLT2   00001 002BAA 03585   3579
THELD    00001 000080 03632   3491  3542
THETNUM  00001 000008 05177   3927  5182  5184  5186  5188  5190  5192  5194
THFLPTR  00001 0029DD 03473   3470  3477  3483  3485  3486  3489  3537  3538  3581  3582  3586  3587
THFREE   00006 002A90 03517
THFREE1  00001 002ABE 03528   3518  3524
THINIT   00004 002BBE 03590   3545  3576
THINIT2  00004 002B80 03575   3552  3565  3567
THREE    00001 000003 06388   0689  0735  1108  2260  2270  2324
THRETRY  00004 002C0C 03613   3433  3515  3623
THSETUP  00004 0029F0 03478   3490
THTABAD  00004 000480 00412   3476  3488  3614  3924
                                             CROSS-REFERENCE                                                   PAGE   31


SYMBOL    LEN  VALUE  DEFN     REFERENCES                                                                       03/29/70

THWAIT1  00004 002A30 03493   3471  3484
THWAIT2  00004 002A2C 03491   3463
TIDSAV   00002 00321A 04174   3526  3672  3708  3743  3770  3785  3804  3806  3808  3810  3832  3839  3859  3880  3906
                              3912  3930
TIDTRT   00008 003228 04177   3657  3657  3908
TIMSW    00001 002007 02540   2612  2616  2627  2630
TKDLET   00004 002AD2 03535   3530
TKHBSET  00008 002C4C 03635   3549
TKHDADD  00004 002A08 03483   3434
TKHDADR  00006 000004 06301   3454  3457  3480  3556  3566  3615
TKHDAGN  00004 002BC2 03591   3599  3601  3606  3610  3612
TKHDCCB  00003 000001 06300   3478
TKHDCTR  00001 00000B 06303   3464  3466  3468  3529  3531  3533  6304
TKHDFLG  00001 00000B 06304   3491  3542  3544
TKHDOWN  00001 00000A 06302   3438  3462  3481  3517  3526  3543
TKHDPIB  00004 002B78 03573   3563
TKHDPTR  00001 000000 06299   3477  3479  3485  3489  3540  3541  3575  3578  3580  3581  3586  3618  3620
TKHDQUE  00004 0029D2 03470   3430
TKHDRTN  00004 0028FC 03416   0856
TKHDTAB  00012 003D4C 05181   0412  5981  6001
TKHDTAD  00001 000000 06298   3435
TKHD1    00001 00290C 03421   3412
TKHD1ST  00001 000040 03633   3514  3535  3617
TKHELD   00006 0029B0 03462   3437  3439
TKHLOAD  00004 0029A0 03458   3455
TKHLTA   00001 002C67 03640   3451  3456  3554  3558  3559  3562  3569  3571
TKHLTA2  00001 002C66 03639   3453  3559  3561  3564  3568  3569  3572
TKHMIN2  00004 002C48 03634   3449
TKHNBG   00004 00296C 03447   3444
TKHNLTA  00002 002B22 03553   3547  3550
TKHSVADR 00004 002970 03448   3446
TKHWT    00002 002C44 03629   0855  3497  3501  3605
TKHX     00004 002B48 03562   3560
TKHY     00004 002B74 03572   3570
TKIDPTR  00004 000490 00417   3836
TKPRTY   00001 002FA6 03952   3774  3903
TKPRT1   00001 002FB0 03956   3965
TKREQID  00001 000060 06274   0759  0881  1409  1565
TKTRAC   00006 002C5A 03637   3457  3556
TKTRAC2  00006 002C60 03638   3454  3566
TMEKEY   00002 002490 02973
TMEKEY1  00001 002492 02974   3148  3165
TMERT1   00004 0025B2 03086   1950
TOTCHQ   00001 000020 04818   4819  4821  4823  4825  4827  4829  4831  4833  4835  4837  4839  4841  4843  4845  4847
                              4849  4851  4853  4855  4857  4859  4861  4863  4865  4867  4869  4871  4873  4875  4877
                              4879
TOTDVC   00001 000030 04815   4897  5217  5230  5241  5252  5265  5276  5287  5300  5313  5324  5335  5348  5359  5370
                              5381  5392  5403  5409  5422  5433  5444  5455  5468  5479  5490  5501  5512  5523  5534
                              5545  5551  5567  5581  5595  5609  5623  5637  5651  5665
TOTJIB   00001 000080 04901   4903  4905  4907  4909  4911  4913  4915  4917  4919  4921  4923  4925  4927  4929  4931
                              4933  4935  4937  4939  4941  4943  4945  4947  4949  4951  4953  4955  4957  4959  4961
                                             CROSS-REFERENCE                                                   PAGE   32


SYMBOL    LEN  VALUE  DEFN     REFERENCES                                                                       03/29/70

                              4963  4965  4967  4969  4971  4973  4975  4977  4979  4981  4983  4985  4987  4989  4991
                              4993  4995  4997  4999  5001  5003  5005  5007  5009  5011  5013  5015  5017  5019  5021
                              5023  5025  5027  5029  5031  5033  5035  5037  5039  5041  5043  5045  5047  5049  5051
                              5053  5055  5057  5059  5061  5063  5065  5067  5069  5071  5073  5075  5077  5079  5081
                              5083  5085  5087  5089  5091  5093  5095  5097  5099  5101  5103  5105  5107  5109  5111
                              5113  5115  5117  5119  5121  5123  5125  5127  5129  5131  5133  5135  5137  5139  5141
                              5143  5145  5147  5149  5151  5153  5155
TOTTAP   00001 000008 04816   5558  5559  5572  5573  5586  5587  5600  5601  5614  5615  5628  5629  5642  5643  5656
                              5657
TPBSYTST 00001 000FD6 01364   1302  1336
TPBUSY0  00001 000872 00766   0730  0732  0736
TPBUSY1  00001 0008AA 00782   0775
TPBUSY2  00001 0008C0 00789   0781
TPBUSY3  00001 0008D8 00796   0793
TRABIT   00001 000080 06504   0233  0696  1391  2504  2840  2846  2940  2990  3109  3295
TRKCHK   00004 002854 03326   3282
TRKEOC   00006 0028E6 03371   3284
TRNOFF   00004 001016 01383   1517  2808
TRTAB    00020 004234 06022   0423  5992  6012
TRTFLD   00017 001A0E 02166   0164  0171  0173  0173  0174
TRTIDRA  00001 00009B 00066   0598  1937  2227  2237  2413  2420  2458  2657  2664  2761
TRTLTK   00001 000093 00058   2700
TRTMSK   00006 000092 00056   0173
TRTPTA   00001 000099 00064   0237  1942  2218  2220  2461  2468  2763  2771  2812  2821  2843
TRTRUN   00001 000095 00060   0120  2910
TRYNXT   00004 000CDE 01124   1129
TSKIDTAB 00001 003860 04889   0417  5986  6006
TSTATTN  00004 000F4A 01321   1704  1710  1798
TSTATTN2 00004 000F70 01332
TSTDEV   00001 0007CE 00712   0849  0851
TSTDEV1  00001 0007EE 00721   0715  0717
TSTDEV2  00001 0007F8 00725   0720
TSTEOJ   00001 000A58 00925   0913  0921
TSTERF   00004 00101A 01384   1520
TSTNXT   00004 000D24 01148   1125  1127  1156
TSTQEF   00004 0010F0 01447   1550
TSTSVC   00001 001DBC 02351   2332
TSTUCK   00006 000EFE 01303   1281  1283  1288
TST3277  00004 000F36 01316   1314
TTP      00001 0000B0 06558   0722
TUNSP    00001 0000FF 06565
TUNSPB   00001 0000FF 06566
TWTIMS   00002 00248A 02968   2927  3090  3166  4304
TXTCCB   00002 001840 02020   0233  1783  2016  2024  2285  2288  2497  2504  2526  2536
TXTCCW   00008 001800 02004   2022
TXTLUB   00002 001847 02024   1763  2273  2283  2300  2318  2343  2483  2516  2558
TYPA2260 00001 0010D2 01437   1434
TYPA3277 00001 000A48 00918   0915
T1017    00001 000078 06561
T1017TP  00001 0000D5 06563
T1018    00001 000079 06562
                                             CROSS-REFERENCE                                                   PAGE   33


SYMBOL    LEN  VALUE  DEFN     REFERENCES                                                                       03/29/70

T1018TP  00001 0000D6 06564
T1050A   00001 000000 06535   1327  5295
T1285    00001 000076 06546
T1287    00001 000077 06547   6548
T1288    00001 000077 06548
T1403    00001 000040 06539   1692  5247  5282  5330  6540
T1403U   00001 000042 06543
T1404    00001 000040 06540
T1442N1  00001 000030 06529
T1442N2  00001 000022 06531
T1443    00001 000041 06541   1786  6542
T1445    00001 000041 06542
T2260    00001 0000C0 06555   0916  1356  1433  1686
T2311    00001 000060 06549   0939  1034  1045  1471  1506  1694  2088  3419  5417  5428  5439  5450  6134
T2314    00001 000062 06551   1313  1696  1700  3334  5463  5474  5485  5496  5507  5518  5529  5540  6137
T2321    00001 000061 06550   1096
T2400    00001 000050 06527   0929  1386  1621
T2400T9  00001 000050 06526   1877  5562  5576  5590  5604  5618  5632  5646  5660  6527
T2495TC  00001 000051 06528   1388
T2501    00001 000010 06534   5225  5260  5308
T2520B1  00001 000031 06532
T2520B2  00001 000020 06538
T2520B3  00001 000020 06537
T2540P   00001 000021 06536   5236  5271  5319
T2540R   00001 000011 06533
T2596    00001 000030 06530
T2671    00001 000070 06545
T2701    00001 0000D0 06552   0792
T2702    00001 0000D1 06553   1365  1682
T2703    00001 0000D2 06554   1680
T3211    00001 000043 06544
T3277    00001 0000B0 06559   0914  1316  1358  1435  5343  5354  5365  5376  5387  5398  6560
T3277B   00001 0000B0 06560
T7770    00001 0000D3 06556   1367  1684
T7772    00001 0000D4 06557
UC       00001 000002 06483   1307  1516  1672  1731  1732  1849
UL       00001 000011 06280   1487  6282
UNASSGN  00001 0000FF 06378   2266
UNCBRCH  00004 00223E 02750   2737
UNCOMMON 00004 000B60 01018   0971
UNTCK1   00004 0012C0 01604   1320
UNTCK2   00004 0012CC 01607   1310  1312
UNWAIT   00001 003032 04010   3875  3945  3978
UNW001   00001 00303A 04013   4021  4023  4032  4034  4039  4044  4048
UNW002   00001 00308C 04035   4030
UNW003   00001 0030A4 04042   4051
UNW004   00001 0030BE 04049   4046
UNW005   00006 00307A 04031   4037
UNW006   00004 00306E 04028   4026
US       00001 000020 06510   1617  1638  1723
USRAPPEN 00002 000EF6 01300   1293
                                             CROSS-REFERENCE                                                   PAGE   34


SYMBOL    LEN  VALUE  DEFN     REFERENCES                                                                       03/29/70

USREXT   00004 001444 01709   1637  1644  1648
USRSEN   00004 001474 01723   1678
USRUCK   00004 0012F2 01617   1713  1718  1721
UX       00001 000001 06484   1515  1516
VLDADR1  00004 0016A0 01906   2938  2984  3179  3210  3680  3685  3692  3701  3803  3974  4061  4105  4189  4192
VLDADR2  00004 0016A8 01908   0653  0822  2236
VLDADR3  00004 0016A4 01907   2415  2419
WAITBT1  00001 000002 06374   0221  0251  0478  0486  1253  3070
WAITLOOP 00001 001F8E 02503   2508
WHLMSW   00001 001A31 02171   0082  0084  2707  3849  3851  3865  3867  4360  4362
WRONGLEN 00001 000040 06486   1021
WTCNL    00001 000004 06520   1779
XTNPSW   00005 000058 00030   0031
YCHANQ   00002 001978 02140   0705  0873  1454
YSVCTAB  00002 000350 00273   0623
Z        00001 000008 06414   1024  1323  1340
ZERO     00001 000000 06386   0724  0740  0743  0751  0752  0752  0753  2264  2281  2345  2359  2513  2888  2899
                                                      DIAGNOSTICS                                              PAGE    1


STMT  ERROR CODE   MESSAGE                                                                                      03/29/70

       IJY046      AT LEAST ONE RELOCATABLE Y-TYPE CONSTANT IN ASSEMBLY
 6082  IJY037      MNOTE STATEMENT
 6083  IJY037      MNOTE STATEMENT



    2 STATEMENTS FLAGGED IN THIS ASSEMBLY
// EXEC ASSEMBLY

                                                                                                               PAGE    1


  LOC  OBJECT CODE    ADDR1 ADDR2  STMT   SOURCE STATEMENT                                          FDOS CL3-10 03/29/70

                                      1  PUNCH '/*'   AVOIDS ATTN 280 ON LINK STEP
                                      2  END



NO STATEMENTS FLAGGED IN THIS ASSEMBLY
// RESET SYSPCH
MTC WTM,X'280',2
MTC REW,X'280'
EOJ SYSGEN01                                                            00.00.53,DURATION 00.00.10